 RMO

 Timestamp is 3e641526 (Tue Mar 04 13:53:26 2003)

 Preferred load address is 00400000

 Start         Length     Name                   Class
 0001:00000000 00032dafH .text                   CODE
 0001:00032db0 00007604H .text$AFX_AUX           CODE
 0001:0003a3c0 0000ef09H .text$AFX_CMNCTL        CODE
 0001:000492d0 00008a69H .text$AFX_COL1          CODE
 0001:00051d40 0000670aH .text$AFX_COL2          CODE
 0001:00058450 000199f0H .text$AFX_CORE1         CODE
 0001:00071e40 00010db9H .text$AFX_CORE2         CODE
 0001:00082c00 00017af0H .text$AFX_CORE3         CODE
 0001:0009a6f0 000137ceH .text$AFX_CORE4         CODE
 0001:000adec0 00006dafH .text$AFX_DBG1          CODE
 0001:000b4c70 00010de1H .text$AFX_DBG2          CODE
 0001:000c5a60 0000b835H .text$AFX_INIT          CODE
 0001:000d12a0 0000140cH .text$AFX_TERM          CODE
 0001:000d26b0 000041baH .text$x                 CODE
 0001:000d686a 00051f06H .textbss                CODE
 0002:00000000 00009ff7H .rdata                  DATA
 0002:00009ff8 000033ebH .rdata$r                DATA
 0002:0000d3e8 00005228H .xdata$x                DATA
 0002:00012610 00000000H .edata                  DATA
 0003:00000000 00000104H .CRT$XCA                DATA
 0003:00000104 00000109H .CRT$XCC                DATA
 0003:00000210 00000121H .CRT$XCL                DATA
 0003:00000334 00000198H .CRT$XCU                DATA
 0003:000004cc 00000104H .CRT$XCZ                DATA
 0003:000005d0 00000104H .CRT$XIA                DATA
 0003:000006d4 0000010eH .CRT$XIC                DATA
 0003:000007e4 00000104H .CRT$XIY                DATA
 0003:000008e8 00000104H .CRT$XIZ                DATA
 0003:000009ec 00000104H .CRT$XPA                DATA
 0003:00000af0 00000104H .CRT$XPX                DATA
 0003:00000bf4 00000104H .CRT$XPZ                DATA
 0003:00000cf8 00000104H .CRT$XTA                DATA
 0003:00000dfc 00000104H .CRT$XTB                DATA
 0003:00000f00 00000104H .CRT$XTZ                DATA
 0003:00001010 00009c00H .data                   DATA
 0003:0000ac10 00004bb8H .bss                    DATA
 0004:00000000 000000a0H .idata$2                DATA
 0004:000000a0 00000014H .idata$3                DATA
 0004:000000b4 00000d7cH .idata$4                DATA
 0004:00000e30 00000d7cH .idata$5                DATA
 0004:00001bac 00003110H .idata$6                DATA
 0005:00000000 00000726H .rsrc$01                DATA
 0005:00000730 000031f9H .rsrc$02                DATA

  Address         Publics by Value              Rva+Base     Lib:Object

 0001:00000a20       ??0CHookService@@QAE@XZ    00401a20 f   HookService.obj
 0001:00000a80       ??_GCHookService@@UAEPAXI@Z 00401a80 f i HookService.obj
 0001:00000a80       ??_ECHookService@@UAEPAXI@Z 00401a80 f i HookService.obj
 0001:00000af0       ??1CHookService@@UAE@XZ    00401af0 f   HookService.obj
 0001:00000be0       ?Terminate@CHookService@@QAEXXZ 00401be0 f   HookService.obj
 0001:00000cc0       ?Execute@CHookService@@MAEXXZ 00401cc0 f   HookService.obj
 0001:00000d80       ?Init@CHookService@@QAE_NPAUHWND__@@@Z 00401d80 f   HookService.obj
 0001:00000f60       ?RegisterWindowClass@CMainFrame@@SAHXZ 00401f60 f   MainFrame.obj
 0001:00001050       ??0CMainFrame@@QAE@XZ      00402050 f   MainFrame.obj
 0001:000011b0       ??_GCMainFrame@@UAEPAXI@Z  004021b0 f i MainFrame.obj
 0001:000011b0       ??_ECMainFrame@@UAEPAXI@Z  004021b0 f i MainFrame.obj
 0001:00001220       ??1CMainFrame@@UAE@XZ      00402220 f   MainFrame.obj
 0001:00001300       ?GetMessageMap@CMainFrame@@MBEPBUAFX_MSGMAP@@XZ 00402300 f   MainFrame.obj
 0001:00001340       ?OnKbdHook@CMainFrame@@QAEXIJ@Z 00402340 f   MainFrame.obj
 0001:00001560       ?Resize@CMainFrame@@AAEXXZ 00402560 f   MainFrame.obj
 0001:00001620       ?SetScrollLock@CMainFrame@@QAEX_N@Z 00402620 f   MainFrame.obj
 0001:00001780       ?SetScrollTimer@CMainFrame@@QAEXXZ 00402780 f   MainFrame.obj
 0001:000017d0       ?KillScrollTimer@CMainFrame@@QAEXXZ 004027d0 f   MainFrame.obj
 0001:00001830       ?SetSLNum@CMainFrame@@QAEXI@Z 00402830 f   MainFrame.obj
 0001:000018b0       ?Show@CMainFrame@@QAEXXZ   004028b0 f   MainFrame.obj
 0001:000019a0       ?OnLButtonDown@CMainFrame@@IAEXIVCPoint@@@Z 004029a0 f   MainFrame.obj
 0001:00001a20       ?OnLButtonUp@CMainFrame@@IAEXIVCPoint@@@Z 00402a20 f   MainFrame.obj
 0001:00001a90       ?OnMouseMove@CMainFrame@@IAEXIVCPoint@@@Z 00402a90 f   MainFrame.obj
 0001:00001bd0       ?OnPaint@CMainFrame@@IAEXXZ 00402bd0 f   MainFrame.obj
 0001:00001cb0       ?SetText@CMainFrame@@QAEXPBDK_NK@Z 00402cb0 f   MainFrame.obj
 0001:00001d70       ?SetSubText@CMainFrame@@QAEXPBD_N@Z 00402d70 f   MainFrame.obj
 0001:00001e20       ?SetQueueState@CMainFrame@@QAEXH@Z 00402e20 f   MainFrame.obj
 0001:00001ef0       ?DrawFrame@CMainFrame@@AAEXAAVCDC@@@Z 00402ef0 f   MainFrame.obj
 0001:00002060       ?DrawTextWindow@CMainFrame@@AAEXAAVCDC@@@Z 00403060 f   MainFrame.obj
 0001:00002160       ?DrawLeftSubTextWindow@CMainFrame@@AAEXAAVCDC@@@Z 00403160 f   MainFrame.obj
 0001:00002300       ?DrawSubTextWindow@CMainFrame@@AAEXAAVCDC@@@Z 00403300 f   MainFrame.obj
 0001:00002460       ?OnSize@CMainFrame@@IAEXIHH@Z 00403460 f   MainFrame.obj
 0001:000026c0       ?OnTimer@CMainFrame@@IAEXI@Z 004036c0 f   MainFrame.obj
 0001:000027d0       ?DestroyWindow@CMainFrame@@UAEHXZ 004037d0 f   MainFrame.obj
 0001:00002820       ?OnClose@CMainFrame@@QAEXXZ 00403820 f   MainFrame.obj
 0001:00002910       ?GetMessageMap@CRMOApp@@MBEPBUAFX_MSGMAP@@XZ 00403910 f   RMO.obj
 0001:00002950       ??0CRMOApp@@QAE@XZ         00403950 f   RMO.obj
 0001:000029b0       ??_ECRMOApp@@UAEPAXI@Z     004039b0 f i RMO.obj
 0001:000029b0       ??_GCRMOApp@@UAEPAXI@Z     004039b0 f i RMO.obj
 0001:00002a20       ??1CRMOApp@@UAE@XZ         00403a20 f i RMO.obj
 0001:00002b80       ?SetText@CRMOApp@@QAEXPBDK_NK@Z 00403b80 f   RMO.obj
 0001:00002bf0       ?SetSubText@CRMOApp@@QAEXPBD_N@Z 00403bf0 f   RMO.obj
 0001:00002c50       ?SetScrollTimer@CRMOApp@@QAEXXZ 00403c50 f   RMO.obj
 0001:00002ca0       ?KillScrollTimer@CRMOApp@@QAEXXZ 00403ca0 f   RMO.obj
 0001:00002cf0       ?SetSLNum@CRMOApp@@QAEXI@Z 00403cf0 f   RMO.obj
 0001:00002d50       ?SetQueueState@CRMOApp@@QAEXI@Z 00403d50 f   RMO.obj
 0001:00002db0       ?InitInstance@CRMOApp@@UAEHXZ 00403db0 f   RMO.obj
 0001:00003220       ??0CRMOClientPipe@@QAE@PAVCRMOApp@@@Z 00404220 f   RMOClientPipe.obj
 0001:00003290       ??_ECRMOClientPipe@@UAEPAXI@Z 00404290 f i RMOClientPipe.obj
 0001:00003290       ??_GCRMOClientPipe@@UAEPAXI@Z 00404290 f i RMOClientPipe.obj
 0001:00003300       ??1CRMOClientPipe@@UAE@XZ  00404300 f   RMOClientPipe.obj
 0001:00003350       ?GetClientType@CRMOClientPipe@@UAE_IXZ 00404350 f   RMOClientPipe.obj
 0001:00003380       ?ProcessException@CRMOClientPipe@@UAEXI@Z 00404380 f   RMOClientPipe.obj
 0001:000034d0       ?ProcessMessage@CRMOClientPipe@@UAEXAAV?$TFixedSizeBinaryData@$0BAAA@@@@Z 004044d0 f   RMOClientPipe.obj
 0001:000038a0       ?c_str@TZSuperShortString@@QBEPBDXZ 004048a0 f i RMOClientPipe.obj
 0001:000038e0       ?ResetPos@?$TFixedSizeBinaryData@$0BAAA@@@QAEXXZ 004048e0 f i RMOClientPipe.obj
 0001:00003920       ??5?$TFixedSizeBinaryData@$0BAAA@@@QAEAAV0@AA_N@Z 00404920 f i RMOClientPipe.obj
 0001:00003980       ??5?$TFixedSizeBinaryData@$0BAAA@@@QAEAAV0@AA_E@Z 00404980 f i RMOClientPipe.obj
 0001:000039e0       ??5?$TFixedSizeBinaryData@$0BAAA@@@QAEAAV0@AA_I@Z 004049e0 f i RMOClientPipe.obj
 0001:00003a40       ?__readto@?$TFixedSizeBinaryData@$0BAAA@@@AAEXPAXI@Z 00404a40 f i RMOClientPipe.obj
 0001:00003b00       ??5@YAAAV?$TFixedSizeBinaryData@$0BAAA@@@AAV0@AAVTZSuperShortString@@@Z 00404b00 f i RMOClientPipe.obj
 0001:00003b80       ?ReadDataTo@?$TFixedSizeBinaryData@$0BAAA@@@QAEXPAX_I@Z 00404b80 f i RMOClientPipe.obj
 0001:00003bd0       ??0CRMODlg@@QAE@PAVCWnd@@@Z 00404bd0 f   RMODlg.obj
 0001:00003c90       ??_GCRMODlg@@UAEPAXI@Z     00404c90 f i RMODlg.obj
 0001:00003c90       ??_ECRMODlg@@UAEPAXI@Z     00404c90 f i RMODlg.obj
 0001:00003d00       ??1CRMODlg@@UAE@XZ         00404d00 f i RMODlg.obj
 0001:00003d50       ?DoDataExchange@CRMODlg@@MAEXPAVCDataExchange@@@Z 00404d50 f   RMODlg.obj
 0001:00003da0       ?GetMessageMap@CRMODlg@@MBEPBUAFX_MSGMAP@@XZ 00404da0 f   RMODlg.obj
 0001:00003de0       ?OnInitDialog@CRMODlg@@MAEHXZ 00404de0 f   RMODlg.obj
 0001:00003e60       ?OnPaint@CRMODlg@@IAEXXZ   00404e60 f   RMODlg.obj
 0001:00003fe0       ?OnQueryDragIcon@CRMODlg@@IAEPAUHICON__@@XZ 00404fe0 f   RMODlg.obj
 0001:00004020       ??0TBinaryData@@QAE@XZ     00405020 f   TBinaryData.obj
 0001:00004090       ??_GTBinaryData@@UAEPAXI@Z 00405090 f i TBinaryData.obj
 0001:00004090       ??_ETBinaryData@@UAEPAXI@Z 00405090 f i TBinaryData.obj
 0001:00004100       ??0TBinaryData@@QAE@ABV0@@Z 00405100 f   TBinaryData.obj
 0001:000041e0       ??0TBinaryData@@QAE@PAXI@Z 004051e0 f   TBinaryData.obj
 0001:000042b0       ??1TBinaryData@@UAE@XZ     004052b0 f   TBinaryData.obj
 0001:00004300       ?GetSizeForStore@TBinaryData@@QBEIXZ 00405300 f   TBinaryData.obj
 0001:00004340       ?GetSize@TBinaryData@@QBEIXZ 00405340 f   TBinaryData.obj
 0001:00004380       ?Reset@TBinaryData@@QAEXXZ 00405380 f   TBinaryData.obj
 0001:000043d0       ?GetAdjustedPtr@TBinaryData@@QAEPAX_I@Z 004053d0 f   TBinaryData.obj
 0001:00004410       ?SetSize@TBinaryData@@QAE_NI@Z 00405410 f   TBinaryData.obj
 0001:00004470       ?WriteDataFrom@TBinaryData@@QAEXPAX_I@Z 00405470 f   TBinaryData.obj
 0001:000044c0       ?__writefrom@TBinaryData@@AAEXPAXI@Z 004054c0 f i TBinaryData.obj
 0001:00004540       ?ReadDataTo@TBinaryData@@QAEXPAX_I@Z 00405540 f   TBinaryData.obj
 0001:00004590       ?__readto@TBinaryData@@AAEXPAXI@Z 00405590 f i TBinaryData.obj
 0001:00004640       ?LoadDataFrom@TBinaryData@@QAE_NPAX_I@Z 00405640 f   TBinaryData.obj
 0001:000046b0       ?SaveDataTo@TBinaryData@@QAE_NPAX_I@Z 004056b0 f   TBinaryData.obj
 0001:00004710       ??6TBinaryData@@QAEAAV0@AB_N@Z 00405710 f   TBinaryData.obj
 0001:00004770       ??6TBinaryData@@QAEAAV0@ABD@Z 00405770 f   TBinaryData.obj
 0001:000047d0       ??6TBinaryData@@QAEAAV0@ABE@Z 004057d0 f   TBinaryData.obj
 0001:00004830       ??6TBinaryData@@QAEAAV0@ABH@Z 00405830 f   TBinaryData.obj
 0001:00004890       ??6TBinaryData@@QAEAAV0@ABI@Z 00405890 f   TBinaryData.obj
 0001:000048f0       ??6TBinaryData@@QAEAAV0@ABJ@Z 004058f0 f   TBinaryData.obj
 0001:00004950       ??6TBinaryData@@QAEAAV0@ABK@Z 00405950 f   TBinaryData.obj
 0001:000049b0       ??6TBinaryData@@QAEAAV0@AB_D@Z 004059b0 f   TBinaryData.obj
 0001:00004a10       ??6TBinaryData@@QAEAAV0@AB_E@Z 00405a10 f   TBinaryData.obj
 0001:00004a70       ??6TBinaryData@@QAEAAV0@AB_F@Z 00405a70 f   TBinaryData.obj
 0001:00004ad0       ??6TBinaryData@@QAEAAV0@AB_G@Z 00405ad0 f   TBinaryData.obj
 0001:00004b30       ??6TBinaryData@@QAEAAV0@AB_H@Z 00405b30 f   TBinaryData.obj
 0001:00004b90       ??6TBinaryData@@QAEAAV0@AB_I@Z 00405b90 f   TBinaryData.obj
 0001:00004bf0       ??6TBinaryData@@QAEAAV0@AB_J@Z 00405bf0 f   TBinaryData.obj
 0001:00004c50       ??6TBinaryData@@QAEAAV0@AB_K@Z 00405c50 f   TBinaryData.obj
 0001:00004cb0       ??6TBinaryData@@QAEAAV0@ABV0@@Z 00405cb0 f   TBinaryData.obj
 0001:00004d30       ??5TBinaryData@@QAEAAV0@AA_N@Z 00405d30 f   TBinaryData.obj
 0001:00004d90       ??5TBinaryData@@QAEAAV0@AAD@Z 00405d90 f   TBinaryData.obj
 0001:00004df0       ??5TBinaryData@@QAEAAV0@AAE@Z 00405df0 f   TBinaryData.obj
 0001:00004e50       ??5TBinaryData@@QAEAAV0@AAH@Z 00405e50 f   TBinaryData.obj
 0001:00004eb0       ??5TBinaryData@@QAEAAV0@AAI@Z 00405eb0 f   TBinaryData.obj
 0001:00004f10       ??5TBinaryData@@QAEAAV0@AAJ@Z 00405f10 f   TBinaryData.obj
 0001:00004f70       ??5TBinaryData@@QAEAAV0@AAK@Z 00405f70 f   TBinaryData.obj
 0001:00004fd0       ??5TBinaryData@@QAEAAV0@AA_D@Z 00405fd0 f   TBinaryData.obj
 0001:00005030       ??5TBinaryData@@QAEAAV0@AA_E@Z 00406030 f   TBinaryData.obj
 0001:00005090       ??5TBinaryData@@QAEAAV0@AA_F@Z 00406090 f   TBinaryData.obj
 0001:000050f0       ??5TBinaryData@@QAEAAV0@AA_G@Z 004060f0 f   TBinaryData.obj
 0001:00005150       ??5TBinaryData@@QAEAAV0@AA_H@Z 00406150 f   TBinaryData.obj
 0001:000051b0       ??5TBinaryData@@QAEAAV0@AA_I@Z 004061b0 f   TBinaryData.obj
 0001:00005210       ??5TBinaryData@@QAEAAV0@AA_J@Z 00406210 f   TBinaryData.obj
 0001:00005270       ??5TBinaryData@@QAEAAV0@AA_K@Z 00406270 f   TBinaryData.obj
 0001:000052d0       ??5TBinaryData@@QAEAAV0@AAV0@@Z 004062d0 f   TBinaryData.obj
 0001:00005350       ?LoadFrom@TBinaryData@@QAE_NPAX@Z 00406350 f   TBinaryData.obj
 0001:00005440       ?SaveTo@TBinaryData@@QAE_NPAX@Z 00406440 f   TBinaryData.obj
 0001:000054f0       ??0?$__TBD_TMemory@$0CAA@@@IAE@XZ 004064f0 f i TBinaryData.obj
 0001:00005560       ??1?$__TBD_TMemory@$0CAA@@@MAE@XZ 00406560 f i TBinaryData.obj
 0001:000055c0       ?Reset@?$__TBD_TMemory@$0CAA@@@IAEXXZ 004065c0 f i TBinaryData.obj
 0001:00005640       ?SetSize@?$__TBD_TMemory@$0CAA@@@IAEX_I@Z 00406640 f i TBinaryData.obj
 0001:000056d0       ?AppendBytes@?$__TBD_TMemory@$0CAA@@@IAEXPAX_I@Z 004066d0 f i TBinaryData.obj
 0001:00005810       ??_G?$__TBD_TMemory@$0CAA@@@MAEPAXI@Z 00406810 f i TBinaryData.obj
 0001:00005810       ??_E?$__TBD_TMemory@$0CAA@@@MAEPAXI@Z 00406810 f i TBinaryData.obj
 0001:00005880       ?__CThread_InternalThreadProc@@YGKPAX@Z 00406880 f   Thread.obj
 0001:000058d0       ??0CThread@@QAE@_N@Z       004068d0 f   Thread.obj
 0001:00005990       ??_GCThread@@UAEPAXI@Z     00406990 f i Thread.obj
 0001:00005990       ??_ECThread@@UAEPAXI@Z     00406990 f i Thread.obj
 0001:00005a00       ??1CThread@@UAE@XZ         00406a00 f   Thread.obj
 0001:00005a40       ?__Execute@CThread@@AAEXXZ 00406a40 f   Thread.obj
 0001:00005ab0       ?Terminate@CThread@@QAEXXZ 00406ab0 f   Thread.obj
 0001:00005af0       ?TerminateAndWait@CThread@@QAEKK@Z 00406af0 f   Thread.obj
 0001:00005b60       ?Kill@CThread@@QAEXXZ      00406b60 f   Thread.obj
 0001:00005be0       ?SetPriority@CThread@@QAE_NH@Z 00406be0 f   Thread.obj
 0001:00005c50       ?Resume@CThread@@QAEXXZ    00406c50 f   Thread.obj
 0001:00005cb0       ?Suspend@CThread@@QAEXXZ   00406cb0 f   Thread.obj
 0001:00005d10       ?GetThreadHandle@CThread@@QAEPAXXZ 00406d10 f   Thread.obj
 0001:00005d50       ??0TUIList@@QAE@XZ         00406d50 f   TUIList.obj
 0001:00005db0       ??1TUIList@@QAE@XZ         00406db0 f   TUIList.obj
 0001:00005e10       ?SetSize@TUIList@@QAE_N_I@Z 00406e10 f   TUIList.obj
 0001:00005ed0       ?GetSize@TUIList@@QBE_IXZ  00406ed0 f   TUIList.obj
 0001:00005f10       ??4TUIList@@QAEXABV0@@Z    00406f10 f   TUIList.obj
 0001:00005fe0       ?Reset@TUIList@@QAEXXZ     00406fe0 f   TUIList.obj
 0001:00006060       ?ValueInList@TUIList@@QBE_N_I@Z 00407060 f   TUIList.obj
 0001:000060e0       ?GetIndexFor@TUIList@@QAEH_I@Z 004070e0 f   TUIList.obj
 0001:00006160       ?Add@TUIList@@QAE_N_I@Z    00407160 f   TUIList.obj
 0001:000062a0       ?Delete@TUIList@@QAE_N_I@Z 004072a0 f   TUIList.obj
 0001:00006470       ??ATUIList@@QAEAA_I_I@Z    00407470 f   TUIList.obj
 0001:000064f0       ??6@YAAAVTBinaryData@@AAV0@AAVTUIList@@@Z 004074f0 f   TUIList.obj
 0001:00006560       ??5@YAAAVTBinaryData@@AAV0@AAVTUIList@@@Z 00407560 f   TUIList.obj
 0001:000065e0       ?pr@TUIList@@QAEXXZ        004075e0 f   TUIList.obj
 0001:00006610       ??ATUIAutoSizeList@@QAEAA_I_I@Z 00407610 f   TUIList.obj
 0001:00006770       ??0TUI64List@@QAE@XZ       00407770 f   TUIList.obj
 0001:000067d0       ??1TUI64List@@QAE@XZ       004077d0 f   TUIList.obj
 0001:00006830       ?SetSize@TUI64List@@QAE_N_I@Z 00407830 f   TUIList.obj
 0001:000068f0       ?GetSize@TUI64List@@QBE_IXZ 004078f0 f   TUIList.obj
 0001:00006930       ??4TUI64List@@QAEXABV0@@Z  00407930 f   TUIList.obj
 0001:00006a00       ?Reset@TUI64List@@QAEXXZ   00407a00 f   TUIList.obj
 0001:00006a80       ?ValueInList@TUI64List@@QBE_N_K@Z 00407a80 f   TUIList.obj
 0001:00006b10       ?Add@TUI64List@@QAE_N_K@Z  00407b10 f   TUIList.obj
 0001:00006c60       ?Delete@TUI64List@@QAE_N_I@Z 00407c60 f   TUIList.obj
 0001:00006e30       ??ATUI64List@@QAEAA_K_I@Z  00407e30 f   TUIList.obj
 0001:00006eb0       ??6@YAAAVTBinaryData@@AAV0@AAVTUI64List@@@Z 00407eb0 f   TUIList.obj
 0001:00006f20       ??5@YAAAVTBinaryData@@AAV0@AAVTUI64List@@@Z 00407f20 f   TUIList.obj
 0001:00006fa0       ?pr@TUI64List@@QAEXXZ      00407fa0 f   TUIList.obj
 0001:00006fd0       ??ATUI64AutoSizeList@@QAEAA_K_I@Z 00407fd0 f   TUIList.obj
 0001:00007130       ?Add@TCSUI32DualList@@QAEX_I0@Z 00408130 f   TUIList.obj
 0001:000071a0       ?Delete@TCSUI32DualList@@QAEXH@Z 004081a0 f   TUIList.obj
 0001:000071f0       ?GetCount@TCSUI32DualList@@QAEHXZ 004081f0 f   TUIList.obj
 0001:00007240       ?GetData1@TCSUI32DualList@@QAE_IH@Z 00408240 f   TUIList.obj
 0001:000072a0       ?GetData2@TCSUI32DualList@@QAE_IH@Z 004082a0 f   TUIList.obj
 0001:00007300       ?GetIndexForD1@TCSUI32DualList@@QAEH_I@Z 00408300 f   TUIList.obj
 0001:00007390       ?GetIndexForD2@TCSUI32DualList@@QAEH_I@Z 00408390 f   TUIList.obj
 0001:00007420       ?SetData2@TCSUI32DualList@@QAEXH_I@Z 00408420 f   TUIList.obj
 0001:000074c0       ??0TCSEVUI32Queue@@QAE@XZ  004084c0 f   TUIList.obj
 0001:00007550       ??1TCSEVUI32Queue@@QAE@XZ  00408550 f   TUIList.obj
 0001:000075d0       ?GetEventHandle@TCSEVUI32Queue@@QAEPAXXZ 004085d0 f   TUIList.obj
 0001:00007610       ?WaitForNewItem@TCSEVUI32Queue@@QAEKK@Z 00408610 f   TUIList.obj
 0001:00007670       ?IsEmpty@TCSEVUI32Queue@@QAE_NXZ 00408670 f   TUIList.obj
 0001:00007700       ?Push@TCSEVUI32Queue@@QAEX_I@Z 00408700 f   TUIList.obj
 0001:00007790       ?Pop@TCSEVUI32Queue@@QAE_IXZ 00408790 f   TUIList.obj
 0001:00007860       ?Peek@TCSEVUI32Queue@@QAE_IXZ 00408860 f   TUIList.obj
 0001:00007920       ?Reset@TCSEVUI32Queue@@QAEXXZ 00408920 f   TUIList.obj
 0001:000079a0       ??0TCSEVUI64Queue@@QAE@XZ  004089a0 f   TUIList.obj
 0001:00007a30       ??1TCSEVUI64Queue@@QAE@XZ  00408a30 f   TUIList.obj
 0001:00007ab0       ?GetEventHandle@TCSEVUI64Queue@@QAEPAXXZ 00408ab0 f   TUIList.obj
 0001:00007af0       ?WaitForNewItem@TCSEVUI64Queue@@QAEKK@Z 00408af0 f   TUIList.obj
 0001:00007b50       ?IsEmpty@TCSEVUI64Queue@@QAE_NXZ 00408b50 f   TUIList.obj
 0001:00007be0       ?Push@TCSEVUI64Queue@@QAEX_K@Z 00408be0 f   TUIList.obj
 0001:00007c90       ?Pop@TCSEVUI64Queue@@QAE_KXZ 00408c90 f   TUIList.obj
 0001:00007d90       ?Peek@TCSEVUI64Queue@@QAE_KXZ 00408d90 f   TUIList.obj
 0001:00007e50       ?Reset@TCSEVUI64Queue@@QAEXXZ 00408e50 f   TUIList.obj
 0001:00007ef0       ??0TZSuperShortString@@QAE@XZ 00408ef0 f   TZSSString.obj
 0001:00007f60       ??0TZSuperShortString@@QAE@PBD@Z 00408f60 f   TZSSString.obj
 0001:00008050       ??0TZSuperShortString@@QAE@PBDH@Z 00409050 f   TZSSString.obj
 0001:00008180       ??0TZSuperShortString@@QAE@ABV0@@Z 00409180 f   TZSSString.obj
 0001:00008230       ??0TZSuperShortString@@QAE@ABD_E@Z 00409230 f   TZSSString.obj
 0001:00008310       ??1TZSuperShortString@@QAE@XZ 00409310 f   TZSSString.obj
 0001:00008370       ?set_length@TZSuperShortString@@QAE_E_E@Z 00409370 f   TZSSString.obj
 0001:00008460       ?length@TZSuperShortString@@QBE_EXZ 00409460 f   TZSSString.obj
 0001:000084a0       ?findchar@TZSuperShortString@@QAE_ED@Z 004094a0 f   TZSSString.obj
 0001:00008530       ??ATZSuperShortString@@QAEAAD_E@Z 00409530 f   TZSSString.obj
 0001:000085b0       ??RTZSuperShortString@@QBE?AV0@_E0@Z 004095b0 f   TZSSString.obj
 0001:00008740       ??4TZSuperShortString@@QAEXABV0@@Z 00409740 f   TZSSString.obj
 0001:00008810       ??YTZSuperShortString@@QAEXABV0@@Z 00409810 f   TZSSString.obj
 0001:00008960       ?Convert866to1251@TZSuperShortString@@QAEXXZ 00409960 f   TZSSString.obj
 0001:00008af0       ?str1251toUpper@TZSuperShortString@@QAEXXZ 00409af0 f   TZSSString.obj
 0001:00008bc0       ?CutSpace@TZSuperShortString@@QAEXXZ 00409bc0 f   TZSSString.obj
 0001:00008c70       ?CutLeftSpace@TZSuperShortString@@QAEXXZ 00409c70 f   TZSSString.obj
 0001:00008d30       ?ToL@TZSuperShortString@@QAE_IXZ 00409d30 f   TZSSString.obj
 0001:00008d80       ??H@YA?AVTZSuperShortString@@ABV0@0@Z 00409d80 f   TZSSString.obj
 0001:00008e40       ??8@YAHABVTZSuperShortString@@0@Z 00409e40 f   TZSSString.obj
 0001:00008ee0       ??9@YAHABVTZSuperShortString@@0@Z 00409ee0 f   TZSSString.obj
 0001:00008f30       ??6@YAAAVTBinaryData@@AAV0@AAVTZSuperShortString@@@Z 00409f30 f   TZSSString.obj
 0001:00008fb0       ??5@YAAAVTBinaryData@@AAV0@AAVTZSuperShortString@@@Z 00409fb0 f   TZSSString.obj
 0001:00009030       ?__debug@TZSuperShortString@@QAEXAAVostream@@@Z 0040a030 f   TZSSString.obj
 0001:000090d0       ??6ostream@@QAEAAV0@P6AAAV0@AAV0@@Z@Z 0040a0d0 f i TZSSString.obj
 0001:00009130       ?endl@@YAAAVostream@@AAV1@@Z 0040a130 f i TZSSString.obj
 0001:00009180       ??6ostream@@QAEAAV0@D@Z    0040a180 f i TZSSString.obj
 0001:000091d0       ?flush@@YAAAVostream@@AAV1@@Z 0040a1d0 f i TZSSString.obj
 0001:00009250       ?id@?$ctype@G@std@@$D      0040a250 f i TZSSString.obj
 0001:000092f0       ?id@?$ctype@G@std@@$E      0040a2f0 f i TZSSString.obj
 0001:00009320       ??0CClientNamedPipe@@QAE@XZ 0040a320 f   ClientNamedPipe.obj
 0001:00009440       ??_GCClientNamedPipe@@UAEPAXI@Z 0040a440 f i ClientNamedPipe.obj
 0001:00009440       ??_ECClientNamedPipe@@UAEPAXI@Z 0040a440 f i ClientNamedPipe.obj
 0001:000094b0       ??1CClientNamedPipe@@UAE@XZ 0040a4b0 f   ClientNamedPipe.obj
 0001:00009580       ?Stop@CClientNamedPipe@@QAEXXZ 0040a580 f   ClientNamedPipe.obj
 0001:00009600       ?Execute@CClientNamedPipe@@MAEXXZ 0040a600 f   ClientNamedPipe.obj
 0001:00009c00       ?Init@CClientNamedPipe@@IAEXXZ 0040ac00 f   ClientNamedPipe.obj
 0001:00009d80       ?SendCommand@CClientNamedPipe@@QAEX_E@Z 0040ad80 f   ClientNamedPipe.obj
 0001:00009e60       ?SendMessageA@CClientNamedPipe@@QAEXPAV?$TFixedSizeBinaryData@$0BAAA@@@@Z 0040ae60 f   ClientNamedPipe.obj
 0001:00009f10       ?GetClientType@CClientNamedPipe@@MAE_IXZ 0040af10 f   ClientNamedPipe.obj
 0001:00009f40       ?ProcessException@CClientNamedPipe@@MAEXI@Z 0040af40 f   ClientNamedPipe.obj
 0001:00009f70       ?ProcessMessage@CClientNamedPipe@@MAEXAAV?$TFixedSizeBinaryData@$0BAAA@@@@Z 0040af70 f   ClientNamedPipe.obj
 0001:0000a210       ??0?$TFixedSizeBinaryData@$0BAAA@@@QAE@XZ 0040b210 f i ClientNamedPipe.obj
 0001:0000a270       ??1?$TFixedSizeBinaryData@$0BAAA@@@UAE@XZ 0040b270 f i ClientNamedPipe.obj
 0001:0000a2b0       ??B?$TFixedSizeBinaryData@$0BAAA@@@QAEPAXXZ 0040b2b0 f i ClientNamedPipe.obj
 0001:0000a2f0       ?Reset@?$TFixedSizeBinaryData@$0BAAA@@@QAEXXZ 0040b2f0 f i ClientNamedPipe.obj
 0001:0000a340       ?GetSize@?$TFixedSizeBinaryData@$0BAAA@@@QAEHXZ 0040b340 f i ClientNamedPipe.obj
 0001:0000a380       ?AdjustSize@?$TFixedSizeBinaryData@$0BAAA@@@QAEXK@Z 0040b380 f i ClientNamedPipe.obj
 0001:0000a3c0       ??6?$TFixedSizeBinaryData@$0BAAA@@@QAEAAV0@AB_E@Z 0040b3c0 f i ClientNamedPipe.obj
 0001:0000a420       ??6?$TFixedSizeBinaryData@$0BAAA@@@QAEAAV0@AB_I@Z 0040b420 f i ClientNamedPipe.obj
 0001:0000a480       ?IsEmpty@?$TCSPtrQueue@V?$TFixedSizeBinaryData@$0BAAA@@@@@QAE_NXZ 0040b480 f i ClientNamedPipe.obj
 0001:0000a510       ?Push@?$TCSPtrQueue@V?$TFixedSizeBinaryData@$0BAAA@@@@@QAEXPAV?$TFixedSizeBinaryData@$0BAAA@@@@Z 0040b510 f i ClientNamedPipe.obj
 0001:0000a5a0       ?Pop@?$TCSPtrQueue@V?$TFixedSizeBinaryData@$0BAAA@@@@@QAEPAV?$TFixedSizeBinaryData@$0BAAA@@@XZ 0040b5a0 f i ClientNamedPipe.obj
 0001:0000a650       ??0?$TCSPtrQueue@V?$TFixedSizeBinaryData@$0BAAA@@@@@QAE@XZ 0040b650 f i ClientNamedPipe.obj
 0001:0000a6c0       ??1?$TCSPtrQueue@V?$TFixedSizeBinaryData@$0BAAA@@@@@QAE@XZ 0040b6c0 f i ClientNamedPipe.obj
 0001:0000a770       ??_G?$TFixedSizeBinaryData@$0BAAA@@@UAEPAXI@Z 0040b770 f i ClientNamedPipe.obj
 0001:0000a770       ??_E?$TFixedSizeBinaryData@$0BAAA@@@UAEPAXI@Z 0040b770 f i ClientNamedPipe.obj
 0001:0000a7e0       ?__writefrom@?$TFixedSizeBinaryData@$0BAAA@@@AAEXPAXI@Z 0040b7e0 f i ClientNamedPipe.obj
 0001:0000a8b0       ?Reset@?$TCSPtrQueue@V?$TFixedSizeBinaryData@$0BAAA@@@@@QAEXXZ 0040b8b0 f i ClientNamedPipe.obj
 0001:0000a9b0       ??6@YAAAV?$TFixedSizeBinaryData@$0BAAA@@@AAV0@AAVTZSuperShortString@@@Z 0040b9b0 f i ClientNamedPipe.obj
 0001:0000aa30       ?WriteDataFrom@?$TFixedSizeBinaryData@$0BAAA@@@QAEXPAX_I@Z 0040ba30 f i ClientNamedPipe.obj
 0001:0000aa80       _InitMultipleMonitorStubs  0040ba80 f   nafxcwd:wincore.obj
 0001:0000abc9       _xGetSystemMetrics@4       0040bbc9 f   nafxcwd:wincore.obj
 0001:0000ac44       _xMonitorFromPoint@12      0040bc44 f   nafxcwd:wincore.obj
 0001:0000aca1       _xMonitorFromRect@8        0040bca1 f   nafxcwd:wincore.obj
 0001:0000ad05       _xMonitorFromWindow@8      0040bd05 f   nafxcwd:wincore.obj
 0001:0000ad84       _xGetMonitorInfo@8         0040bd84 f   nafxcwd:wincore.obj
 0001:0000ae5d       _xEnumDisplayMonitors@16   0040be5d f   nafxcwd:wincore.obj
 0001:0000af90       ?LookupPermanent@CHandleMap@@QAEPAVCObject@@PAX@Z 0040bf90 f i nafxcwd:wincore.obj
 0001:0000afb0       ?LookupTemporary@CHandleMap@@QAEPAVCObject@@PAX@Z 0040bfb0 f i nafxcwd:wincore.obj
 0001:0000afd0       ?GetNextWindow@@YAPAUHWND__@@PAU1@I@Z 0040bfd0 f i nafxcwd:wincore.obj
 0001:0000aff0       ?UnlockResource@@YGHPAX@Z  0040bff0 f i nafxcwd:wincore.obj
 0001:0000b000       ?A2T@@YAPADPAD@Z           0040c000 f i nafxcwd:wincore.obj
 0001:0000b010       ??_GCNoTrackObject@@UAEPAXI@Z 0040c010 f i nafxcwd:wincore.obj
 0001:0000b010       ??_ECNoTrackObject@@UAEPAXI@Z 0040c010 f i nafxcwd:wincore.obj
 0001:0000b040       ??1CNoTrackObject@@UAE@XZ  0040c040 f i nafxcwd:wincore.obj
 0001:0000b060       ?DrawState@@YGHPAUHDC__@@PAUHBRUSH__@@P6GH0JIHH@ZJIHHHHI@Z 0040c060 f i nafxcwd:afxinl2.obj
 0001:0000b0a0       ?IsEqualGUID@@YAHABU_GUID@@0@Z 0040c0a0 f i nafxcwd:cmdtarg.obj
 0001:0000b0c0       __tcscmp                   0040c0c0 f i nafxcwd:afxinl1.obj
 0001:0000b0e0       __tcsicmp                  0040c0e0 f i nafxcwd:afxinl1.obj
 0001:0000b100       __tcscoll                  0040c100 f i nafxcwd:afxinl1.obj
 0001:0000b120       __tcsicoll                 0040c120 f i nafxcwd:afxinl1.obj
 0001:0000b140       ?data@CStringData@@QAEPADXZ 0040c140 f i nafxcwd:strcore.obj
 0001:0000b160       __tcschr                   0040c160 f i nafxcwd:strcore.obj
 0001:0000b180       __tcspbrk                  0040c180 f i nafxcwd:strcore.obj
 0001:0000b1a0       __tcsupr                   0040c1a0 f i nafxcwd:strcore.obj
 0001:0000b1c0       __tcslwr                   0040c1c0 f i nafxcwd:strcore.obj
 0001:0000b1e0       __tcsrev                   0040c1e0 f i nafxcwd:strcore.obj
 0001:0000b200       ?T2CA@@YAPBDPBD@Z          0040c200 f i nafxcwd:appcore.obj
 0001:0000b210       ?GetSize@CRecentFileList@@QBEHXZ 0040c210 f i nafxcwd:appcore.obj
 0001:0000b230       ??ACRecentFileList@@QAEAAVCString@@H@Z 0040c230 f i nafxcwd:appcore.obj
 0001:0000b280       ?GetHead@CSimpleList@@QBEPAXXZ 0040c280 f i nafxcwd:thrdcore.obj
 0001:0000b290       ??_9@$BMM@AE               0040c290 f i nafxcwd:dlgcore.obj
 0001:0000b2a0       ??_9@$BNA@AE               0040c2a0 f i nafxcwd:dlgcore.obj
 0001:0000b2b0       ??0CSimpleList@@QAE@H@Z    0040c2b0 f i nafxcwd:afxstate.obj
 0001:0000b2e0       ?Construct@CSimpleList@@QAEXH@Z 0040c2e0 f i nafxcwd:afxstate.obj
 0001:0000b320       ??0CTypeLibCache@@QAE@XZ   0040c320 f i nafxcwd:afxstate.obj
 0001:0000b360       ??_GCHandleMap@@UAEPAXI@Z  0040c360 f i nafxcwd:winhand.obj
 0001:0000b360       ??_ECHandleMap@@UAEPAXI@Z  0040c360 f i nafxcwd:winhand.obj
 0001:0000b390       ??1CHandleMap@@UAE@XZ      0040c390 f i nafxcwd:winhand.obj
 0001:0000b400       ?GetNextPtr@CSimpleList@@QBEPAPAXPAX@Z 0040c400 f i nafxcwd:afxtls.obj
 0001:0000b440       ??2CThreadSlotData@@SGPAXIPAX@Z 0040c440 f i nafxcwd:afxtls.obj
 0001:0000b450       ??0AFX_CLASSINIT@@QAE@PAUCRuntimeClass@@@Z 0040c450 f i nafxcwd:array_b.obj
 0001:0000b470       __tcsrchr                  0040c470 f i nafxcwd:dlgfile.obj
 0001:0000b490       __tcsinc                   0040c490 f i nafxcwd:dlgfile.obj
 0001:0000b4b0       ?GetWindowTask@@YAPAUHTASK__@@PAUHWND__@@@Z 0040c4b0 f i nafxcwd:winfrmx.obj
 0001:0000b4d0       ??0CPushRoutingFrame@@QAE@PAVCFrameWnd@@@Z 0040c4d0 f i nafxcwd:winfrm.obj
 0001:0000b510       ??1CPushRoutingFrame@@QAE@XZ 0040c510 f i nafxcwd:winfrm.obj
 0001:0000b530       __tcsstr                   0040c530 f i nafxcwd:strex.obj
 0001:0000b550       __tcsspn                   0040c550 f i nafxcwd:strex.obj
 0001:0000b570       __tcscspn                  0040c570 f i nafxcwd:strex.obj
 0001:0000b590       __tcsncmp                  0040c590 f i nafxcwd:strex.obj
 0001:0000b5b0       __tclen                    0040c5b0 f i nafxcwd:strex.obj
 0001:0000b5d0       ??_9@$BOI@AE               0040c5d0 f i nafxcwd:viewcore.obj
 0001:0000b5e0       ??0CPushRoutingView@@QAE@PAVCView@@@Z 0040c5e0 f i nafxcwd:viewcore.obj
 0001:0000b620       ??1CPushRoutingView@@QAE@XZ 0040c620 f i nafxcwd:viewcore.obj
 0001:0000b640       ?AtlA2WHelper@@YGPAGPAGPBDH@Z 0040c640 f i nafxcwd:filecore.obj
 0001:0000b660       ?AtlA2WHelper@@YGPAGPAGPBDHI@Z 0040c660 f i nafxcwd:filecore.obj
 0001:0000b6f0       ?GetFileTitle@@YGFPBDPADG@Z 0040c6f0 f i nafxcwd:filecore.obj
 0001:0000b710       __tcsdec                   0040c710 f i nafxcwd:docmgr.obj
 0001:0000b730       ??8@YAHABU_GUID@@0@Z       0040c730 f i nafxcwd:arcstrm.obj
 0001:0000b750       ??1type_info@@UAE@XZ       0040c750 f   libcmtd:typinfo.obj
 0001:0000b790       ??_Gtype_info@@UAEPAXI@Z   0040c790 f i libcmtd:typinfo.obj
 0001:0000b790       ??_Etype_info@@UAEPAXI@Z   0040c790 f i libcmtd:typinfo.obj
 0001:0000b7c0       ??8type_info@@QBEHABV0@@Z  0040c7c0 f   libcmtd:typinfo.obj
 0001:0000b7f0       ??9type_info@@QBEHABV0@@Z  0040c7f0 f   libcmtd:typinfo.obj
 0001:0000b820       ?before@type_info@@QBEHABV1@@Z 0040c820 f   libcmtd:typinfo.obj
 0001:0000b850       ?raw_name@type_info@@QBEPBDXZ 0040c850 f   libcmtd:typinfo.obj
 0001:0000b870       ??0type_info@@AAE@ABV0@@Z  0040c870 f   libcmtd:typinfo.obj
 0001:0000b890       ??4type_info@@AAEAAV0@ABV0@@Z 0040c890 f   libcmtd:typinfo.obj
 0001:0000b8a0       __chkesp                   0040c8a0 f   libcmtd:chkesp.obj
 0001:0000b8e0       ?_JumpToContinuation@@YGXPAXPAUEHRegistrationNode@@@Z 0040c8e0 f   libcmtd:trnsctrl.obj
 0001:0000b920       ?_CallMemberFunction0@@YGXPAX0@Z 0040c920 f   libcmtd:trnsctrl.obj
 0001:0000b930       ?_CallMemberFunction1@@YGXPAX00@Z 0040c930 f   libcmtd:trnsctrl.obj
 0001:0000b940       ?_CallMemberFunction2@@YGXPAX00H@Z 0040c940 f   libcmtd:trnsctrl.obj
 0001:0000b950       ?_UnwindNestedFrames@@YGXPAUEHRegistrationNode@@PAUEHExceptionRecord@@@Z 0040c950 f   libcmtd:trnsctrl.obj
 0001:0000b9b0       ___CxxFrameHandler         0040c9b0 f   libcmtd:trnsctrl.obj
 0001:0000b9f0       ___CxxLongjmpUnwind@4      0040c9f0 f   libcmtd:trnsctrl.obj
 0001:0000ba20       ?_CallCatchBlock2@@YAPAXPAUEHRegistrationNode@@PBU_s_FuncInfo@@PAXHK@Z 0040ca20 f   libcmtd:trnsctrl.obj
 0001:0000bad0       ?_CallSETranslator@@YAHPAUEHExceptionRecord@@PAUEHRegistrationNode@@PAX2PBU_s_FuncInfo@@H1@Z 0040cad0 f   libcmtd:trnsctrl.obj
 0001:0000bc30       ?_GetRangeOfTrysToCheck@@YAPBU_s_TryBlockMapEntry@@PBU_s_FuncInfo@@HHPAI1@Z 0040cc30 f   libcmtd:trnsctrl.obj
 0001:0000bcc0       __global_unwind2           0040ccc0 f   libcmtd:exsup.obj
 0001:0000bd02       __local_unwind2            0040cd02 f   libcmtd:exsup.obj
 0001:0000bd5a       __NLG_Return2              0040cd5a f   libcmtd:exsup.obj
 0001:0000bd6a       __abnormal_termination     0040cd6a f   libcmtd:exsup.obj
 0001:0000bd8d       __NLG_Notify1              0040cd8d f   libcmtd:exsup.obj
 0001:0000bd96       __NLG_Notify               0040cd96 f   libcmtd:exsup.obj
 0001:0000bda9       __NLG_Dispatch             0040cda9 f   libcmtd:exsup.obj
 0001:0000bdb0       __fpmath                   0040cdb0 f   libcmtd:fpinit.obj
 0001:0000bde0       __fpclear                  0040cde0 f   libcmtd:fpinit.obj
 0001:0000bdf0       __cfltcvt_init             0040cdf0 f   libcmtd:fpinit.obj
 0001:0000be40       ___setfflag                0040ce40 f   libcmtd:fpinit.obj
 0001:0000be60       _sprintf                   0040ce60 f   libcmtd:sprintf.obj
 0001:0000bf5c       __ftol                     0040cf5c f   libcmtd:ftol.obj
 0001:0000bf90       __onexit                   0040cf90 f   libcmtd:onexit.obj
 0001:0000c050       _atexit                    0040d050 f   libcmtd:onexit.obj
 0001:0000c070       ___onexitinit              0040d070 f   libcmtd:onexit.obj
 0001:0000c0c0       _memcpy                    0040d0c0 f   libcmtd:memcpy.obj
 0001:0000c400       __CxxThrowException@8      0040d400 f   libcmtd:throw.obj
 0001:0000c450       __purecall                 0040d450 f   libcmtd:purevirt.obj
 0001:0000c460       _memset                    0040d460 f   libcmtd:memset.obj
 0001:0000c4c0       __allshl                   0040d4c0 f   libcmtd:llshl.obj
 0001:0000c4e0       __aullshr                  0040d4e0 f   libcmtd:ullshr.obj
 0001:0000c500       _strncpy                   0040d500 f   libcmtd:strncpy.obj
 0001:0000c600       _strlen                    0040d600 f   libcmtd:strlen.obj
 0001:0000c680       _strcpy                    0040d680 f   libcmtd:strcat.obj
 0001:0000c690       _strcat                    0040d690 f   libcmtd:strcat.obj
 0001:0000c770       _atol                      0040d770 f   libcmtd:atox.obj
 0001:0000c870       _atoi                      0040d870 f   libcmtd:atox.obj
 0001:0000c890       __atoi64                   0040d890 f   libcmtd:atox.obj
 0001:0000c9c0       __alloca_probe             0040d9c0 f   libcmtd:chkstk.obj
 0001:0000c9c0       __chkstk                   0040d9c0 f   libcmtd:chkstk.obj
 0001:0000c9f0       _WinMainCRTStartup         0040d9f0 f   libcmtd:wincrt0.obj
 0001:0000cb60       __amsg_exit                0040db60 f   libcmtd:wincrt0.obj
 0001:0000cbc0       _malloc                    0040dbc0 f   libcmtd:dbgheap.obj
 0001:0000cbe0       __malloc_dbg               0040dbe0 f   libcmtd:dbgheap.obj
 0001:0000cc10       __nh_malloc                0040dc10 f   libcmtd:dbgheap.obj
 0001:0000cc30       __nh_malloc_dbg            0040dc30 f   libcmtd:dbgheap.obj
 0001:0000cc90       __heap_alloc               0040dc90 f   libcmtd:dbgheap.obj
 0001:0000ccb0       __heap_alloc_dbg           0040dcb0 f   libcmtd:dbgheap.obj
 0001:0000cfd0       _calloc                    0040dfd0 f   libcmtd:dbgheap.obj
 0001:0000cff0       __calloc_dbg               0040dff0 f   libcmtd:dbgheap.obj
 0001:0000d050       _realloc                   0040e050 f   libcmtd:dbgheap.obj
 0001:0000d070       __realloc_dbg              0040e070 f   libcmtd:dbgheap.obj
 0001:0000d5d0       __expand                   0040e5d0 f   libcmtd:dbgheap.obj
 0001:0000d5f0       __expand_dbg               0040e5f0 f   libcmtd:dbgheap.obj
 0001:0000d630       _free                      0040e630 f   libcmtd:dbgheap.obj
 0001:0000d650       __free_lk                  0040e650 f   libcmtd:dbgheap.obj
 0001:0000d670       __free_dbg                 0040e670 f   libcmtd:dbgheap.obj
 0001:0000d6a0       __free_dbg_lk              0040e6a0 f   libcmtd:dbgheap.obj
 0001:0000da90       __msize                    0040ea90 f   libcmtd:dbgheap.obj
 0001:0000dab0       __msize_dbg                0040eab0 f   libcmtd:dbgheap.obj
 0001:0000dc10       __CrtSetBreakAlloc         0040ec10 f   libcmtd:dbgheap.obj
 0001:0000dc30       __CrtSetDbgBlockType       0040ec30 f   libcmtd:dbgheap.obj
 0001:0000dcd0       __CrtSetAllocHook          0040ecd0 f   libcmtd:dbgheap.obj
 0001:0000dd80       __CrtCheckMemory           0040ed80 f   libcmtd:dbgheap.obj
 0001:0000e0f0       __CrtSetDbgFlag            0040f0f0 f   libcmtd:dbgheap.obj
 0001:0000e120       __CrtDoForAllClientObjects 0040f120 f   libcmtd:dbgheap.obj
 0001:0000e190       __CrtIsValidPointer        0040f190 f   libcmtd:dbgheap.obj
 0001:0000e1e0       __CrtIsValidHeapPointer    0040f1e0 f   libcmtd:dbgheap.obj
 0001:0000e270       __CrtIsMemoryBlock         0040f270 f   libcmtd:dbgheap.obj
 0001:0000e360       __CrtSetDumpClient         0040f360 f   libcmtd:dbgheap.obj
 0001:0000e380       __CrtMemCheckpoint         0040f380 f   libcmtd:dbgheap.obj
 0001:0000e4f0       __CrtMemDifference         0040f4f0 f   libcmtd:dbgheap.obj
 0001:0000e620       __CrtMemDumpAllObjectsSince 0040f620 f   libcmtd:dbgheap.obj
 0001:0000ea00       __CrtDumpMemoryLeaks       0040fa00 f   libcmtd:dbgheap.obj
 0001:0000ea80       __CrtMemDumpStatistics     0040fa80 f   libcmtd:dbgheap.obj
 0001:0000eb50       _abs                       0040fb50 f   libcmtd:abs.obj
 0001:0000eb80       _memcmp                    0040fb80 f   libcmtd:memcmp.obj
 0001:0000ec30       __mbscmp                   0040fc30 f   libcmtd:mbscmp.obj
 0001:0000eda0       __mbsicmp                  0040fda0 f   libcmtd:mbsicmp.obj
 0001:0000f040       __mbscoll                  00410040 f   libcmtd:mbscoll.obj
 0001:0000f080       __mbsicoll                 00410080 f   libcmtd:mbsicoll.obj
 0001:0000f0c0       _wcslen                    004100c0 f   libcmtd:wcslen.obj
 0001:0000f0f0       __mbschr                   004100f0 f   libcmtd:mbschr.obj
 0001:0000f1e0       __mbspbrk                  004101e0 f   libcmtd:mbspbrk.obj
 0001:0000f320       __mbsupr                   00410320 f   libcmtd:mbsupr.obj
 0001:0000f420       __mbslwr                   00410420 f   libcmtd:mbslwr.obj
 0001:0000f520       __mbsrev                   00410520 f   libcmtd:mbsrev.obj
 0001:0000f610       __strdup                   00410610 f   libcmtd:strdup.obj
 0001:0000f660       __cinit                    00410660 f   libcmtd:crt0dat.obj
 0001:0000f6a0       _exit                      004106a0 f   libcmtd:crt0dat.obj
 0001:0000f6c0       __exit                     004106c0 f   libcmtd:crt0dat.obj
 0001:0000f6e0       __cexit                    004106e0 f   libcmtd:crt0dat.obj
 0001:0000f700       __c_exit                   00410700 f   libcmtd:crt0dat.obj
 0001:0000f810       __lockexit                 00410810 f   libcmtd:crt0dat.obj
 0001:0000f820       __unlockexit               00410820 f   libcmtd:crt0dat.obj
 0001:0000f860       __beginthreadex            00410860 f   libcmtd:threadex.obj
 0001:0000f9f0       __endthreadex              004109f0 f   libcmtd:threadex.obj
 0001:0000fa40       __CrtDbgBreak              00410a40 f   libcmtd:dbgrpt.obj
 0001:0000fa50       __CrtSetReportMode         00410a50 f   libcmtd:dbgrpt.obj
 0001:0000fab0       __CrtSetReportFile         00410ab0 f   libcmtd:dbgrpt.obj
 0001:0000fb30       __CrtSetReportHook         00410b30 f   libcmtd:dbgrpt.obj
 0001:0000fb50       __CrtDbgReport             00410b50 f   libcmtd:dbgrpt.obj
 0001:000101f0       __vsnprintf                004111f0 f   libcmtd:vsnprint.obj
 0001:000102ec       __except_handler3          004112ec f   libcmtd:exsup3.obj
 0001:000103a9       __seh_longjmp_unwind@4     004113a9 f   libcmtd:exsup3.obj
 0001:000103d0       _memmove                   004113d0 f   libcmtd:memmove.obj
 0001:00010710       __dosmaperr                00411710 f   libcmtd:dosmap.obj
 0001:000107b0       __errno                    004117b0 f   libcmtd:dosmap.obj
 0001:000107c0       ___doserrno                004117c0 f   libcmtd:dosmap.obj
 0001:000107d0       _mktime                    004117d0 f   libcmtd:mktime.obj
 0001:000107f0       __mkgmtime                 004117f0 f   libcmtd:mktime.obj
 0001:00010b20       _time                      00411b20 f   libcmtd:time.obj
 0001:00010cb0       _gmtime                    00411cb0 f   libcmtd:gmtime.obj
 0001:00010eb0       _localtime                 00411eb0 f   libcmtd:localtim.obj
 0001:00011110       _ctime                     00412110 f   libcmtd:ctime.obj
 0001:00011140       __setmbcp                  00412140 f   libcmtd:mbctype.obj
 0001:00011900       __getmbcp                  00412900 f   libcmtd:mbctype.obj
 0001:00011920       ___initmbctable            00412920 f   libcmtd:mbctype.obj
 0001:00011950       __Getdays                  00412950 f   libcmtd:strftime.obj
 0001:00011a80       __Getmonths                00412a80 f   libcmtd:strftime.obj
 0001:00011bb0       __Gettnames                00412bb0 f   libcmtd:strftime.obj
 0001:00011f20       _strftime                  00412f20 f   libcmtd:strftime.obj
 0001:00011f40       __Strftime                 00412f40 f   libcmtd:strftime.obj
 0001:00012dc0       __mbsrchr                  00413dc0 f   libcmtd:mbsrchr.obj
 0001:00012e90       __mbsinc                   00413e90 f   libcmtd:mbsinc.obj
 0001:00012ec0       ??_L@YGXPAXIHP6EX0@Z1@Z    00413ec0 f   libcmtd:ehvecctr.obj
 0001:00012f60       ??_M@YGXPAXIHP6EX0@Z@Z     00413f60 f   libcmtd:ehvecdtr.obj
 0001:00013010       ?__ArrayUnwind@@YGXPAXIHP6EX0@Z@Z 00414010 f   libcmtd:ehvecdtr.obj
 0001:000130c0       __mbsstr                   004140c0 f   libcmtd:mbsstr.obj
 0001:000131a0       __mbsspn                   004141a0 f   libcmtd:mbsspn.obj
 0001:000132d0       __mbscspn                  004142d0 f   libcmtd:mbscspn.obj
 0001:00013400       _vsprintf                  00414400 f   libcmtd:vsprintf.obj
 0001:00013500       __ismbcdigit               00414500 f   libcmtd:ismbdgt.obj
 0001:000135e0       __mbsnbcmp                 004145e0 f   libcmtd:mbsnbcmp.obj
 0001:000137d0       __mbclen                   004147d0 f   libcmtd:mbclen.obj
 0001:00013800       __ismbcspace               00414800 f   libcmtd:ismbspc.obj
 0001:000138e0       _strtol                    004148e0 f   libcmtd:strtol.obj
 0001:00013c40       _strtoul                   00414c40 f   libcmtd:strtol.obj
 0001:00013c60       __mbsdec                   00414c60 f   libcmtd:mbsdec.obj
 0001:00013d10       __mtinitlocks              00414d10 f   libcmtd:mlock.obj
 0001:00013d50       __mtdeletelocks            00414d50 f   libcmtd:mlock.obj
 0001:00013df0       __lock                     00414df0 f   libcmtd:mlock.obj
 0001:00013e90       __unlock                   00414e90 f   libcmtd:mlock.obj
 0001:00013eb0       __lockerr_exit             00414eb0 f   libcmtd:mlock.obj
 0001:00013ed0       __free_base                00414ed0 f   libcmtd:free.obj
 0001:00013f40       _strcmp                    00414f40 f   libcmtd:strcmp.obj
 0001:00013fd0       ___InternalCxxFrameHandler 00414fd0 f   libcmtd:frame.obj
 0001:00014540       ___FrameUnwindToState      00415540 f   libcmtd:frame.obj
 0001:00014b50       ?_DestructExceptionObject@@YAXPAUEHExceptionRecord@@E@Z 00415b50 f   libcmtd:frame.obj
 0001:00014c30       __CallSettingFrame@12      00415c30 f   libcmtd:lowhelpr.obj
 0001:00014c57       __NLG_Return               00415c57 f   libcmtd:lowhelpr.obj
 0001:00014c80       __mtinit                   00415c80 f   libcmtd:tidtable.obj
 0001:00014d10       __mtterm                   00415d10 f   libcmtd:tidtable.obj
 0001:00014d40       __initptd                  00415d40 f   libcmtd:tidtable.obj
 0001:00014d60       __getptd                   00415d60 f   libcmtd:tidtable.obj
 0001:00014e00       __freeptd                  00415e00 f   libcmtd:tidtable.obj
 0001:00014f10       ___threadid                00415f10 f   libcmtd:tidtable.obj
 0001:00014f20       ___threadhandle            00415f20 f   libcmtd:tidtable.obj
 0001:00014f30       ?terminate@@YAXXZ          00415f30 f   libcmtd:hooks.obj
 0001:00014fc0       ?unexpected@@YAXXZ         00415fc0 f   libcmtd:hooks.obj
 0001:00014fe0       ?_inconsistency@@YAXXZ     00415fe0 f   libcmtd:hooks.obj
 0001:00015070       __setdefaultprecision      00416070 f   libcmtd:fp8.obj
 0001:00015090       __ms_p5_test_fdiv          00416090 f   libcmtd:testfdiv.obj
 0001:000150f0       __ms_p5_mp_test_fdiv       004160f0 f   libcmtd:testfdiv.obj
 0001:00015140       __forcdecpt                00416140 f   libcmtd:cvt.obj
 0001:000151f0       __cropzeros                004161f0 f   libcmtd:cvt.obj
 0001:000152d0       __positive                 004162d0 f   libcmtd:cvt.obj
 0001:00015300       __fassign                  00416300 f   libcmtd:cvt.obj
 0001:00015350       __cftoe                    00416350 f   libcmtd:cvt.obj
 0001:00015540       __cftof                    00416540 f   libcmtd:cvt.obj
 0001:000156f0       __cftog                    004166f0 f   libcmtd:cvt.obj
 0001:000157e0       __cfltcvt                  004167e0 f   libcmtd:cvt.obj
 0001:00015870       __flsbuf                   00416870 f   libcmtd:_flsbuf.obj
 0001:00015af0       __output                   00416af0 f   libcmtd:output.obj
 0001:00016990       ?__CxxUnhandledExceptionFilter@@YGJPAU_EXCEPTION_POINTERS@@@Z 00417990 f   libcmtd:unhandld.obj
 0001:000169f0       ?__CxxSetUnhandledExceptionFilter@@YAXXZ 004179f0 f   libcmtd:unhandld.obj
 0001:00016a10       ?__CxxRestoreUnhandledExceptionFilter@@YAXXZ 00417a10 f   libcmtd:unhandld.obj
 0001:00016a30       __isctype                  00417a30 f   libcmtd:isctype.obj
 0001:00016af0       __allmul                   00417af0 f   libcmtd:llmul.obj
 0001:00016b30       __XcptFilter               00417b30 f   libcmtd:winxfltr.obj
 0001:00016d50       __wincmdln                 00417d50 f   libcmtd:wincmdln.obj
 0001:00016e10       __setenvp                  00417e10 f   libcmtd:stdenvp.obj
 0001:00016f60       __setargv                  00417f60 f   libcmtd:stdargv.obj
 0001:00017470       ___crtGetEnvironmentStringsA 00418470 f   libcmtd:a_env.obj
 0001:00017690       __ioinit                   00418690 f   libcmtd:ioinit.obj
 0001:000179c0       __ioterm                   004189c0 f   libcmtd:ioinit.obj
 0001:00017a60       __heap_init                00418a60 f   libcmtd:heapinit.obj
 0001:00017ab0       __heap_term                00418ab0 f   libcmtd:heapinit.obj
 0001:00017b50       __FF_MSGBANNER             00418b50 f   libcmtd:crt0msg.obj
 0001:00017ba0       __NMSG_WRITE               00418ba0 f   libcmtd:crt0msg.obj
 0001:00017d60       __GET_RTERRMSG             00418d60 f   libcmtd:crt0msg.obj
 0001:00017db0       ?_set_new_handler@@YAP6AHI@ZP6AHI@Z@Z 00418db0 f   libcmtd:handler.obj
 0001:00017de0       ?_query_new_handler@@YAP6AHI@ZXZ 00418de0 f   libcmtd:handler.obj
 0001:00017df0       __callnewh                 00418df0 f   libcmtd:handler.obj
 0001:00017e20       __malloc_base              00418e20 f   libcmtd:malloc.obj
 0001:00017e40       __nh_malloc_base           00418e40 f   libcmtd:malloc.obj
 0001:00017ea0       __heap_alloc_base          00418ea0 f   libcmtd:malloc.obj
 0001:00017f10       __CrtDefaultAllocHook      00418f10 f   libcmtd:dbghook.obj
 0001:00017f20       __expand_base              00418f20 f   libcmtd:expand.obj
 0001:00017fd0       __realloc_base             00418fd0 f   libcmtd:realloc.obj
 0001:000181c0       __heapchk                  004191c0 f   libcmtd:heapchk.obj
 0001:00018240       __heapset                  00419240 f   libcmtd:heapchk.obj
 0001:00018250       __get_sbh_threshold        00419250 f   libcmtd:sbheap.obj
 0001:00018260       __set_sbh_threshold        00419260 f   libcmtd:sbheap.obj
 0001:00018280       ___sbh_heap_init           00419280 f   libcmtd:sbheap.obj
 0001:000182e0       ___sbh_find_block          004192e0 f   libcmtd:sbheap.obj
 0001:00018340       ___sbh_verify_block        00419340 f   libcmtd:sbheap.obj
 0001:000183a0       ___sbh_free_block          004193a0 f   libcmtd:sbheap.obj
 0001:00018970       ___sbh_alloc_block         00419970 f   libcmtd:sbheap.obj
 0001:00018eb0       ___sbh_alloc_new_region    00419eb0 f   libcmtd:sbheap.obj
 0001:00018fc0       ___sbh_alloc_new_group     00419fc0 f   libcmtd:sbheap.obj
 0001:000191b0       ___sbh_resize_block        0041a1b0 f   libcmtd:sbheap.obj
 0001:000197a0       ___sbh_heapmin             0041a7a0 f   libcmtd:sbheap.obj
 0001:000198d0       ___sbh_heap_check          0041a8d0 f   libcmtd:sbheap.obj
 0001:00019ef0       ___crtLCMapStringA         0041aef0 f   libcmtd:a_map.obj
 0001:0001a250       __strcmpi                  0041b250 f   libcmtd:stricmp.obj
 0001:0001a250       __stricmp                  0041b250 f   libcmtd:stricmp.obj
 0001:0001a320       ___crtCompareStringA       0041b320 f   libcmtd:a_cmp.obj
 0001:0001a780       _strchr                    0041b780 f   libcmtd:strchr.obj
 0001:0001a786       ___from_strstr_to_strchr   0041b786 f   libcmtd:strchr.obj
 0001:0001a840       _strpbrk                   0041b840 f   libcmtd:strpbrk.obj
 0001:0001a880       __strrev                   0041b880 f   libcmtd:strrev.obj
 0001:0001a8b0       __itoa                     0041b8b0 f   libcmtd:xtoa.obj
 0001:0001a9d0       __ltoa                     0041b9d0 f   libcmtd:xtoa.obj
 0001:0001aa10       __ultoa                    0041ba10 f   libcmtd:xtoa.obj
 0001:0001aa30       __i64toa                   0041ba30 f   libcmtd:xtoa.obj
 0001:0001ab80       __ui64toa                  0041bb80 f   libcmtd:xtoa.obj
 0001:0001aba0       __snprintf                 0041bba0 f   libcmtd:snprintf.obj
 0001:0001aca0       _signal                    0041bca0 f   libcmtd:winsig.obj
 0001:0001af70       _raise                     0041bf70 f   libcmtd:winsig.obj
 0001:0001b210       ___fpecode                 0041c210 f   libcmtd:winsig.obj
 0001:0001b220       ___pxcptinfoptrs           0041c220 f   libcmtd:winsig.obj
 0001:0001b230       ___crtMessageBoxA          0041c230 f   libcmtd:crtmbox.obj
 0001:0001b2f0       ___tzset                   0041c2f0 f   libcmtd:tzset.obj
 0001:0001b330       __tzset                    0041c330 f   libcmtd:tzset.obj
 0001:0001b700       __isindst                  0041c700 f   libcmtd:tzset.obj
 0001:0001bc30       ___loctotime_t             0041cc30 f   libcmtd:dtoxtime.obj
 0001:0001bd20       _asctime                   0041cd20 f   libcmtd:asctime.obj
 0001:0001bf20       ___crtGetStringTypeA       0041cf20 f   libcmtd:a_str.obj
 0001:0001c0e0       _setlocale                 0041d0e0 f   libcmtd:setlocal.obj
 0001:0001c770       __expandlocale             0041d770 f   libcmtd:setlocal.obj
 0001:0001c900       ___init_dummy              0041d900 f   libcmtd:setlocal.obj
 0001:0001c910       __strcats                  0041d910 f   libcmtd:setlocal.obj
 0001:0001c960       ___lc_strtolc              0041d960 f   libcmtd:setlocal.obj
 0001:0001cac0       ___lc_lctostr              0041dac0 f   libcmtd:setlocal.obj
 0001:0001cb30       _strrchr                   0041db30 f   libcmtd:strrchr.obj
 0001:0001cb60       _strstr                    0041db60 f   libcmtd:strstr.obj
 0001:0001cbe0       _strspn                    0041dbe0 f   libcmtd:strspn.obj
 0001:0001cc20       _strcspn                   0041dc20 f   libcmtd:strcspn.obj
 0001:0001cc60       _strncmp                   0041dc60 f   libcmtd:strncmp.obj
 0001:0001cca0       __toupper                  0041dca0 f   libcmtd:toupper.obj
 0001:0001ccb0       _toupper                   0041dcb0 f   libcmtd:toupper.obj
 0001:0001cd50       __toupper_lk               0041dd50 f   libcmtd:toupper.obj
 0001:0001ce80       ?_ValidateRead@@YAHPBXI@Z  0041de80 f   libcmtd:validate.obj
 0001:0001ceb0       ?_ValidateWrite@@YAHPAXI@Z 0041deb0 f   libcmtd:validate.obj
 0001:0001cee0       ?_ValidateExecute@@YAHP6GHXZ@Z 0041dee0 f   libcmtd:validate.obj
 0001:0001cf10       _abort                     0041df10 f   libcmtd:abort.obj
 0001:0001cf30       __statusfp                 0041df30 f   libcmtd:ieee87.obj
 0001:0001cf50       __clearfp                  0041df50 f   libcmtd:ieee87.obj
 0001:0001cf70       __control87                0041df70 f   libcmtd:ieee87.obj
 0001:0001cfc0       __controlfp                0041dfc0 f   libcmtd:ieee87.obj
 0001:0001cfe0       __fpreset                  0041dfe0 f   libcmtd:ieee87.obj
 0001:0001d3d0       __tolower                  0041e3d0 f   libcmtd:tolower.obj
 0001:0001d3e0       _tolower                   0041e3e0 f   libcmtd:tolower.obj
 0001:0001d480       __tolower_lk               0041e480 f   libcmtd:tolower.obj
 0001:0001d5b0       __ZeroTail                 0041e5b0 f   libcmtd:intrncvt.obj
 0001:0001d640       __IncMan                   0041e640 f   libcmtd:intrncvt.obj
 0001:0001d6f0       __RoundMan                 0041e6f0 f   libcmtd:intrncvt.obj
 0001:0001d7d0       __CopyMan                  0041e7d0 f   libcmtd:intrncvt.obj
 0001:0001d820       __FillZeroMan              0041e820 f   libcmtd:intrncvt.obj
 0001:0001d850       __IsZeroMan                0041e850 f   libcmtd:intrncvt.obj
 0001:0001d890       __ShrMan                   0041e890 f   libcmtd:intrncvt.obj
 0001:0001d980       __ld12cvt                  0041e980 f   libcmtd:intrncvt.obj
 0001:0001dbd0       __ld12tod                  0041ebd0 f   libcmtd:intrncvt.obj
 0001:0001dbf0       __ld12tof                  0041ebf0 f   libcmtd:intrncvt.obj
 0001:0001dc10       __ld12told                 0041ec10 f   libcmtd:intrncvt.obj
 0001:0001dcd0       __atodbl                   0041ecd0 f   libcmtd:intrncvt.obj
 0001:0001dd10       __atoldbl                  0041ed10 f   libcmtd:intrncvt.obj
 0001:0001dd50       __atoflt                   0041ed50 f   libcmtd:intrncvt.obj
 0001:0001dd90       __fptostr                  0041ed90 f   libcmtd:_fptostr.obj
 0001:0001de90       __fltout2                  0041ee90 f   libcmtd:cfout.obj
 0001:0001df10       ___dtold                   0041ef10 f   libcmtd:cfout.obj
 0001:0001e080       __fptrap                   0041f080 f   libcmtd:crt0fp.obj
 0001:0001e090       __lseek                    0041f090 f   libcmtd:lseek.obj
 0001:0001e120       __lseek_lk                 0041f120 f   libcmtd:lseek.obj
 0001:0001e1e0       __write                    0041f1e0 f   libcmtd:write.obj
 0001:0001e270       __write_lk                 0041f270 f   libcmtd:write.obj
 0001:0001e4f0       __getbuf                   0041f4f0 f   libcmtd:_getbuf.obj
 0001:0001e5c0       __isatty                   0041f5c0 f   libcmtd:isatty.obj
 0001:0001e600       ___initstdio               0041f600 f   libcmtd:_file.obj
 0001:0001e730       ___endstdio                0041f730 f   libcmtd:_file.obj
 0001:0001e750       __lock_file                0041f750 f   libcmtd:_file.obj
 0001:0001e790       __lock_file2               0041f790 f   libcmtd:_file.obj
 0001:0001e7c0       __unlock_file              0041f7c0 f   libcmtd:_file.obj
 0001:0001e800       __unlock_file2             0041f800 f   libcmtd:_file.obj
 0001:0001e830       _wctomb                    0041f830 f   libcmtd:wctomb.obj
 0001:0001e8b0       __wctomb_lk                0041f8b0 f   libcmtd:wctomb.obj
 0001:0001e950       __aulldiv                  0041f950 f   libcmtd:ulldiv.obj
 0001:0001e9c0       __aullrem                  0041f9c0 f   libcmtd:ullrem.obj
 0001:0001ea40       __ismbbkalnum              0041fa40 f   libcmtd:ismbbyte.obj
 0001:0001ea60       __ismbbkprint              0041fa60 f   libcmtd:ismbbyte.obj
 0001:0001ea80       __ismbbkpunct              0041fa80 f   libcmtd:ismbbyte.obj
 0001:0001eaa0       __ismbbalnum               0041faa0 f   libcmtd:ismbbyte.obj
 0001:0001eac0       __ismbbalpha               0041fac0 f   libcmtd:ismbbyte.obj
 0001:0001eae0       __ismbbgraph               0041fae0 f   libcmtd:ismbbyte.obj
 0001:0001eb00       __ismbbprint               0041fb00 f   libcmtd:ismbbyte.obj
 0001:0001eb20       __ismbbpunct               0041fb20 f   libcmtd:ismbbyte.obj
 0001:0001eb40       __ismbblead                0041fb40 f   libcmtd:ismbbyte.obj
 0001:0001eb60       __ismbbtrail               0041fb60 f   libcmtd:ismbbyte.obj
 0001:0001eb80       __ismbbkana                0041fb80 f   libcmtd:ismbbyte.obj
 0001:0001ec30       _getenv                    0041fc30 f   libcmtd:getenv.obj
 0001:0001ec60       __getenv_lk                0041fc60 f   libcmtd:getenv.obj
 0001:0001ed30       ___init_time               0041fd30 f   libcmtd:inittime.obj
 0001:0001f6b0       ___init_numeric            004206b0 f   libcmtd:initnum.obj
 0001:0001f9e0       ___init_monetary           004209e0 f   libcmtd:initmon.obj
 0001:0001fe40       ___init_ctype              00420e40 f   libcmtd:initctyp.obj
 0001:000201e0       ___init_collate            004211e0 f   libcmtd:initcoll.obj
 0001:000201f0       ___get_qualified_locale    004211f0 f   libcmtd:getqloc.obj
 0001:00020f90       ___addl                    00421f90 f   libcmtd:mantold.obj
 0001:00020fd0       ___add_12                  00421fd0 f   libcmtd:mantold.obj
 0001:00021080       ___shl_12                  00422080 f   libcmtd:mantold.obj
 0001:000210e0       ___shr_12                  004220e0 f   libcmtd:mantold.obj
 0001:00021150       ___mtold12                 00422150 f   libcmtd:mantold.obj
 0001:00021290       ___strgtold12              00422290 f   libcmtd:strgtold.obj
 0001:00021dc0       ___STRINGTOLD              00422dc0 f   libcmtd:strgtold.obj
 0001:00021e10       _$I10_OUTPUT               00422e10 f   libcmtd:x10fout.obj
 0001:00022330       __alloc_osfhnd             00423330 f   libcmtd:osfinfo.obj
 0001:00022520       __set_osfhnd               00423520 f   libcmtd:osfinfo.obj
 0001:000225e0       __free_osfhnd              004235e0 f   libcmtd:osfinfo.obj
 0001:000226c0       __get_osfhandle            004236c0 f   libcmtd:osfinfo.obj
 0001:00022730       __open_osfhandle           00423730 f   libcmtd:osfinfo.obj
 0001:00022840       __lock_fhandle             00423840 f   libcmtd:osfinfo.obj
 0001:000228d0       __unlock_fhandle           004238d0 f   libcmtd:osfinfo.obj
 0001:00022900       __fcloseall                00423900 f   libcmtd:closeall.obj
 0001:000229e0       _fflush                    004239e0 f   libcmtd:fflush.obj
 0001:00022a30       __fflush_lk                00423a30 f   libcmtd:fflush.obj
 0001:00022a80       __flush                    00423a80 f   libcmtd:fflush.obj
 0001:00022b40       __flushall                 00423b40 f   libcmtd:fflush.obj
 0001:00022c90       __mbsnbicoll               00423c90 f   libcmtd:mbsnbico.obj
 0001:00022ce0       ___wtomb_environ           00423ce0 f   libcmtd:wtombenv.obj
 0001:00022d90       ___getlocaleinfo           00423d90 f   libcmtd:inithelp.obj
 0001:00023020       _localeconv                00424020 f   libcmtd:lconv.obj
 0001:00023030       ___crtGetStringTypeW       00424030 f   libcmtd:w_str.obj
 0001:000232a0       __strnicmp                 004242a0 f   libcmtd:strnicmp.obj
 0001:000233b0       ___ld12mul                 004243b0 f   libcmtd:tenpow.obj
 0001:000237f0       ___multtenpow12            004247f0 f   libcmtd:tenpow.obj
 0001:000238c0       _fclose                    004248c0 f   libcmtd:fclose.obj
 0001:00023950       __fclose_lk                00424950 f   libcmtd:fclose.obj
 0001:00023a10       __commit                   00424a10 f   libcmtd:commit.obj
 0001:00023af0       ___crtsetenv               00424af0 f   libcmtd:setenv.obj
 0001:00023f40       ___crtGetLocaleInfoW       00424f40 f   libcmtd:w_loc.obj
 0001:000240e0       ___crtGetLocaleInfoA       004250e0 f   libcmtd:a_loc.obj
 0001:00024290       __close                    00425290 f   libcmtd:close.obj
 0001:00024310       __close_lk                 00425310 f   libcmtd:close.obj
 0001:000243c0       __freebuf                  004253c0 f   libcmtd:_freebuf.obj
 0001:00024452       _CloseHandle@4             00425452 f   kernel32:KERNEL32.dll
 0001:00024458       _FreeLibrary@4             00425458 f   kernel32:KERNEL32.dll
 0001:0002445e       _Sleep@4                   0042545e f   kernel32:KERNEL32.dll
 0001:00024464       _WriteFile@20              00425464 f   kernel32:KERNEL32.dll
 0001:0002446a       _CreateFileA@28            0042546a f   kernel32:KERNEL32.dll
 0001:00024470       _ReadFile@20               00425470 f   kernel32:KERNEL32.dll
 0001:00024476       _CreateMailslotA@16        00425476 f   kernel32:KERNEL32.dll
 0001:0002447c       _GetProcAddress@8          0042547c f   kernel32:KERNEL32.dll
 0001:00024482       _LoadLibraryA@4            00425482 f   kernel32:KERNEL32.dll
 0001:00024488       _DeviceIoControl@32        00425488 f   kernel32:KERNEL32.dll
 0001:0002448e       _DefineDosDeviceA@12       0042548e f   kernel32:KERNEL32.dll
 0001:00024494       _GetCurrentThreadId@0      00425494 f   kernel32:KERNEL32.dll
 0001:0002449a       _CreateThread@24           0042549a f   kernel32:KERNEL32.dll
 0001:000244a0       _CreateEventA@16           004254a0 f   kernel32:KERNEL32.dll
 0001:000244a6       _SetEvent@4                004254a6 f   kernel32:KERNEL32.dll
 0001:000244ac       _WaitForSingleObject@8     004254ac f   kernel32:KERNEL32.dll
 0001:000244b2       _TerminateThread@8         004254b2 f   kernel32:KERNEL32.dll
 0001:000244b8       _SetThreadPriority@8       004254b8 f   kernel32:KERNEL32.dll
 0001:000244be       _ResumeThread@4            004254be f   kernel32:KERNEL32.dll
 0001:000244c4       _SuspendThread@4           004254c4 f   kernel32:KERNEL32.dll
 0001:000244ca       _InitializeCriticalSection@4 004254ca f   kernel32:KERNEL32.dll
 0001:000244d0       _DeleteCriticalSection@4   004254d0 f   kernel32:KERNEL32.dll
 0001:000244d6       _LeaveCriticalSection@4    004254d6 f   kernel32:KERNEL32.dll
 0001:000244dc       _EnterCriticalSection@4    004254dc f   kernel32:KERNEL32.dll
 0001:000244e2       _ResetEvent@4              004254e2 f   kernel32:KERNEL32.dll
 0001:000244e8       _Beep@8                    004254e8 f   kernel32:KERNEL32.dll
 0001:000244ee       _DisconnectNamedPipe@4     004254ee f   kernel32:KERNEL32.dll
 0001:000244f4       _FlushFileBuffers@4        004254f4 f   kernel32:KERNEL32.dll
 0001:000244fa       _GetLastError@0            004254fa f   kernel32:KERNEL32.dll
 0001:00024500       _PeekNamedPipe@24          00425500 f   kernel32:KERNEL32.dll
 0001:00024506       _SetLastError@4            00425506 f   kernel32:KERNEL32.dll
 0001:0002450c       _SetNamedPipeHandleState@16 0042550c f   kernel32:KERNEL32.dll
 0001:00024512       _WaitNamedPipeA@8          00425512 f   kernel32:KERNEL32.dll
 0001:00024518       _GetComputerNameA@8        00425518 f   kernel32:KERNEL32.dll
 0001:0002451e       _GetModuleHandleA@4        0042551e f   kernel32:KERNEL32.dll
 0001:00024524       _lstrcpyA@8                00425524 f   kernel32:KERNEL32.dll
 0001:0002452a       _GlobalDeleteAtom@4        0042552a f   kernel32:KERNEL32.dll
 0001:00024530       _GlobalFindAtomA@4         00425530 f   kernel32:KERNEL32.dll
 0001:00024536       _GlobalAddAtomA@4          00425536 f   kernel32:KERNEL32.dll
 0001:0002453c       _lstrcmpiA@8               0042553c f   kernel32:KERNEL32.dll
 0001:00024542       _GlobalGetAtomNameA@12     00425542 f   kernel32:KERNEL32.dll
 0001:00024548       _lstrcatA@8                00425548 f   kernel32:KERNEL32.dll
 0001:0002454e       _lstrlenA@4                0042554e f   kernel32:KERNEL32.dll
 0001:00024554       _GetVersion@0              00425554 f   kernel32:KERNEL32.dll
 0001:0002455a       _FreeResource@4            0042555a f   kernel32:KERNEL32.dll
 0001:00024560       _LockResource@4            00425560 f   kernel32:KERNEL32.dll
 0001:00024566       _LoadResource@8            00425566 f   kernel32:KERNEL32.dll
 0001:0002456c       _FindResourceA@12          0042556c f   kernel32:KERNEL32.dll
 0001:00024572       _MulDiv@12                 00425572 f   kernel32:KERNEL32.dll
 0001:00024578       _GlobalUnlock@4            00425578 f   kernel32:KERNEL32.dll
 0001:0002457e       _GlobalLock@4              0042557e f   kernel32:KERNEL32.dll
 0001:00024584       _GetThreadPriority@4       00425584 f   kernel32:KERNEL32.dll
 0001:0002458a       _InterlockedIncrement@4    0042558a f   kernel32:KERNEL32.dll
 0001:00024590       _InterlockedDecrement@4    00425590 f   kernel32:KERNEL32.dll
 0001:00024596       _WideCharToMultiByte@32    00425596 f   kernel32:KERNEL32.dll
 0001:0002459c       _MultiByteToWideChar@24    0042559c f   kernel32:KERNEL32.dll
 0001:000245a2       _lstrcpynA@12              004255a2 f   kernel32:KERNEL32.dll
 0001:000245a8       _GetCurrentThread@0        004255a8 f   kernel32:KERNEL32.dll
 0001:000245ae       _lstrcmpA@8                004255ae f   kernel32:KERNEL32.dll
 0001:000245b4       _GlobalAlloc@8             004255b4 f   kernel32:KERNEL32.dll
 0001:000245ba       _GetModuleFileNameA@12     004255ba f   kernel32:KERNEL32.dll
 0001:000245c0       _GlobalFree@4              004255c0 f   kernel32:KERNEL32.dll
 0001:000245c6       _GetPrivateProfileIntA@16  004255c6 f   kernel32:KERNEL32.dll
 0001:000245cc       _GlobalFlags@4             004255cc f   kernel32:KERNEL32.dll
 0001:000245d2       _GetProcessVersion@4       004255d2 f   kernel32:KERNEL32.dll
 0001:000245d8       _GetCPInfo@8               004255d8 f   kernel32:KERNEL32.dll
 0001:000245de       _GetOEMCP@0                004255de f   kernel32:KERNEL32.dll
 0001:000245e4       _LocalFree@4               004255e4 f   kernel32:KERNEL32.dll
 0001:000245ea       _LocalAlloc@8              004255ea f   kernel32:KERNEL32.dll
 0001:000245f0       _TlsAlloc@0                004255f0 f   kernel32:KERNEL32.dll
 0001:000245f6       _GlobalHandle@4            004255f6 f   kernel32:KERNEL32.dll
 0001:000245fc       _TlsFree@4                 004255fc f   kernel32:KERNEL32.dll
 0001:00024602       _GlobalReAlloc@12          00425602 f   kernel32:KERNEL32.dll
 0001:00024608       _TlsSetValue@8             00425608 f   kernel32:KERNEL32.dll
 0001:0002460e       _LocalReAlloc@12           0042560e f   kernel32:KERNEL32.dll
 0001:00024614       _TlsGetValue@4             00425614 f   kernel32:KERNEL32.dll
 0001:0002461a       _IsBadStringPtrW@8         0042561a f   kernel32:KERNEL32.dll
 0001:00024620       _IsBadStringPtrA@8         00425620 f   kernel32:KERNEL32.dll
 0001:00024626       _IsBadWritePtr@8           00425626 f   kernel32:KERNEL32.dll
 0001:0002462c       _IsBadReadPtr@8            0042562c f   kernel32:KERNEL32.dll
 0001:00024632       _FileTimeToSystemTime@8    00425632 f   kernel32:KERNEL32.dll
 0001:00024638       _FileTimeToLocalFileTime@8 00425638 f   kernel32:KERNEL32.dll
 0001:0002463e       _VirtualProtect@16         0042563e f   kernel32:KERNEL32.dll
 0001:00024644       _GetProfileIntA@12         00425644 f   kernel32:KERNEL32.dll
 0001:0002464a       _GetPrivateProfileStringA@24 0042564a f   kernel32:KERNEL32.dll
 0001:00024650       _WritePrivateProfileStringA@16 00425650 f   kernel32:KERNEL32.dll
 0001:00024656       _GetCurrentDirectoryA@8    00425656 f   kernel32:KERNEL32.dll
 0001:0002465c       _SizeofResource@8          0042565c f   kernel32:KERNEL32.dll
 0001:00024662       _FormatMessageA@28         00425662 f   kernel32:KERNEL32.dll
 0001:00024668       _SetErrorMode@4            00425668 f   kernel32:KERNEL32.dll
 0001:0002466e       _DuplicateHandle@28        0042566e f   kernel32:KERNEL32.dll
 0001:00024674       _GetCurrentProcess@0       00425674 f   kernel32:KERNEL32.dll
 0001:0002467a       _SetFilePointer@16         0042567a f   kernel32:KERNEL32.dll
 0001:00024680       _LockFile@20               00425680 f   kernel32:KERNEL32.dll
 0001:00024686       _UnlockFile@20             00425686 f   kernel32:KERNEL32.dll
 0001:0002468c       _SetEndOfFile@4            0042568c f   kernel32:KERNEL32.dll
 0001:00024692       _MoveFileA@8               00425692 f   kernel32:KERNEL32.dll
 0001:00024698       _DeleteFileA@4             00425698 f   kernel32:KERNEL32.dll
 0001:0002469e       _FindClose@4               0042569e f   kernel32:KERNEL32.dll
 0001:000246a4       _FindFirstFileA@8          004256a4 f   kernel32:KERNEL32.dll
 0001:000246aa       _GetVolumeInformationA@32  004256aa f   kernel32:KERNEL32.dll
 0001:000246b0       _GetFullPathNameA@16       004256b0 f   kernel32:KERNEL32.dll
 0001:000246b6       _GetStringTypeExA@20       004256b6 f   kernel32:KERNEL32.dll
 0001:000246bc       _GetThreadLocale@0         004256bc f   kernel32:KERNEL32.dll
 0001:000246c2       _GetShortPathNameA@12      004256c2 f   kernel32:KERNEL32.dll
 0001:000246c8       _GetFileAttributesA@4      004256c8 f   kernel32:KERNEL32.dll
 0001:000246ce       _GetTempFileNameA@16       004256ce f   kernel32:KERNEL32.dll
 0001:000246d4       _SetFileTime@16            004256d4 f   kernel32:KERNEL32.dll
 0001:000246da       _GetFileTime@16            004256da f   kernel32:KERNEL32.dll
 0001:000246e0       _GetDiskFreeSpaceA@20      004256e0 f   kernel32:KERNEL32.dll
 0001:000246e6       _GetFileSize@8             004256e6 f   kernel32:KERNEL32.dll
 0001:000246ec       _LocalFileTimeToFileTime@8 004256ec f   kernel32:KERNEL32.dll
 0001:000246f2       _SystemTimeToFileTime@8    004256f2 f   kernel32:KERNEL32.dll
 0001:000246f8       _SetFileAttributesA@8      004256f8 f   kernel32:KERNEL32.dll
 0001:000246fe       _RtlUnwind@16              004256fe f   kernel32:KERNEL32.dll
 0001:00024704       _RaiseException@16         00425704 f   kernel32:KERNEL32.dll
 0001:0002470a       _GetStartupInfoA@4         0042570a f   kernel32:KERNEL32.dll
 0001:00024710       _GetCommandLineA@0         00425710 f   kernel32:KERNEL32.dll
 0001:00024716       _ExitProcess@4             00425716 f   kernel32:KERNEL32.dll
 0001:0002471c       _HeapValidate@12           0042571c f   kernel32:KERNEL32.dll
 0001:00024722       _TerminateProcess@8        00425722 f   kernel32:KERNEL32.dll
 0001:00024728       _ExitThread@4              00425728 f   kernel32:KERNEL32.dll
 0001:0002472e       _DebugBreak@0              0042572e f   kernel32:KERNEL32.dll
 0001:00024734       _GetStdHandle@4            00425734 f   kernel32:KERNEL32.dll
 0001:0002473a       _OutputDebugStringA@4      0042573a f   kernel32:KERNEL32.dll
 0001:00024740       _GetTimeZoneInformation@4  00425740 f   kernel32:KERNEL32.dll
 0001:00024746       _GetSystemTime@4           00425746 f   kernel32:KERNEL32.dll
 0001:0002474c       _GetLocalTime@4            0042574c f   kernel32:KERNEL32.dll
 0001:00024752       _GetACP@0                  00425752 f   kernel32:KERNEL32.dll
 0001:00024758       _FatalAppExitA@8           00425758 f   kernel32:KERNEL32.dll
 0001:0002475e       _HeapFree@12               0042575e f   kernel32:KERNEL32.dll
 0001:00024764       _SetUnhandledExceptionFilter@4 00425764 f   kernel32:KERNEL32.dll
 0001:0002476a       _UnhandledExceptionFilter@4 0042576a f   kernel32:KERNEL32.dll
 0001:00024770       _FreeEnvironmentStringsA@4 00425770 f   kernel32:KERNEL32.dll
 0001:00024776       _FreeEnvironmentStringsW@4 00425776 f   kernel32:KERNEL32.dll
 0001:0002477c       _GetEnvironmentStrings@0   0042577c f   kernel32:KERNEL32.dll
 0001:00024782       _GetEnvironmentStringsW@0  00425782 f   kernel32:KERNEL32.dll
 0001:00024788       _SetHandleCount@4          00425788 f   kernel32:KERNEL32.dll
 0001:0002478e       _GetFileType@4             0042578e f   kernel32:KERNEL32.dll
 0001:00024794       _HeapDestroy@4             00425794 f   kernel32:KERNEL32.dll
 0001:0002479a       _HeapCreate@12             0042579a f   kernel32:KERNEL32.dll
 0001:000247a0       _VirtualFree@12            004257a0 f   kernel32:KERNEL32.dll
 0001:000247a6       _HeapAlloc@12              004257a6 f   kernel32:KERNEL32.dll
 0001:000247ac       _HeapReAlloc@16            004257ac f   kernel32:KERNEL32.dll
 0001:000247b2       _VirtualAlloc@16           004257b2 f   kernel32:KERNEL32.dll
 0001:000247b8       _LCMapStringA@24           004257b8 f   kernel32:KERNEL32.dll
 0001:000247be       _LCMapStringW@24           004257be f   kernel32:KERNEL32.dll
 0001:000247c4       _CompareStringA@24         004257c4 f   kernel32:KERNEL32.dll
 0001:000247ca       _CompareStringW@24         004257ca f   kernel32:KERNEL32.dll
 0001:000247d0       _SetConsoleCtrlHandler@8   004257d0 f   kernel32:KERNEL32.dll
 0001:000247d6       _GetStringTypeA@20         004257d6 f   kernel32:KERNEL32.dll
 0001:000247dc       _GetStringTypeW@16         004257dc f   kernel32:KERNEL32.dll
 0001:000247e2       _IsBadCodePtr@4            004257e2 f   kernel32:KERNEL32.dll
 0001:000247e8       _IsValidLocale@8           004257e8 f   kernel32:KERNEL32.dll
 0001:000247ee       _IsValidCodePage@4         004257ee f   kernel32:KERNEL32.dll
 0001:000247f4       _GetLocaleInfoA@16         004257f4 f   kernel32:KERNEL32.dll
 0001:000247fa       _EnumSystemLocalesA@8      004257fa f   kernel32:KERNEL32.dll
 0001:00024800       _GetUserDefaultLCID@0      00425800 f   kernel32:KERNEL32.dll
 0001:00024806       _GetVersionExA@4           00425806 f   kernel32:KERNEL32.dll
 0001:0002480c       _SetStdHandle@8            0042580c f   kernel32:KERNEL32.dll
 0001:00024812       _SetEnvironmentVariableA@8 00425812 f   kernel32:KERNEL32.dll
 0001:00024818       _GetLocaleInfoW@16         00425818 f   kernel32:KERNEL32.dll
 0001:0002481e       _PostThreadMessageA@16     0042581e f   user32:USER32.dll
 0001:00024824       _DefWindowProcA@16         00425824 f   user32:USER32.dll
 0001:0002482a       _GetClassInfoA@12          0042582a f   user32:USER32.dll
 0001:00024830       _GetSysColor@4             00425830 f   user32:USER32.dll
 0001:00024836       _GetKeyState@4             00425836 f   user32:USER32.dll
 0001:0002483c       _SetKeyboardState@4        0042583c f   user32:USER32.dll
 0001:00024842       _GetKeyboardState@4        00425842 f   user32:USER32.dll
 0001:00024848       _GetDesktopWindow@0        00425848 f   user32:USER32.dll
 0001:0002484e       _ReleaseCapture@0          0042584e f   user32:USER32.dll
 0001:00024854       _SystemParametersInfoA@16  00425854 f   user32:USER32.dll
 0001:0002485a       _PeekMessageA@20           0042585a f   user32:USER32.dll
 0001:00024860       _GetSystemMetrics@4        00425860 f   user32:USER32.dll
 0001:00024866       _GetWindowRect@8           00425866 f   user32:USER32.dll
 0001:0002486c       _GetWindowPlacement@8      0042586c f   user32:USER32.dll
 0001:00024872       _IsIconic@4                00425872 f   user32:USER32.dll
 0001:00024878       _IntersectRect@12          00425878 f   user32:USER32.dll
 0001:0002487e       _OffsetRect@12             0042587e f   user32:USER32.dll
 0001:00024884       _RegisterWindowMessageA@4  00425884 f   user32:USER32.dll
 0001:0002488a       _SetWindowPos@28           0042588a f   user32:USER32.dll
 0001:00024890       _SetWindowLongA@12         00425890 f   user32:USER32.dll
 0001:00024896       _GetWindowLongA@8          00425896 f   user32:USER32.dll
 0001:0002489c       _GetMessagePos@0           0042589c f   user32:USER32.dll
 0001:000248a2       _GetMessageTime@0          004258a2 f   user32:USER32.dll
 0001:000248a8       _RemovePropA@8             004258a8 f   user32:USER32.dll
 0001:000248ae       _CallWindowProcA@20        004258ae f   user32:USER32.dll
 0001:000248b4       _GetPropA@8                004258b4 f   user32:USER32.dll
 0001:000248ba       _UnhookWindowsHookEx@4     004258ba f   user32:USER32.dll
 0001:000248c0       _SetPropA@12               004258c0 f   user32:USER32.dll
 0001:000248c6       _GetClassLongA@8           004258c6 f   user32:USER32.dll
 0001:000248cc       _CallNextHookEx@16         004258cc f   user32:USER32.dll
 0001:000248d2       _SetWindowsHookExA@16      004258d2 f   user32:USER32.dll
 0001:000248d8       _CreateWindowExA@48        004258d8 f   user32:USER32.dll
 0001:000248de       _IsWindow@4                004258de f   user32:USER32.dll
 0001:000248e4       _GetDlgCtrlID@4            004258e4 f   user32:USER32.dll
 0001:000248ea       _GetClassNameA@12          004258ea f   user32:USER32.dll
 0001:000248f0       _SendMessageA@16           004258f0 f   user32:USER32.dll
 0001:000248f6       _DestroyWindow@4           004258f6 f   user32:USER32.dll
 0001:000248fc       _GetWindowTextA@12         004258fc f   user32:USER32.dll
 0001:00024902       _GetWindowTextLengthA@4    00425902 f   user32:USER32.dll
 0001:00024908       _GetDlgItem@8              00425908 f   user32:USER32.dll
 0001:0002490e       _SetWindowPlacement@8      0042590e f   user32:USER32.dll
 0001:00024914       _TrackPopupMenu@28         00425914 f   user32:USER32.dll
 0001:0002491a       _RegisterClassA@4          0042591a f   user32:USER32.dll
 0001:00024920       _wsprintfA                 00425920 f   user32:USER32.dll
 0001:00024926       _WinHelpA@16               00425926 f   user32:USER32.dll
 0001:0002492c       _GetCapture@0              0042592c f   user32:USER32.dll
 0001:00024932       _GetWindow@8               00425932 f   user32:USER32.dll
 0001:00024938       _GetParent@4               00425938 f   user32:USER32.dll
 0001:0002493e       _IsChild@8                 0042593e f   user32:USER32.dll
 0001:00024944       _MessageBoxA@16            00425944 f   user32:USER32.dll
 0001:0002494a       _GetTopWindow@4            0042594a f   user32:USER32.dll
 0001:00024950       _SetScrollPos@16           00425950 f   user32:USER32.dll
 0001:00024956       _GetScrollPos@8            00425956 f   user32:USER32.dll
 0001:0002495c       _SetScrollRange@20         0042595c f   user32:USER32.dll
 0001:00024962       _GetScrollRange@16         00425962 f   user32:USER32.dll
 0001:00024968       _SetScrollInfo@16          00425968 f   user32:USER32.dll
 0001:0002496e       _GetScrollInfo@12          0042596e f   user32:USER32.dll
 0001:00024974       _ScrollWindow@20           00425974 f   user32:USER32.dll
 0001:0002497a       _EndDeferWindowPos@4       0042597a f   user32:USER32.dll
 0001:00024980       _CopyRect@8                00425980 f   user32:USER32.dll
 0001:00024986       _BeginDeferWindowPos@4     00425986 f   user32:USER32.dll
 0001:0002498c       _DeferWindowPos@32         0042598c f   user32:USER32.dll
 0001:00024992       _EqualRect@8               00425992 f   user32:USER32.dll
 0001:00024998       _ScreenToClient@8          00425998 f   user32:USER32.dll
 0001:0002499e       _AdjustWindowRectEx@16     0042599e f   user32:USER32.dll
 0001:000249a4       _SetFocus@4                004259a4 f   user32:USER32.dll
 0001:000249aa       _SetActiveWindow@4         004259aa f   user32:USER32.dll
 0001:000249b0       _GetFocus@0                004259b0 f   user32:USER32.dll
 0001:000249b6       _DispatchMessageA@4        004259b6 f   user32:USER32.dll
 0001:000249bc       _MapWindowPoints@16        004259bc f   user32:USER32.dll
 0001:000249c2       _GetClientRect@8           004259c2 f   user32:USER32.dll
 0001:000249c8       _SendDlgItemMessageA@20    004259c8 f   user32:USER32.dll
 0001:000249ce       _LoadIconA@8               004259ce f   user32:USER32.dll
 0001:000249d4       _IsRectEmpty@4             004259d4 f   user32:USER32.dll
 0001:000249da       _PtInRect@12               004259da f   user32:USER32.dll
 0001:000249e0       _SetRect@20                004259e0 f   user32:USER32.dll
 0001:000249e6       _SetRectEmpty@4            004259e6 f   user32:USER32.dll
 0001:000249ec       _InflateRect@12            004259ec f   user32:USER32.dll
 0001:000249f2       _UnionRect@12              004259f2 f   user32:USER32.dll
 0001:000249f8       _SubtractRect@12           004259f8 f   user32:USER32.dll
 0001:000249fe       _GetSysColorBrush@4        004259fe f   user32:USER32.dll
 0001:00024a04       _LoadBitmapA@8             00425a04 f   user32:USER32.dll
 0001:00024a0a       _WindowFromDC@4            00425a0a f   user32:USER32.dll
 0001:00024a10       _ExcludeUpdateRgn@8        00425a10 f   user32:USER32.dll
 0001:00024a16       _FillRect@12               00425a16 f   user32:USER32.dll
 0001:00024a1c       _FrameRect@12              00425a1c f   user32:USER32.dll
 0001:00024a22       _InvertRect@8              00425a22 f   user32:USER32.dll
 0001:00024a28       _DrawIcon@16               00425a28 f   user32:USER32.dll
 0001:00024a2e       _DrawStateA@40             00425a2e f   user32:USER32.dll
 0001:00024a34       _DrawEdge@16               00425a34 f   user32:USER32.dll
 0001:00024a3a       _DrawFrameControl@16       00425a3a f   user32:USER32.dll
 0001:00024a40       _DrawFocusRect@8           00425a40 f   user32:USER32.dll
 0001:00024a46       _TabbedTextOutA@32         00425a46 f   user32:USER32.dll
 0001:00024a4c       _DrawTextA@20              00425a4c f   user32:USER32.dll
 0001:00024a52       _GetTabbedTextExtentA@20   00425a52 f   user32:USER32.dll
 0001:00024a58       _GrayStringA@36            00425a58 f   user32:USER32.dll
 0001:00024a5e       _ScrollDC@28               00425a5e f   user32:USER32.dll
 0001:00024a64       _CreateMenu@0              00425a64 f   user32:USER32.dll
 0001:00024a6a       _CreatePopupMenu@0         00425a6a f   user32:USER32.dll
 0001:00024a70       _IsMenu@4                  00425a70 f   user32:USER32.dll
 0001:00024a76       _DeleteMenu@12             00425a76 f   user32:USER32.dll
 0001:00024a7c       _AppendMenuA@16            00425a7c f   user32:USER32.dll
 0001:00024a82       _CheckMenuItem@12          00425a82 f   user32:USER32.dll
 0001:00024a88       _EnableMenuItem@12         00425a88 f   user32:USER32.dll
 0001:00024a8e       _SetMenuDefaultItem@12     00425a8e f   user32:USER32.dll
 0001:00024a94       _GetMenuDefaultItem@12     00425a94 f   user32:USER32.dll
 0001:00024a9a       _GetMenuItemCount@4        00425a9a f   user32:USER32.dll
 0001:00024aa0       _GetMenuItemID@8           00425aa0 f   user32:USER32.dll
 0001:00024aa6       _GetMenuState@12           00425aa6 f   user32:USER32.dll
 0001:00024aac       _GetMenuStringA@20         00425aac f   user32:USER32.dll
 0001:00024ab2       _GetMenuItemInfoA@16       00425ab2 f   user32:USER32.dll
 0001:00024ab8       _GetSubMenu@8              00425ab8 f   user32:USER32.dll
 0001:00024abe       _InsertMenuA@20            00425abe f   user32:USER32.dll
 0001:00024ac4       _ModifyMenuA@20            00425ac4 f   user32:USER32.dll
 0001:00024aca       _RemoveMenu@12             00425aca f   user32:USER32.dll
 0001:00024ad0       _SetMenuItemBitmaps@20     00425ad0 f   user32:USER32.dll
 0001:00024ad6       _LoadMenuA@8               00425ad6 f   user32:USER32.dll
 0001:00024adc       _LoadMenuIndirectA@4       00425adc f   user32:USER32.dll
 0001:00024ae2       _SetMenuContextHelpId@8    00425ae2 f   user32:USER32.dll
 0001:00024ae8       _GetMenuContextHelpId@4    00425ae8 f   user32:USER32.dll
 0001:00024aee       _CheckMenuRadioItem@20     00425aee f   user32:USER32.dll
 0001:00024af4       _ClientToScreen@8          00425af4 f   user32:USER32.dll
 0001:00024afa       _GetDC@4                   00425afa f   user32:USER32.dll
 0001:00024b00       _ReleaseDC@8               00425b00 f   user32:USER32.dll
 0001:00024b06       _GetWindowDC@4             00425b06 f   user32:USER32.dll
 0001:00024b0c       _BeginPaint@8              00425b0c f   user32:USER32.dll
 0001:00024b12       _EndPaint@8                00425b12 f   user32:USER32.dll
 0001:00024b18       _PostMessageA@16           00425b18 f   user32:USER32.dll
 0001:00024b1e       _GetMenu@4                 00425b1e f   user32:USER32.dll
 0001:00024b24       _SetMenu@8                 00425b24 f   user32:USER32.dll
 0001:00024b2a       _DrawMenuBar@4             00425b2a f   user32:USER32.dll
 0001:00024b30       _GetSystemMenu@8           00425b30 f   user32:USER32.dll
 0001:00024b36       _HiliteMenuItem@16         00425b36 f   user32:USER32.dll
 0001:00024b3c       _IsZoomed@4                00425b3c f   user32:USER32.dll
 0001:00024b42       _ArrangeIconicWindows@4    00425b42 f   user32:USER32.dll
 0001:00024b48       _SetWindowRgn@12           00425b48 f   user32:USER32.dll
 0001:00024b4e       _GetWindowRgn@8            00425b4e f   user32:USER32.dll
 0001:00024b54       _BringWindowToTop@4        00425b54 f   user32:USER32.dll
 0001:00024b5a       _UpdateWindow@4            00425b5a f   user32:USER32.dll
 0001:00024b60       _GetUpdateRect@12          00425b60 f   user32:USER32.dll
 0001:00024b66       _GetUpdateRgn@12           00425b66 f   user32:USER32.dll
 0001:00024b6c       _InvalidateRect@12         00425b6c f   user32:USER32.dll
 0001:00024b72       _InvalidateRgn@12          00425b72 f   user32:USER32.dll
 0001:00024b78       _ValidateRect@8            00425b78 f   user32:USER32.dll
 0001:00024b7e       _ValidateRgn@8             00425b7e f   user32:USER32.dll
 0001:00024b84       _IsWindowVisible@4         00425b84 f   user32:USER32.dll
 0001:00024b8a       _ShowOwnedPopups@8         00425b8a f   user32:USER32.dll
 0001:00024b90       _GetDCEx@12                00425b90 f   user32:USER32.dll
 0001:00024b96       _LockWindowUpdate@4        00425b96 f   user32:USER32.dll
 0001:00024b9c       _RedrawWindow@16           00425b9c f   user32:USER32.dll
 0001:00024ba2       _EnableScrollBar@12        00425ba2 f   user32:USER32.dll
 0001:00024ba8       _SetTimer@16               00425ba8 f   user32:USER32.dll
 0001:00024bae       _KillTimer@8               00425bae f   user32:USER32.dll
 0001:00024bb4       _GetActiveWindow@0         00425bb4 f   user32:USER32.dll
 0001:00024bba       _SetCapture@4              00425bba f   user32:USER32.dll
 0001:00024bc0       _DlgDirListA@20            00425bc0 f   user32:USER32.dll
 0001:00024bc6       _DlgDirListComboBoxA@20    00425bc6 f   user32:USER32.dll
 0001:00024bcc       _DlgDirSelectExA@16        00425bcc f   user32:USER32.dll
 0001:00024bd2       _DlgDirSelectComboBoxExA@16 00425bd2 f   user32:USER32.dll
 0001:00024bd8       _GetNextDlgGroupItem@12    00425bd8 f   user32:USER32.dll
 0001:00024bde       _GetNextDlgTabItem@12      00425bde f   user32:USER32.dll
 0001:00024be4       _ShowScrollBar@12          00425be4 f   user32:USER32.dll
 0001:00024bea       _ChildWindowFromPoint@12   00425bea f   user32:USER32.dll
 0001:00024bf0       _ChildWindowFromPointEx@16 00425bf0 f   user32:USER32.dll
 0001:00024bf6       _FindWindowA@8             00425bf6 f   user32:USER32.dll
 0001:00024bfc       _GetLastActivePopup@4      00425bfc f   user32:USER32.dll
 0001:00024c02       _SetParent@8               00425c02 f   user32:USER32.dll
 0001:00024c08       _WindowFromPoint@8         00425c08 f   user32:USER32.dll
 0001:00024c0e       _FlashWindow@8             00425c0e f   user32:USER32.dll
 0001:00024c14       _ChangeClipboardChain@8    00425c14 f   user32:USER32.dll
 0001:00024c1a       _SetClipboardViewer@4      00425c1a f   user32:USER32.dll
 0001:00024c20       _OpenClipboard@4           00425c20 f   user32:USER32.dll
 0001:00024c26       _GetOpenClipboardWindow@0  00425c26 f   user32:USER32.dll
 0001:00024c2c       _GetClipboardOwner@0       00425c2c f   user32:USER32.dll
 0001:00024c32       _GetClipboardViewer@0      00425c32 f   user32:USER32.dll
 0001:00024c38       _CreateCaret@16            00425c38 f   user32:USER32.dll
 0001:00024c3e       _GetCaretPos@4             00425c3e f   user32:USER32.dll
 0001:00024c44       _SetCaretPos@8             00425c44 f   user32:USER32.dll
 0001:00024c4a       _HideCaret@4               00425c4a f   user32:USER32.dll
 0001:00024c50       _ShowCaret@4               00425c50 f   user32:USER32.dll
 0001:00024c56       _SetForegroundWindow@4     00425c56 f   user32:USER32.dll
 0001:00024c5c       _GetForegroundWindow@0     00425c5c f   user32:USER32.dll
 0001:00024c62       _SendNotifyMessageA@16     00425c62 f   user32:USER32.dll
 0001:00024c68       _SetWindowContextHelpId@8  00425c68 f   user32:USER32.dll
 0001:00024c6e       _GetWindowContextHelpId@4  00425c6e f   user32:USER32.dll
 0001:00024c74       _EnableWindow@8            00425c74 f   user32:USER32.dll
 0001:00024c7a       _MapDialogRect@8           00425c7a f   user32:USER32.dll
 0001:00024c80       _LoadCursorA@8             00425c80 f   user32:USER32.dll
 0001:00024c86       _CloseWindow@4             00425c86 f   user32:USER32.dll
 0001:00024c8c       _OpenIcon@4                00425c8c f   user32:USER32.dll
 0001:00024c92       _CheckDlgButton@12         00425c92 f   user32:USER32.dll
 0001:00024c98       _CheckRadioButton@16       00425c98 f   user32:USER32.dll
 0001:00024c9e       _GetDlgItemInt@16          00425c9e f   user32:USER32.dll
 0001:00024ca4       _GetDlgItemTextA@16        00425ca4 f   user32:USER32.dll
 0001:00024caa       _SetDlgItemInt@16          00425caa f   user32:USER32.dll
 0001:00024cb0       _SetDlgItemTextA@12        00425cb0 f   user32:USER32.dll
 0001:00024cb6       _IsDlgButtonChecked@8      00425cb6 f   user32:USER32.dll
 0001:00024cbc       _ScrollWindowEx@32         00425cbc f   user32:USER32.dll
 0001:00024cc2       _IsDialogMessageA@8        00425cc2 f   user32:USER32.dll
 0001:00024cc8       _SetWindowTextA@8          00425cc8 f   user32:USER32.dll
 0001:00024cce       _MoveWindow@24             00425cce f   user32:USER32.dll
 0001:00024cd4       _ShowWindow@8              00425cd4 f   user32:USER32.dll
 0001:00024cda       _IsWindowEnabled@4         00425cda f   user32:USER32.dll
 0001:00024ce0       _GetMenuCheckMarkDimensions@0 00425ce0 f   user32:USER32.dll
 0001:00024ce6       _CharToOemA@8              00425ce6 f   user32:USER32.dll
 0001:00024cec       _OemToCharA@8              00425cec f   user32:USER32.dll
 0001:00024cf2       _PostQuitMessage@4         00425cf2 f   user32:USER32.dll
 0001:00024cf8       _SetCursor@4               00425cf8 f   user32:USER32.dll
 0001:00024cfe       _GetCursorPos@4            00425cfe f   user32:USER32.dll
 0001:00024d04       _TranslateMessage@4        00425d04 f   user32:USER32.dll
 0001:00024d0a       _GetMessageA@16            00425d0a f   user32:USER32.dll
 0001:00024d10       _CreateDialogIndirectParamA@20 00425d10 f   user32:USER32.dll
 0001:00024d16       _EndDialog@8               00425d16 f   user32:USER32.dll
 0001:00024d1c       _GetClipboardFormatNameA@12 00425d1c f   user32:USER32.dll
 0001:00024d22       _UnpackDDElParam@16        00425d22 f   user32:USER32.dll
 0001:00024d28       _DestroyMenu@4             00425d28 f   user32:USER32.dll
 0001:00024d2e       _GetAsyncKeyState@4        00425d2e f   user32:USER32.dll
 0001:00024d34       _SetCursorPos@8            00425d34 f   user32:USER32.dll
 0001:00024d3a       _DestroyCursor@4           00425d3a f   user32:USER32.dll
 0001:00024d40       _LoadStringA@16            00425d40 f   user32:USER32.dll
 0001:00024d46       _WaitMessage@0             00425d46 f   user32:USER32.dll
 0001:00024d4c       _GetWindowThreadProcessId@8 00425d4c f   user32:USER32.dll
 0001:00024d52       _LoadAcceleratorsA@8       00425d52 f   user32:USER32.dll
 0001:00024d58       _TranslateAcceleratorA@12  00425d58 f   user32:USER32.dll
 0001:00024d5e       _ReuseDDElParam@20         00425d5e f   user32:USER32.dll
 0001:00024d64       _GetDialogBaseUnits@0      00425d64 f   user32:USER32.dll
 0001:00024d6a       _CharUpperA@4              00425d6a f   user32:USER32.dll
 0001:00024d70       _DestroyIcon@4             00425d70 f   user32:USER32.dll
 0001:00024d76       _GetDCOrgEx@8              00425d76 f   gdi32:GDI32.dll
 0001:00024d7c       _GetClipBox@8              00425d7c f   gdi32:GDI32.dll
 0001:00024d82       _SetTextColor@8            00425d82 f   gdi32:GDI32.dll
 0001:00024d88       _SetBkColor@8              00425d88 f   gdi32:GDI32.dll
 0001:00024d8e       _GetObjectA@12             00425d8e f   gdi32:GDI32.dll
 0001:00024d94       _GetStockObject@4          00425d94 f   gdi32:GDI32.dll
 0001:00024d9a       _UnrealizeObject@4         00425d9a f   gdi32:GDI32.dll
 0001:00024da0       _GetObjectType@4           00425da0 f   gdi32:GDI32.dll
 0001:00024da6       _CreatePen@12              00425da6 f   gdi32:GDI32.dll
 0001:00024dac       _CreatePenIndirect@4       00425dac f   gdi32:GDI32.dll
 0001:00024db2       _ExtCreatePen@20           00425db2 f   gdi32:GDI32.dll
 0001:00024db8       _CreateSolidBrush@4        00425db8 f   gdi32:GDI32.dll
 0001:00024dbe       _CreateHatchBrush@8        00425dbe f   gdi32:GDI32.dll
 0001:00024dc4       _CreateBrushIndirect@4     00425dc4 f   gdi32:GDI32.dll
 0001:00024dca       _CreatePatternBrush@4      00425dca f   gdi32:GDI32.dll
 0001:00024dd0       _CreateDIBPatternBrushPt@8 00425dd0 f   gdi32:GDI32.dll
 0001:00024dd6       _CreateFontIndirectA@4     00425dd6 f   gdi32:GDI32.dll
 0001:00024ddc       _CreateFontA@56            00425ddc f   gdi32:GDI32.dll
 0001:00024de2       _CreateBitmap@20           00425de2 f   gdi32:GDI32.dll
 0001:00024de8       _CreateBitmapIndirect@4    00425de8 f   gdi32:GDI32.dll
 0001:00024dee       _SetBitmapBits@12          00425dee f   gdi32:GDI32.dll
 0001:00024df4       _GetBitmapBits@12          00425df4 f   gdi32:GDI32.dll
 0001:00024dfa       _SetBitmapDimensionEx@16   00425dfa f   gdi32:GDI32.dll
 0001:00024e00       _GetBitmapDimensionEx@8    00425e00 f   gdi32:GDI32.dll
 0001:00024e06       _CreateCompatibleBitmap@12 00425e06 f   gdi32:GDI32.dll
 0001:00024e0c       _CreateDiscardableBitmap@12 00425e0c f   gdi32:GDI32.dll
 0001:00024e12       _CreatePalette@4           00425e12 f   gdi32:GDI32.dll
 0001:00024e18       _CreateHalftonePalette@4   00425e18 f   gdi32:GDI32.dll
 0001:00024e1e       _GetPaletteEntries@16      00425e1e f   gdi32:GDI32.dll
 0001:00024e24       _SetPaletteEntries@16      00425e24 f   gdi32:GDI32.dll
 0001:00024e2a       _AnimatePalette@16         00425e2a f   gdi32:GDI32.dll
 0001:00024e30       _GetNearestPaletteIndex@8  00425e30 f   gdi32:GDI32.dll
 0001:00024e36       _ResizePalette@8           00425e36 f   gdi32:GDI32.dll
 0001:00024e3c       _CreateRectRgn@16          00425e3c f   gdi32:GDI32.dll
 0001:00024e42       _CreateRectRgnIndirect@4   00425e42 f   gdi32:GDI32.dll
 0001:00024e48       _CreateEllipticRgn@16      00425e48 f   gdi32:GDI32.dll
 0001:00024e4e       _CreateEllipticRgnIndirect@4 00425e4e f   gdi32:GDI32.dll
 0001:00024e54       _CreatePolygonRgn@12       00425e54 f   gdi32:GDI32.dll
 0001:00024e5a       _CreatePolyPolygonRgn@16   00425e5a f   gdi32:GDI32.dll
 0001:00024e60       _CreateRoundRectRgn@24     00425e60 f   gdi32:GDI32.dll
 0001:00024e66       _PathToRegion@4            00425e66 f   gdi32:GDI32.dll
 0001:00024e6c       _ExtCreateRegion@12        00425e6c f   gdi32:GDI32.dll
 0001:00024e72       _GetRegionData@12          00425e72 f   gdi32:GDI32.dll
 0001:00024e78       _SetRectRgn@20             00425e78 f   gdi32:GDI32.dll
 0001:00024e7e       _CombineRgn@16             00425e7e f   gdi32:GDI32.dll
 0001:00024e84       _EqualRgn@8                00425e84 f   gdi32:GDI32.dll
 0001:00024e8a       _OffsetRgn@12              00425e8a f   gdi32:GDI32.dll
 0001:00024e90       _GetRgnBox@8               00425e90 f   gdi32:GDI32.dll
 0001:00024e96       _PtInRegion@12             00425e96 f   gdi32:GDI32.dll
 0001:00024e9c       _RectInRegion@8            00425e9c f   gdi32:GDI32.dll
 0001:00024ea2       _CreateDCA@16              00425ea2 f   gdi32:GDI32.dll
 0001:00024ea8       _CreateICA@16              00425ea8 f   gdi32:GDI32.dll
 0001:00024eae       _CreateCompatibleDC@4      00425eae f   gdi32:GDI32.dll
 0001:00024eb4       _GetDeviceCaps@8           00425eb4 f   gdi32:GDI32.dll
 0001:00024eba       _GetBrushOrgEx@8           00425eba f   gdi32:GDI32.dll
 0001:00024ec0       _SetBrushOrgEx@16          00425ec0 f   gdi32:GDI32.dll
 0001:00024ec6       _EnumObjects@16            00425ec6 f   gdi32:GDI32.dll
 0001:00024ecc       _SelectObject@8            00425ecc f   gdi32:GDI32.dll
 0001:00024ed2       _GetNearestColor@8         00425ed2 f   gdi32:GDI32.dll
 0001:00024ed8       _RealizePalette@4          00425ed8 f   gdi32:GDI32.dll
 0001:00024ede       _UpdateColors@4            00425ede f   gdi32:GDI32.dll
 0001:00024ee4       _GetBkColor@4              00425ee4 f   gdi32:GDI32.dll
 0001:00024eea       _GetBkMode@4               00425eea f   gdi32:GDI32.dll
 0001:00024ef0       _GetPolyFillMode@4         00425ef0 f   gdi32:GDI32.dll
 0001:00024ef6       _GetROP2@4                 00425ef6 f   gdi32:GDI32.dll
 0001:00024efc       _GetStretchBltMode@4       00425efc f   gdi32:GDI32.dll
 0001:00024f02       _GetTextColor@4            00425f02 f   gdi32:GDI32.dll
 0001:00024f08       _GetMapMode@4              00425f08 f   gdi32:GDI32.dll
 0001:00024f0e       _GetViewportOrgEx@8        00425f0e f   gdi32:GDI32.dll
 0001:00024f14       _GetViewportExtEx@8        00425f14 f   gdi32:GDI32.dll
 0001:00024f1a       _GetWindowOrgEx@8          00425f1a f   gdi32:GDI32.dll
 0001:00024f20       _GetWindowExtEx@8          00425f20 f   gdi32:GDI32.dll
 0001:00024f26       _DPtoLP@12                 00425f26 f   gdi32:GDI32.dll
 0001:00024f2c       _LPtoDP@12                 00425f2c f   gdi32:GDI32.dll
 0001:00024f32       _FillRgn@12                00425f32 f   gdi32:GDI32.dll
 0001:00024f38       _FrameRgn@20               00425f38 f   gdi32:GDI32.dll
 0001:00024f3e       _InvertRgn@8               00425f3e f   gdi32:GDI32.dll
 0001:00024f44       _PaintRgn@8                00425f44 f   gdi32:GDI32.dll
 0001:00024f4a       _PtVisible@12              00425f4a f   gdi32:GDI32.dll
 0001:00024f50       _RectVisible@8             00425f50 f   gdi32:GDI32.dll
 0001:00024f56       _GetCurrentPositionEx@8    00425f56 f   gdi32:GDI32.dll
 0001:00024f5c       _Arc@36                    00425f5c f   gdi32:GDI32.dll
 0001:00024f62       _Polyline@12               00425f62 f   gdi32:GDI32.dll
 0001:00024f68       _Chord@36                  00425f68 f   gdi32:GDI32.dll
 0001:00024f6e       _Ellipse@20                00425f6e f   gdi32:GDI32.dll
 0001:00024f74       _Pie@36                    00425f74 f   gdi32:GDI32.dll
 0001:00024f7a       _Polygon@12                00425f7a f   gdi32:GDI32.dll
 0001:00024f80       _PolyPolygon@16            00425f80 f   gdi32:GDI32.dll
 0001:00024f86       _Rectangle@20              00425f86 f   gdi32:GDI32.dll
 0001:00024f8c       _RoundRect@28              00425f8c f   gdi32:GDI32.dll
 0001:00024f92       _PatBlt@24                 00425f92 f   gdi32:GDI32.dll
 0001:00024f98       _BitBlt@36                 00425f98 f   gdi32:GDI32.dll
 0001:00024f9e       _StretchBlt@44             00425f9e f   gdi32:GDI32.dll
 0001:00024fa4       _GetPixel@12               00425fa4 f   gdi32:GDI32.dll
 0001:00024faa       _SetPixel@16               00425faa f   gdi32:GDI32.dll
 0001:00024fb0       _FloodFill@16              00425fb0 f   gdi32:GDI32.dll
 0001:00024fb6       _ExtFloodFill@20           00425fb6 f   gdi32:GDI32.dll
 0001:00024fbc       _TextOutA@20               00425fbc f   gdi32:GDI32.dll
 0001:00024fc2       _ExtTextOutA@32            00425fc2 f   gdi32:GDI32.dll
 0001:00024fc8       _GetTextExtentPoint32A@16  00425fc8 f   gdi32:GDI32.dll
 0001:00024fce       _GetTextAlign@4            00425fce f   gdi32:GDI32.dll
 0001:00024fd4       _GetTextFaceA@12           00425fd4 f   gdi32:GDI32.dll
 0001:00024fda       _GetTextMetricsA@8         00425fda f   gdi32:GDI32.dll
 0001:00024fe0       _GetTextCharacterExtra@4   00425fe0 f   gdi32:GDI32.dll
 0001:00024fe6       _GetCharWidthA@16          00425fe6 f   gdi32:GDI32.dll
 0001:00024fec       _GetAspectRatioFilterEx@8  00425fec f   gdi32:GDI32.dll
 0001:00024ff2       _Escape@20                 00425ff2 f   gdi32:GDI32.dll
 0001:00024ff8       _SetBoundsRect@12          00425ff8 f   gdi32:GDI32.dll
 0001:00024ffe       _GetBoundsRect@12          00425ffe f   gdi32:GDI32.dll
 0001:00025004       _ResetDCA@8                00426004 f   gdi32:GDI32.dll
 0001:0002500a       _GetOutlineTextMetricsA@12 0042600a f   gdi32:GDI32.dll
 0001:00025010       _GetCharABCWidthsA@16      00426010 f   gdi32:GDI32.dll
 0001:00025016       _GetFontData@20            00426016 f   gdi32:GDI32.dll
 0001:0002501c       _GetKerningPairsA@12       0042601c f   gdi32:GDI32.dll
 0001:00025022       _GetGlyphOutlineA@28       00426022 f   gdi32:GDI32.dll
 0001:00025028       _StartDocA@8               00426028 f   gdi32:GDI32.dll
 0001:0002502e       _StartPage@4               0042602e f   gdi32:GDI32.dll
 0001:00025034       _EndPage@4                 00426034 f   gdi32:GDI32.dll
 0001:0002503a       _SetAbortProc@8            0042603a f   gdi32:GDI32.dll
 0001:00025040       _AbortDoc@4                00426040 f   gdi32:GDI32.dll
 0001:00025046       _EndDoc@4                  00426046 f   gdi32:GDI32.dll
 0001:0002504c       _MaskBlt@48                0042604c f   gdi32:GDI32.dll
 0001:00025052       _PlgBlt@40                 00426052 f   gdi32:GDI32.dll
 0001:00025058       _SetPixelV@16              00426058 f   gdi32:GDI32.dll
 0001:0002505e       _AngleArc@24               0042605e f   gdi32:GDI32.dll
 0001:00025064       _GetArcDirection@4         00426064 f   gdi32:GDI32.dll
 0001:0002506a       _PolyPolyline@16           0042606a f   gdi32:GDI32.dll
 0001:00025070       _GetColorAdjustment@8      00426070 f   gdi32:GDI32.dll
 0001:00025076       _GetCurrentObject@8        00426076 f   gdi32:GDI32.dll
 0001:0002507c       _PolyBezier@12             0042607c f   gdi32:GDI32.dll
 0001:00025082       _DrawEscape@16             00426082 f   gdi32:GDI32.dll
 0001:00025088       _ExtEscape@24              00426088 f   gdi32:GDI32.dll
 0001:0002508e       _GetCharABCWidthsFloatA@16 0042608e f   gdi32:GDI32.dll
 0001:00025094       _GetCharWidthFloatA@16     00426094 f   gdi32:GDI32.dll
 0001:0002509a       _AbortPath@4               0042609a f   gdi32:GDI32.dll
 0001:000250a0       _BeginPath@4               004260a0 f   gdi32:GDI32.dll
 0001:000250a6       _CloseFigure@4             004260a6 f   gdi32:GDI32.dll
 0001:000250ac       _EndPath@4                 004260ac f   gdi32:GDI32.dll
 0001:000250b2       _FillPath@4                004260b2 f   gdi32:GDI32.dll
 0001:000250b8       _FlattenPath@4             004260b8 f   gdi32:GDI32.dll
 0001:000250be       _GetMiterLimit@8           004260be f   gdi32:GDI32.dll
 0001:000250c4       _GetPath@16                004260c4 f   gdi32:GDI32.dll
 0001:000250ca       _SetMiterLimit@12          004260ca f   gdi32:GDI32.dll
 0001:000250d0       _StrokeAndFillPath@4       004260d0 f   gdi32:GDI32.dll
 0001:000250d6       _StrokePath@4              004260d6 f   gdi32:GDI32.dll
 0001:000250dc       _WidenPath@4               004260dc f   gdi32:GDI32.dll
 0001:000250e2       _GdiComment@12             004260e2 f   gdi32:GDI32.dll
 0001:000250e8       _PlayEnhMetaFile@12        004260e8 f   gdi32:GDI32.dll
 0001:000250ee       _DeleteDC@4                004260ee f   gdi32:GDI32.dll
 0001:000250f4       _SaveDC@4                  004260f4 f   gdi32:GDI32.dll
 0001:000250fa       _RestoreDC@8               004260fa f   gdi32:GDI32.dll
 0001:00025100       _SelectPalette@12          00426100 f   gdi32:GDI32.dll
 0001:00025106       _SetBkMode@8               00426106 f   gdi32:GDI32.dll
 0001:0002510c       _SetPolyFillMode@8         0042610c f   gdi32:GDI32.dll
 0001:00025112       _SetROP2@8                 00426112 f   gdi32:GDI32.dll
 0001:00025118       _SetStretchBltMode@8       00426118 f   gdi32:GDI32.dll
 0001:0002511e       _SetMapMode@8              0042611e f   gdi32:GDI32.dll
 0001:00025124       _SetViewportOrgEx@16       00426124 f   gdi32:GDI32.dll
 0001:0002512a       _OffsetViewportOrgEx@16    0042612a f   gdi32:GDI32.dll
 0001:00025130       _SetViewportExtEx@16       00426130 f   gdi32:GDI32.dll
 0001:00025136       _ScaleViewportExtEx@24     00426136 f   gdi32:GDI32.dll
 0001:0002513c       _SetWindowOrgEx@16         0042613c f   gdi32:GDI32.dll
 0001:00025142       _OffsetWindowOrgEx@16      00426142 f   gdi32:GDI32.dll
 0001:00025148       _SetWindowExtEx@16         00426148 f   gdi32:GDI32.dll
 0001:0002514e       _ScaleWindowExtEx@24       0042614e f   gdi32:GDI32.dll
 0001:00025154       _SelectClipRgn@8           00426154 f   gdi32:GDI32.dll
 0001:0002515a       _ExcludeClipRect@20        0042615a f   gdi32:GDI32.dll
 0001:00025160       _IntersectClipRect@20      00426160 f   gdi32:GDI32.dll
 0001:00025166       _OffsetClipRgn@12          00426166 f   gdi32:GDI32.dll
 0001:0002516c       _MoveToEx@16               0042616c f   gdi32:GDI32.dll
 0001:00025172       _LineTo@12                 00426172 f   gdi32:GDI32.dll
 0001:00025178       _SetTextAlign@8            00426178 f   gdi32:GDI32.dll
 0001:0002517e       _SetTextJustification@12   0042617e f   gdi32:GDI32.dll
 0001:00025184       _SetTextCharacterExtra@8   00426184 f   gdi32:GDI32.dll
 0001:0002518a       _SetMapperFlags@8          0042618a f   gdi32:GDI32.dll
 0001:00025190       _ArcTo@36                  00426190 f   gdi32:GDI32.dll
 0001:00025196       _SetArcDirection@8         00426196 f   gdi32:GDI32.dll
 0001:0002519c       _PolyDraw@16               0042619c f   gdi32:GDI32.dll
 0001:000251a2       _PolylineTo@12             004261a2 f   gdi32:GDI32.dll
 0001:000251a8       _SetColorAdjustment@8      004261a8 f   gdi32:GDI32.dll
 0001:000251ae       _PolyBezierTo@12           004261ae f   gdi32:GDI32.dll
 0001:000251b4       _DeleteObject@4            004261b4 f   gdi32:GDI32.dll
 0001:000251ba       _GetClipRgn@8              004261ba f   gdi32:GDI32.dll
 0001:000251c0       _SelectClipPath@8          004261c0 f   gdi32:GDI32.dll
 0001:000251c6       _ExtSelectClipRgn@12       004261c6 f   gdi32:GDI32.dll
 0001:000251cc       _PlayMetaFileRecord@16     004261cc f   gdi32:GDI32.dll
 0001:000251d2       _EnumMetaFile@16           004261d2 f   gdi32:GDI32.dll
 0001:000251d8       _PlayMetaFile@8            004261d8 f   gdi32:GDI32.dll
 0001:000251de       _CreateMetaFileA@4         004261de f   gdi32:GDI32.dll
 0001:000251e4       _CloseMetaFile@4           004261e4 f   gdi32:GDI32.dll
 0001:000251ea       _CreateEnhMetaFileA@16     004261ea f   gdi32:GDI32.dll
 0001:000251f0       _CloseEnhMetaFile@4        004261f0 f   gdi32:GDI32.dll
 0001:000251f6       _StretchDIBits@52          004261f6 f   gdi32:GDI32.dll
 0001:000251fc       _GetSaveFileNameA@4        004261fc f   comdlg32:comdlg32.dll
 0001:00025202       _GetOpenFileNameA@4        00426202 f   comdlg32:comdlg32.dll
 0001:00025208       _ChooseColorA@4            00426208 f   comdlg32:comdlg32.dll
 0001:0002520e       _GetFileTitleA@12          0042620e f   comdlg32:comdlg32.dll
 0001:00025214       _ClosePrinter@4            00426214 f   winspool:WINSPOOL.DRV
 0001:0002521a       _DocumentPropertiesA@24    0042621a f   winspool:WINSPOOL.DRV
 0001:00025220       _OpenPrinterA@12           00426220 f   winspool:WINSPOOL.DRV
 0001:00025226       _RegCloseKey@4             00426226 f   advapi32:ADVAPI32.dll
 0001:0002522c       _RegCreateKeyExA@36        0042622c f   advapi32:ADVAPI32.dll
 0001:00025232       _RegOpenKeyExA@20          00426232 f   advapi32:ADVAPI32.dll
 0001:00025238       _RegQueryValueExA@24       00426238 f   advapi32:ADVAPI32.dll
 0001:0002523e       _RegSetValueExA@24         0042623e f   advapi32:ADVAPI32.dll
 0001:00025244       _RegDeleteValueA@8         00426244 f   advapi32:ADVAPI32.dll
 0001:0002524a       _RegDeleteKeyA@8           0042624a f   advapi32:ADVAPI32.dll
 0001:00025250       _RegOpenKeyA@12            00426250 f   advapi32:ADVAPI32.dll
 0001:00025256       _RegEnumKeyA@16            00426256 f   advapi32:ADVAPI32.dll
 0001:0002525c       _RegCreateKeyA@12          0042625c f   advapi32:ADVAPI32.dll
 0001:00025262       _RegSetValueA@20           00426262 f   advapi32:ADVAPI32.dll
 0001:00025268       _RegQueryValueA@16         00426268 f   advapi32:ADVAPI32.dll
 0001:0002526e       _SetFileSecurityA@12       0042626e f   advapi32:ADVAPI32.dll
 0001:00025274       _GetFileSecurityA@20       00426274 f   advapi32:ADVAPI32.dll
 0001:0002527a       _DragAcceptFiles@8         0042627a f   shell32:SHELL32.dll
 0001:00025280       _DragFinish@4              00426280 f   shell32:SHELL32.dll
 0001:00025286       _DragQueryFileA@16         00426286 f   shell32:SHELL32.dll
 0001:0002528c       _SHGetFileInfoA@20         0042628c f   shell32:SHELL32.dll
 0001:00025292       _ExtractIconA@12           00426292 f   shell32:SHELL32.dll
 0001:00025298       _InitCommonControls@0      00426298 f   comctl32:COMCTL32.dll
 0001:0002529e       _CreateMappedBitmap@20     0042629e f   comctl32:COMCTL32.dll
 0001:000252a4       _PropertySheetA@4          004262a4 f   comctl32:COMCTL32.dll
 0001:000252aa       _DestroyPropertySheetPage@4 004262aa f   comctl32:COMCTL32.dll
 0001:000252b0       _CreatePropertySheetPageA@4 004262b0 f   comctl32:COMCTL32.dll
 0001:000252b6       _MakeDragList@4            004262b6 f   comctl32:COMCTL32.dll
 0001:000252bc       _ImageList_Destroy@4       004262bc f   comctl32:COMCTL32.dll
 0001:000252c2       _ImageList_Create@20       004262c2 f   comctl32:COMCTL32.dll
 0001:000252c8       _ImageList_LoadImageA@28   004262c8 f   comctl32:COMCTL32.dll
 0001:000252ce       _ImageList_Merge@24        004262ce f   comctl32:COMCTL32.dll
 0001:000252d4       _ImageList_Read@4          004262d4 f   comctl32:COMCTL32.dll
 0001:000252da       _ImageList_Write@8         004262da f   comctl32:COMCTL32.dll
 0001:000252e0       _LBItemFromPt@16           004262e0 f   comctl32:COMCTL32.dll
 0001:000252e6       _ImageList_GetImageCount@4 004262e6 f   comctl32:COMCTL32.dll
 0001:000252ec       _ImageList_Add@12          004262ec f   comctl32:COMCTL32.dll
 0001:000252f2       _ImageList_AddMasked@12    004262f2 f   comctl32:COMCTL32.dll
 0001:000252f8       _ImageList_Remove@8        004262f8 f   comctl32:COMCTL32.dll
 0001:000252fe       _ImageList_Replace@16      004262fe f   comctl32:COMCTL32.dll
 0001:00025304       _ImageList_ReplaceIcon@12  00426304 f   comctl32:COMCTL32.dll
 0001:0002530a       _ImageList_GetIcon@12      0042630a f   comctl32:COMCTL32.dll
 0001:00025310       _ImageList_Draw@24         00426310 f   comctl32:COMCTL32.dll
 0001:00025316       _ImageList_SetBkColor@8    00426316 f   comctl32:COMCTL32.dll
 0001:0002531c       _ImageList_GetBkColor@4    0042631c f   comctl32:COMCTL32.dll
 0001:00025322       _ImageList_SetOverlayImage@12 00426322 f   comctl32:COMCTL32.dll
 0001:00025328       _ImageList_GetImageInfo@12 00426328 f   comctl32:COMCTL32.dll
 0001:0002532e       _ImageList_BeginDrag@16    0042632e f   comctl32:COMCTL32.dll
 0001:00025334       _ImageList_EndDrag@0       00426334 f   comctl32:COMCTL32.dll
 0001:0002533a       _ImageList_DragMove@8      0042633a f   comctl32:COMCTL32.dll
 0001:00025340       _ImageList_SetDragCursorImage@16 00426340 f   comctl32:COMCTL32.dll
 0001:00025346       _ImageList_DragShowNolock@4 00426346 f   comctl32:COMCTL32.dll
 0001:0002534c       _ImageList_GetDragImage@8  0042634c f   comctl32:COMCTL32.dll
 0001:00025352       _ImageList_DragEnter@12    00426352 f   comctl32:COMCTL32.dll
 0001:00025358       _ImageList_DragLeave@4     00426358 f   comctl32:COMCTL32.dll
 0001:00025360       ??6ostream@@QAEAAV0@PBX@Z  00426360 f   libcimtd:ostrptr.obj
 0001:00025400       ?opfx@ostream@@QAEHXZ      00426400 f   libcimtd:ostream.obj
 0001:000254b0       ?lock@ios@@QAAXXZ          004264b0 f i libcimtd:ostream.obj
 0001:000254d0       ?unlock@ios@@QAAXXZ        004264d0 f i libcimtd:ostream.obj
 0001:000254f0       ?lockptr@ios@@IAEPAU_CRT_CRITICAL_SECTION@@XZ 004264f0 f i libcimtd:ostream.obj
 0001:00025510       ?lockbuf@ios@@QAAXXZ       00426510 f i libcimtd:ostream.obj
 0001:00025520       ?lock@streambuf@@QAEXXZ    00426520 f i libcimtd:ostream.obj
 0001:00025550       ?lockptr@streambuf@@IAEPAU_CRT_CRITICAL_SECTION@@XZ 00426550 f i libcimtd:ostream.obj
 0001:00025570       ?osfx@ostream@@QAEXXZ      00426570 f   libcimtd:ostream.obj
 0001:00025690       ?unlockbuf@ios@@QAAXXZ     00426690 f i libcimtd:ostream.obj
 0001:000256a0       ?unlock@streambuf@@QAEXXZ  004266a0 f i libcimtd:ostream.obj
 0001:000256d0       ??6ostream@@QAEAAV0@PBD@Z  004266d0 f   libcimtd:ostream.obj
 0001:00025710       ?flush@ostream@@QAEAAV1@XZ 00426710 f   libcimtd:ostream.obj
 0001:000257c0       ??0ostream@@IAE@XZ         004267c0 f   libcimtd:ostream.obj
 0001:00025820       ??_Eostream@@UAEPAXI@Z     00426820 f i libcimtd:ostream.obj
 0001:00025820       ??_Gostream@@UAEPAXI@Z     00426820 f i libcimtd:ostream.obj
 0001:00025860       ??_Dostream@@QAEXXZ        00426860 f i libcimtd:ostream.obj
 0001:00025890       ??0ostream@@QAE@PAVstreambuf@@@Z 00426890 f   libcimtd:ostream.obj
 0001:00025930       ??0ostream@@IAE@ABV0@@Z    00426930 f   libcimtd:ostream.obj
 0001:000259e0       ?rdbuf@ios@@QBEPAVstreambuf@@XZ 004269e0 f i libcimtd:ostream.obj
 0001:00025a00       ??1ostream@@UAE@XZ         00426a00 f   libcimtd:ostream.obj
 0001:00025a20       ??4ostream@@IAEAAV0@PAVstreambuf@@@Z 00426a20 f   libcimtd:ostream.obj
 0001:00025b30       ?delbuf@ios@@QBEHXZ        00426b30 f i libcimtd:ostream.obj
 0001:00025b50       ?delbuf@ios@@QAEXH@Z       00426b50 f i libcimtd:ostream.obj
 0001:00025b70       ??0ostream_withassign@@QAE@XZ 00426b70 f   libcimtd:ostream.obj
 0001:00025c00       ??_Eostream_withassign@@UAEPAXI@Z 00426c00 f i libcimtd:ostream.obj
 0001:00025c00       ??_Gostream_withassign@@UAEPAXI@Z 00426c00 f i libcimtd:ostream.obj
 0001:00025c40       ??_Dostream_withassign@@QAEXXZ 00426c40 f i libcimtd:ostream.obj
 0001:00025c70       ??0ostream_withassign@@QAE@PAVstreambuf@@@Z 00426c70 f   libcimtd:ostream.obj
 0001:00025d00       ??1ostream_withassign@@UAE@XZ 00426d00 f   libcimtd:ostream.obj
 0001:00025d30       ?writepad@ostream@@AAEAAV1@PBD0@Z 00426d30 f   libcimtd:ostream.obj
 0001:00025f90       ?sputc@streambuf@@QAEHH@Z  00426f90 f i libcimtd:ostream.obj
 0001:00025ff0       ?sputn@streambuf@@QAEHPBDH@Z 00426ff0 f i libcimtd:ostream.obj
 0001:00026010       ??6ostream@@QAEAAV0@H@Z    00427010 f   libcimtd:ostrint.obj
 0001:00026140       ??6ostream@@QAEAAV0@E@Z    00427140 f   libcimtd:ostrchar.obj
 0001:00026210       __mtlockinit               00427210 f   libcimtd:mtlock.obj
 0001:00026220       __mtlockterm               00427220 f   libcimtd:mtlock.obj
 0001:00026230       __mtlock                   00427230 f   libcimtd:mtlock.obj
 0001:00026240       __mtunlock                 00427240 f   libcimtd:mtlock.obj
 0001:00026250       ??0ios@@IAE@XZ             00427250 f   libcimtd:_ios.obj
 0001:00026310       ??_Gios@@UAEPAXI@Z         00427310 f i libcimtd:_ios.obj
 0001:00026310       ??_Eios@@UAEPAXI@Z         00427310 f i libcimtd:_ios.obj
 0001:00026340       ??0ios@@QAE@PAVstreambuf@@@Z 00427340 f   libcimtd:_ios.obj
 0001:00026410       ??0ios@@IAE@ABV0@@Z        00427410 f   libcimtd:_ios.obj
 0001:00026490       ??1ios@@UAE@XZ             00427490 f   libcimtd:_ios.obj
 0001:00026540       ?init@ios@@IAEXPAVstreambuf@@@Z 00427540 f   libcimtd:_ios.obj
 0001:000265d0       ??4ios@@IAEAAV0@ABV0@@Z    004275d0 f   libcimtd:_ios.obj
 0001:00026660       ?flags@ios@@QBEJXZ         00427660 f i libcimtd:_ios.obj
 0001:00026680       ?width@ios@@QBEHXZ         00427680 f i libcimtd:_ios.obj
 0001:000266a0       ?tie@ios@@QBEPAVostream@@XZ 004276a0 f i libcimtd:_ios.obj
 0001:000266c0       ?fill@ios@@QBEDXZ          004276c0 f i libcimtd:_ios.obj
 0001:000266e0       ?precision@ios@@QBEHXZ     004276e0 f i libcimtd:_ios.obj
 0001:00026700       ?rdstate@ios@@QBEHXZ       00427700 f i libcimtd:_ios.obj
 0001:00026720       ?xalloc@ios@@SAHXZ         00427720 f   libcimtd:_ios.obj
 0001:00026760       ?lockc@ios@@KAXXZ          00427760 f i libcimtd:_ios.obj
 0001:00026780       ?unlockc@ios@@KAXXZ        00427780 f i libcimtd:_ios.obj
 0001:000267a0       ?bitalloc@ios@@SAJXZ       004277a0 f   libcimtd:_ios.obj
 0001:00026930       _CallWndProcFilterProc@12  00427930 f   ctl3d32s:CTL3D.OBJ
 0001:00026da0       _Ctl3dRegister@4           00427da0 f   ctl3d32s:CTL3D.OBJ
 0001:00026e10       _Ctl3dUnregister@4         00427e10 f   ctl3d32s:CTL3D.OBJ
 0001:00026ed0       _Ctl3dAutoSubclass@4       00427ed0 f   ctl3d32s:CTL3D.OBJ
 0001:00026ee0       _Ctl3dAutoSubclassEx@8     00427ee0 f   ctl3d32s:CTL3D.OBJ
 0001:00027020       _Ctl3dIsAutoSubclass@0     00428020 f   ctl3d32s:CTL3D.OBJ
 0001:00027050       _Ctl3dUnAutoSubclass@0     00428050 f   ctl3d32s:CTL3D.OBJ
 0001:000270f0       _Ctl3dSetStyle@12          004280f0 f   ctl3d32s:CTL3D.OBJ
 0001:00027100       _Ctl3dGetVer@0             00428100 f   ctl3d32s:CTL3D.OBJ
 0001:00027110       _Ctl3dEnabled@0            00428110 f   ctl3d32s:CTL3D.OBJ
 0001:00027120       _Ctl3dSubclassCtl@4        00428120 f   ctl3d32s:CTL3D.OBJ
 0001:00027150       _Ctl3dUnsubclassCtl@4      00428150 f   ctl3d32s:CTL3D.OBJ
 0001:00027260       _Ctl3dSubclassCtlEx@8      00428260 f   ctl3d32s:CTL3D.OBJ
 0001:000272f0       _Ctl3dSubclassDlg@8        004282f0 f   ctl3d32s:CTL3D.OBJ
 0001:00027400       _Ctl3dCheckSubclassDlg@8   00428400 f   ctl3d32s:CTL3D.OBJ
 0001:00027480       _Ctl3dSubclassDlgEx@8      00428480 f   ctl3d32s:CTL3D.OBJ
 0001:000274f0       _Ctl3dCtlColor@8           004284f0 f   ctl3d32s:CTL3D.OBJ
 0001:00027500       _Ctl3dCtlColorEx@12        00428500 f   ctl3d32s:CTL3D.OBJ
 0001:00027590       _Ctl3dColorChange@0        00428590 f   ctl3d32s:CTL3D.OBJ
 0001:000275c0       _Ctl3dDlgFramePaint@16     004285c0 f   ctl3d32s:CTL3D.OBJ
 0001:00027890       _Ctl3dWinIniChange@0       00428890 f   ctl3d32s:CTL3D.OBJ
 0001:00027d90       _Ctl3dDlgProc@16           00428d90 f   ctl3d32s:CTL3D.OBJ
 0001:00028100       _Ctl3dHook@12              00429100 f   ctl3d32s:CTL3D.OBJ
 0001:00028f90       _BtnWndProc3d@16           00429f90 f   ctl3d32s:CTL3D.OBJ
 0001:00029270       _ListEditPaint3d           0042a270 f   ctl3d32s:CTL3D.OBJ
 0001:000295b0       _ShareEditComboWndProc3d   0042a5b0 f   ctl3d32s:CTL3D.OBJ
 0001:00029700       _EditWndProc3d@16          0042a700 f   ctl3d32s:CTL3D.OBJ
 0001:00029730       _SharedListWndProc         0042a730 f   ctl3d32s:CTL3D.OBJ
 0001:00029960       _ListWndProc3d@16          0042a960 f   ctl3d32s:CTL3D.OBJ
 0001:00029990       _ComboWndProc3d@16         0042a990 f   ctl3d32s:CTL3D.OBJ
 0001:000299e0       _StaticPrint               0042a9e0 f   ctl3d32s:CTL3D.OBJ
 0001:00029ac0       _StaticPaint               0042aac0 f   ctl3d32s:CTL3D.OBJ
 0001:00029c60       _StaticWndProc3d@16        0042ac60 f   ctl3d32s:CTL3D.OBJ
 0001:00029db0       _LibMain                   0042adb0 f   ctl3d32s:CTL3D.OBJ
 0001:00029e80       _LoadUIBitmap@32           0042ae80 f   ctl3d32s:CTL3D.OBJ
 0001:0002a020       _WinMain@16                0042b020 f   nafxcwd:appmodul.obj
 0001:0002a03c       ?AfxInitialize@@YGHHK@Z    0042b03c f   nafxcwd:appmodul.obj
 0001:0002a092       ?_AfxTermAppState@@YAXXZ   0042b092 f   nafxcwd:appmodul.obj
 0001:0002a0e0       __strnset                  0042b0e0 f   libcmtd:strnset.obj
 0001:0002a0e0       _strnset                   0042b0e0 f   libcmtd:strnset.obj
 0001:0002a10a       _GetProfileStringA@20      0042b10a f   kernel32:KERNEL32.dll
 0001:0002a110       _IsWindowUnicode@4         0042b110 f   user32:USER32.dll
 0001:0002a116       _CharNextA@4               0042b116 f   user32:USER32.dll
 0001:0002a11c       _DefDlgProcA@16            0042b11c f   user32:USER32.dll
 0001:0002a122       _UnregisterClassA@8        0042b122 f   user32:USER32.dll
 0001:0002a128       _GetTextExtentPointA@16    0042b128 f   gdi32:GDI32.dll
 0001:0002a12e       _CreateDIBitmap@24         0042b12e f   gdi32:GDI32.dll
 0001:00032db0       ?InitString@CSimpleException@@QAEXXZ 00433db0 f   nafxcwd:except.obj
 0001:00032dec       ?GetErrorMessage@CSimpleException@@UAEHPADIPAI@Z 00433dec f   nafxcwd:except.obj
 0001:00032e7c       ?AfxThrowMemoryException@@YGXXZ 00433e7c f   nafxcwd:except.obj
 0001:00032e99       ?AfxThrowNotSupportedException@@YGXXZ 00433e99 f   nafxcwd:except.obj
 0001:00032ec0       ?AfxDump@@YGXPBVCObject@@@Z 00433ec0 f   nafxcwd:dumpout.obj
 0001:00032ed5       ?AfxTrace@@YAXPBDZZ        00433ed5 f   nafxcwd:dumpout.obj
 0001:00032fd4       ?_AfxCrtDumpClient@@YAXPAXI@Z 00433fd4 f   nafxcwd:dumpinit.obj
 0001:00033146       ?_AfxCrtReportHook@@YAHHPADPAH@Z 00434146 f   nafxcwd:dumpinit.obj
 0001:000331a3       ??0_AFX_DEBUG_STATE@@QAE@XZ 004341a3 f   nafxcwd:dumpinit.obj
 0001:0003329d       ??1_AFX_DEBUG_STATE@@UAE@XZ 0043429d f   nafxcwd:dumpinit.obj
 0001:0003332e       ?AfxDiagnosticInit@@YGHXZ  0043432e f   nafxcwd:dumpinit.obj
 0001:00033370       ??_G_AFX_DEBUG_STATE@@UAEPAXI@Z 00434370 f i nafxcwd:dumpinit.obj
 0001:00033370       ??_E_AFX_DEBUG_STATE@@UAEPAXI@Z 00434370 f i nafxcwd:dumpinit.obj
 0001:000333a0       ??1?$CProcessLocal@V_AFX_DEBUG_STATE@@@@QAE@XZ 004343a0 f i nafxcwd:dumpinit.obj
 0001:000333c0       ?GetData@?$CProcessLocal@V_AFX_DEBUG_STATE@@@@QAEPAV_AFX_DEBUG_STATE@@XZ 004343c0 f i nafxcwd:dumpinit.obj
 0001:00033410       ?CreateObject@?$CProcessLocal@V_AFX_DEBUG_STATE@@@@SGPAVCNoTrackObject@@XZ 00434410 f i nafxcwd:dumpinit.obj
 0001:00033480       ?AfxIsValidString@@YGHPBGH@Z 00434480 f   nafxcwd:validadd.obj
 0001:000334c2       ?AfxIsValidString@@YGHPBDH@Z 004344c2 f   nafxcwd:validadd.obj
 0001:000334e6       ?AfxIsValidAddress@@YGHPBXIH@Z 004344e6 f   nafxcwd:validadd.obj
 0001:00033540       ??0CTime@@QAE@HHHHHHH@Z    00434540 f   nafxcwd:timecore.obj
 0001:00033621       ??0CTime@@QAE@GGH@Z        00434621 f   nafxcwd:timecore.obj
 0001:000336d9       ??0CTime@@QAE@ABU_SYSTEMTIME@@H@Z 004346d9 f   nafxcwd:timecore.obj
 0001:0003376f       ??0CTime@@QAE@ABU_FILETIME@@H@Z 0043476f f   nafxcwd:timecore.obj
 0001:000337d7       ?GetTickCount@CTime@@SG?AV1@XZ 004347d7 f   nafxcwd:timecore.obj
 0001:00033800       ?GetGmtTm@CTime@@QBEPAUtm@@PAU2@@Z 00434800 f   nafxcwd:timecore.obj
 0001:00033840       ?GetLocalTm@CTime@@QBEPAUtm@@PAU2@@Z 00434840 f   nafxcwd:timecore.obj
 0001:00033890       ?GetAsSystemTime@CTime@@QBEHAAU_SYSTEMTIME@@@Z 00434890 f   nafxcwd:timecore.obj
 0001:0003392b       ??6@YGAAVCDumpContext@@AAV0@VCTime@@@Z 0043492b f   nafxcwd:timecore.obj
 0001:000339a1       ??6@YGAAVCArchive@@AAV0@VCTime@@@Z 004349a1 f   nafxcwd:timecore.obj
 0001:000339b4       ??5@YGAAVCArchive@@AAV0@AAVCTime@@@Z 004349b4 f   nafxcwd:timecore.obj
 0001:000339c7       ??6@YGAAVCDumpContext@@AAV0@VCTimeSpan@@@Z 004349c7 f   nafxcwd:timecore.obj
 0001:00033a4b       ??6@YGAAVCArchive@@AAV0@VCTimeSpan@@@Z 00434a4b f   nafxcwd:timecore.obj
 0001:00033a5e       ??5@YGAAVCArchive@@AAV0@AAVCTimeSpan@@@Z 00434a5e f   nafxcwd:timecore.obj
 0001:00033a71       ?Format@CTimeSpan@@QBE?AVCString@@PBD@Z 00434a71 f   nafxcwd:timecore.obj
 0001:00033d55       ?Format@CTimeSpan@@QBE?AVCString@@I@Z 00434d55 f   nafxcwd:timecore.obj
 0001:00033df5       ?Format@CTime@@QBE?AVCString@@PBD@Z 00434df5 f   nafxcwd:timecore.obj
 0001:00033e74       ?FormatGmt@CTime@@QBE?AVCString@@PBD@Z 00434e74 f   nafxcwd:timecore.obj
 0001:00033ef3       ?Format@CTime@@QBE?AVCString@@I@Z 00434ef3 f   nafxcwd:timecore.obj
 0001:00033f93       ?FormatGmt@CTime@@QBE?AVCString@@I@Z 00434f93 f   nafxcwd:timecore.obj
 0001:00034040       ?GetMessageMap@CCommonDialog@@MBEPBUAFX_MSGMAP@@XZ 00435040 f   nafxcwd:dlgcomm.obj
 0001:00034050       ?_AfxCommDlgProc@@YGIPAUHWND__@@IIJ@Z 00435050 f   nafxcwd:dlgcomm.obj
 0001:000343af       ?OnOK@CCommonDialog@@MAEXXZ 004353af f   nafxcwd:dlgcomm.obj
 0001:000343f7       ?OnCancel@CCommonDialog@@MAEXXZ 004353f7 f   nafxcwd:dlgcomm.obj
 0001:0003441d       ?OnHelpInfo@CCommonDialog@@IAEHPAUtagHELPINFO@@@Z 0043541d f   nafxcwd:dlgcomm.obj
 0001:00034440       ??0CFileDialog@@QAE@HPBD0K0PAVCWnd@@@Z 00435440 f   nafxcwd:dlgfile.obj
 0001:0003464b       ?DoModal@CFileDialog@@UAEHXZ 0043564b f   nafxcwd:dlgfile.obj
 0001:00034886       ?GetPathName@CFileDialog@@QBE?AVCString@@XZ 00435886 f   nafxcwd:dlgfile.obj
 0001:000349fc       ?GetFileName@CFileDialog@@QBE?AVCString@@XZ 004359fc f   nafxcwd:dlgfile.obj
 0001:00034b2a       ?GetFileExt@CFileDialog@@QBE?AVCString@@XZ 00435b2a f   nafxcwd:dlgfile.obj
 0001:00034d47       ?GetFileTitle@CFileDialog@@QBE?AVCString@@XZ 00435d47 f   nafxcwd:dlgfile.obj
 0001:00034def       ?GetNextPathName@CFileDialog@@QBE?AVCString@@AAPAU__POSITION@@@Z 00435def f   nafxcwd:dlgfile.obj
 0001:00035178       ?SetTemplate@CFileDialog@@QAEXPBD0@Z 00436178 f   nafxcwd:dlgfile.obj
 0001:000351c7       ?GetFolderPath@CFileDialog@@QBE?AVCString@@XZ 004361c7 f   nafxcwd:dlgfile.obj
 0001:000352cc       ?SetControlText@CFileDialog@@QAEXHPBD@Z 004362cc f   nafxcwd:dlgfile.obj
 0001:00035353       ?HideControl@CFileDialog@@QAEXH@Z 00436353 f   nafxcwd:dlgfile.obj
 0001:000353d8       ?SetDefExt@CFileDialog@@QAEXPBD@Z 004363d8 f   nafxcwd:dlgfile.obj
 0001:0003545d       ?OnShareViolation@CFileDialog@@MAEIPBD@Z 0043645d f   nafxcwd:dlgfile.obj
 0001:0003547f       ?OnFileNameOK@CFileDialog@@MAEHXZ 0043647f f   nafxcwd:dlgfile.obj
 0001:0003549f       ?OnLBSelChangedNotify@CFileDialog@@MAEXIII@Z 0043649f f   nafxcwd:dlgfile.obj
 0001:000354bf       ?OnInitDone@CFileDialog@@MAEXXZ 004364bf f   nafxcwd:dlgfile.obj
 0001:000354ee       ?OnFileNameChange@CFileDialog@@MAEXXZ 004364ee f   nafxcwd:dlgfile.obj
 0001:0003550c       ?OnFolderChange@CFileDialog@@MAEXXZ 0043650c f   nafxcwd:dlgfile.obj
 0001:0003552a       ?OnTypeChange@CFileDialog@@MAEXXZ 0043652a f   nafxcwd:dlgfile.obj
 0001:00035548       ?OnNotify@CFileDialog@@MAEHIJPAJ@Z 00436548 f   nafxcwd:dlgfile.obj
 0001:000356b4       ?Dump@CFileDialog@@UBEXAAVCDumpContext@@@Z 004366b4 f   nafxcwd:dlgfile.obj
 0001:00035940       ??_ECFileDialog@@UAEPAXI@Z 00436940 f i nafxcwd:dlgfile.obj
 0001:00035940       ??_GCFileDialog@@UAEPAXI@Z 00436940 f i nafxcwd:dlgfile.obj
 0001:00035970       ??1CFileDialog@@UAE@XZ     00436970 f i nafxcwd:dlgfile.obj
 0001:000359c0       ?LoadBitmaps@CBitmapButton@@QAEHPBD000@Z 004369c0 f   nafxcwd:winbtn.obj
 0001:00035aa0       ?SizeToContent@CBitmapButton@@QAEXXZ 00436aa0 f   nafxcwd:winbtn.obj
 0001:00035b3b       ?AutoLoad@CBitmapButton@@QAEHIPAVCWnd@@@Z 00436b3b f   nafxcwd:winbtn.obj
 0001:00035ce5       ?DrawItem@CBitmapButton@@MAEXPAUtagDRAWITEMSTRUCT@@@Z 00436ce5 f   nafxcwd:winbtn.obj
 0001:00035e71       ?AssertValid@CBitmapButton@@UBEXXZ 00436e71 f   nafxcwd:winbtn.obj
 0001:00035ec0       ?Dump@CBitmapButton@@UBEXAAVCDumpContext@@@Z 00436ec0 f   nafxcwd:winbtn.obj
 0001:00035f60       ??0_AFX_COLOR_STATE@@QAE@XZ 00436f60 f   nafxcwd:dlgclr.obj
 0001:00035fa9       ?GetMessageMap@CColorDialog@@MBEPBUAFX_MSGMAP@@XZ 00436fa9 f   nafxcwd:dlgclr.obj
 0001:00035fb9       ??0CColorDialog@@QAE@KKPAVCWnd@@@Z 00436fb9 f   nafxcwd:dlgclr.obj
 0001:0003608f       ?DoModal@CColorDialog@@UAEHXZ 0043708f f   nafxcwd:dlgclr.obj
 0001:00036133       ?OnColorOK@CColorDialog@@MAEHXZ 00437133 f   nafxcwd:dlgclr.obj
 0001:00036150       ?SetCurrentColor@CColorDialog@@QAEXK@Z 00437150 f   nafxcwd:dlgclr.obj
 0001:000361a8       ?GetSavedCustomColors@CColorDialog@@SGPAKXZ 004371a8 f   nafxcwd:dlgclr.obj
 0001:000361ba       ?OnCtlColor@CColorDialog@@IAEPAUHBRUSH__@@PAVCDC@@PAVCWnd@@I@Z 004371ba f   nafxcwd:dlgclr.obj
 0001:000361cf       ?Dump@CColorDialog@@UBEXAAVCDumpContext@@@Z 004371cf f   nafxcwd:dlgclr.obj
 0001:000362c0       ??_G_AFX_COLOR_STATE@@UAEPAXI@Z 004372c0 f i nafxcwd:dlgclr.obj
 0001:000362c0       ??_E_AFX_COLOR_STATE@@UAEPAXI@Z 004372c0 f i nafxcwd:dlgclr.obj
 0001:000362f0       ??1_AFX_COLOR_STATE@@UAE@XZ 004372f0 f i nafxcwd:dlgclr.obj
 0001:00036310       ??_GCColorDialog@@UAEPAXI@Z 00437310 f i nafxcwd:dlgclr.obj
 0001:00036310       ??_ECColorDialog@@UAEPAXI@Z 00437310 f i nafxcwd:dlgclr.obj
 0001:00036340       ??1CColorDialog@@UAE@XZ    00437340 f i nafxcwd:dlgclr.obj
 0001:00036360       ??0CString@@QAE@DH@Z       00437360 f   nafxcwd:strex.obj
 0001:000363a1       ??0CString@@QAE@PBDH@Z     004373a1 f   nafxcwd:strex.obj
 0001:00036411       ??0CString@@QAE@PBGH@Z     00437411 f   nafxcwd:strex.obj
 0001:00036487       ??4CString@@QAEABV0@D@Z    00437487 f   nafxcwd:strex.obj
 0001:000364a5       ??H@YG?AVCString@@ABV0@D@Z 004374a5 f   nafxcwd:strex.obj
 0001:0003652a       ??H@YG?AVCString@@DABV0@@Z 0043752a f   nafxcwd:strex.obj
 0001:000365af       ?Delete@CString@@QAEHHH@Z  004375af f   nafxcwd:strex.obj
 0001:00036637       ?Insert@CString@@QAEHHD@Z  00437637 f   nafxcwd:strex.obj
 0001:00036718       ?Insert@CString@@QAEHHPBD@Z 00437718 f   nafxcwd:strex.obj
 0001:0003681f       ?Replace@CString@@QAEHDD@Z 0043781f f   nafxcwd:strex.obj
 0001:0003689d       ?Replace@CString@@QAEHPBD0@Z 0043789d f   nafxcwd:strex.obj
 0001:00036acb       ?Remove@CString@@QAEHD@Z   00437acb f   nafxcwd:strex.obj
 0001:00036b72       ?Mid@CString@@QBE?AV1@H@Z  00437b72 f   nafxcwd:strex.obj
 0001:00036bb2       ?Mid@CString@@QBE?AV1@HH@Z 00437bb2 f   nafxcwd:strex.obj
 0001:00036d0b       ?Right@CString@@QBE?AV1@H@Z 00437d0b f   nafxcwd:strex.obj
 0001:00036dca       ?Left@CString@@QBE?AV1@H@Z 00437dca f   nafxcwd:strex.obj
 0001:00036e7c       ?SpanIncluding@CString@@QBE?AV1@PBD@Z 00437e7c f   nafxcwd:strex.obj
 0001:00036eeb       ?SpanExcluding@CString@@QBE?AV1@PBD@Z 00437eeb f   nafxcwd:strex.obj
 0001:00036f5a       ?ReverseFind@CString@@QBEHD@Z 00437f5a f   nafxcwd:strex.obj
 0001:00036fa0       ?Find@CString@@QBEHPBD@Z   00437fa0 f   nafxcwd:strex.obj
 0001:00036fbb       ?Find@CString@@QBEHPBDH@Z  00437fbb f   nafxcwd:strex.obj
 0001:00037049       ?FormatV@CString@@QAEXPBDPAD@Z 00438049 f   nafxcwd:strex.obj
 0001:000377dc       ?Format@CString@@QAAXPBDZZ 004387dc f   nafxcwd:strex.obj
 0001:00037830       ?Format@CString@@QAAXIZZ   00438830 f   nafxcwd:strex.obj
 0001:000378c9       ?FormatMessageA@CString@@QAAXPBDZZ 004388c9 f   nafxcwd:strex.obj
 0001:00037922       ?FormatMessageA@CString@@QAAXIZZ 00438922 f   nafxcwd:strex.obj
 0001:000379ed       ?TrimRight@CString@@QAEXPBD@Z 004389ed f   nafxcwd:strex.obj
 0001:00037a7b       ?TrimRight@CString@@QAEXD@Z 00438a7b f   nafxcwd:strex.obj
 0001:00037b00       ?TrimRight@CString@@QAEXXZ 00438b00 f   nafxcwd:strex.obj
 0001:00037b88       ?TrimLeft@CString@@QAEXPBD@Z 00438b88 f   nafxcwd:strex.obj
 0001:00037c36       ?TrimLeft@CString@@QAEXD@Z 00438c36 f   nafxcwd:strex.obj
 0001:00037cbd       ?TrimLeft@CString@@QAEXXZ  00438cbd f   nafxcwd:strex.obj
 0001:00037d47       ?ConstructElements@@YGXPAVCString@@H@Z 00438d47 f   nafxcwd:strex.obj
 0001:00037dba       ?DestructElements@@YGXPAVCString@@H@Z 00438dba f   nafxcwd:strex.obj
 0001:00037e24       ?CopyElements@@YGXPAVCString@@PBV1@H@Z 00438e24 f   nafxcwd:strex.obj
 0001:00037ecf       ?HashKey@@YGIPBG@Z         00438ecf f   nafxcwd:strex.obj
 0001:00037f10       ?HashKey@@YGIPBD@Z         00438f10 f   nafxcwd:strex.obj
 0001:0003a3c0       ??1CDragListBox@@UAE@XZ    0043b3c0 f   nafxcwd:winctrl2.obj
 0001:0003a411       ?PreSubclassWindow@CDragListBox@@UAEXXZ 0043b411 f   nafxcwd:winctrl2.obj
 0001:0003a47d       ?BeginDrag@CDragListBox@@UAEHVCPoint@@@Z 0043b47d f   nafxcwd:winctrl2.obj
 0001:0003a4ba       ?CancelDrag@CDragListBox@@UAEXVCPoint@@@Z 0043b4ba f   nafxcwd:winctrl2.obj
 0001:0003a4d7       ?Dragging@CDragListBox@@UAEIVCPoint@@@Z 0043b4d7 f   nafxcwd:winctrl2.obj
 0001:0003a52f       ?Dropped@CDragListBox@@UAEXHVCPoint@@@Z 0043b52f f   nafxcwd:winctrl2.obj
 0001:0003a674       ?DrawInsert@CDragListBox@@UAEXH@Z 0043b674 f   nafxcwd:winctrl2.obj
 0001:0003a6b0       ?DrawSingle@CDragListBox@@QAEXH@Z 0043b6b0 f   nafxcwd:winctrl2.obj
 0001:0003a7b6       ?OnChildNotify@CDragListBox@@MAEHIIJPAJ@Z 0043b7b6 f   nafxcwd:winctrl2.obj
 0001:0003a91b       ?GetMessageMap@CToolBarCtrl@@MBEPBUAFX_MSGMAP@@XZ 0043b91b f   nafxcwd:winctrl2.obj
 0001:0003a92b       ?Create@CToolBarCtrl@@QAEHKABUtagRECT@@PAVCWnd@@I@Z 0043b92b f   nafxcwd:winctrl2.obj
 0001:0003a992       ??1CToolBarCtrl@@UAE@XZ    0043b992 f   nafxcwd:winctrl2.obj
 0001:0003a9e3       ?AddBitmap@CToolBarCtrl@@QAEHHPAVCBitmap@@@Z 0043b9e3 f   nafxcwd:winctrl2.obj
 0001:0003aa4f       ?AddBitmap@CToolBarCtrl@@QAEHHI@Z 0043ba4f f   nafxcwd:winctrl2.obj
 0001:0003aad7       ?SaveState@CToolBarCtrl@@QAEXPAUHKEY__@@PBD1@Z 0043bad7 f   nafxcwd:winctrl2.obj
 0001:0003ab41       ?RestoreState@CToolBarCtrl@@QAEXPAUHKEY__@@PBD1@Z 0043bb41 f   nafxcwd:winctrl2.obj
 0001:0003abab       ?AddString@CToolBarCtrl@@QAEHI@Z 0043bbab f   nafxcwd:winctrl2.obj
 0001:0003ac2d       ?OnCreate@CToolBarCtrl@@IAEHPAUtagCREATESTRUCTA@@@Z 0043bc2d f   nafxcwd:winctrl2.obj
 0001:0003ac5c       ?GetDropTarget@CToolBarCtrl@@QBEJPAPAUIDropTarget@@@Z 0043bc5c f   nafxcwd:winctrl2.obj
 0001:0003acd5       ?Create@CStatusBarCtrl@@QAEHKABUtagRECT@@PAVCWnd@@I@Z 0043bcd5 f   nafxcwd:winctrl2.obj
 0001:0003ad3c       ??1CStatusBarCtrl@@UAE@XZ  0043bd3c f   nafxcwd:winctrl2.obj
 0001:0003ad8d       ?GetText@CStatusBarCtrl@@QBEHPBDHPAH@Z 0043bd8d f   nafxcwd:winctrl2.obj
 0001:0003ae32       ?GetText@CStatusBarCtrl@@QBE?AVCString@@HPAH@Z 0043be32 f   nafxcwd:winctrl2.obj
 0001:0003af5e       ?GetTextLength@CStatusBarCtrl@@QBEHHPAH@Z 0043bf5e f   nafxcwd:winctrl2.obj
 0001:0003b001       ?GetTipText@CStatusBarCtrl@@QBE?AVCString@@H@Z 0043c001 f   nafxcwd:winctrl2.obj
 0001:0003b0c3       ?GetBorders@CStatusBarCtrl@@QBEHAAH00@Z 0043c0c3 f   nafxcwd:winctrl2.obj
 0001:0003b13f       ?DrawItem@CStatusBarCtrl@@UAEXPAUtagDRAWITEMSTRUCT@@@Z 0043c13f f   nafxcwd:winctrl2.obj
 0001:0003b175       ?OnChildNotify@CStatusBarCtrl@@MAEHIIJPAJ@Z 0043c175 f   nafxcwd:winctrl2.obj
 0001:0003b1df       ?GetMessageMap@CListCtrl@@MBEPBUAFX_MSGMAP@@XZ 0043c1df f   nafxcwd:winctrl2.obj
 0001:0003b1ef       ?Create@CListCtrl@@QAEHKABUtagRECT@@PAVCWnd@@I@Z 0043c1ef f   nafxcwd:winctrl2.obj
 0001:0003b256       ??1CListCtrl@@UAE@XZ       0043c256 f   nafxcwd:winctrl2.obj
 0001:0003b2a7       ?GetItemRect@CListCtrl@@QBEHHPAUtagRECT@@I@Z 0043c2a7 f   nafxcwd:winctrl2.obj
 0001:0003b307       ?SetItemCountEx@CListCtrl@@QAEHHK@Z 0043c307 f   nafxcwd:winctrl2.obj
 0001:0003b390       ?SetIconSpacing@CListCtrl@@QAE?AVCSize@@HH@Z 0043c390 f   nafxcwd:winctrl2.obj
 0001:0003b41a       ?SetIconSpacing@CListCtrl@@QAE?AVCSize@@V2@@Z 0043c41a f   nafxcwd:winctrl2.obj
 0001:0003b4a4       ?GetSubItemRect@CListCtrl@@QAEHHHHAAVCRect@@@Z 0043c4a4 f   nafxcwd:winctrl2.obj
 0001:0003b54e       ?InsertColumn@CListCtrl@@QAEHHPBDHHH@Z 0043c54e f   nafxcwd:winctrl2.obj
 0001:0003b5aa       ?InsertItem@CListCtrl@@QAEHIHPBDIIHJ@Z 0043c5aa f   nafxcwd:winctrl2.obj
 0001:0003b627       ?HitTest@CListCtrl@@QBEHVCPoint@@PAI@Z 0043c627 f   nafxcwd:winctrl2.obj
 0001:0003b69f       ?SetItem@CListCtrl@@QAEHHHIPBDHIIJ@Z 0043c69f f   nafxcwd:winctrl2.obj
 0001:0003b752       ?SetItemState@CListCtrl@@QAEHHII@Z 0043c752 f   nafxcwd:winctrl2.obj
 0001:0003b7b8       ?SetItemText@CListCtrl@@QAEHHHPBD@Z 0043c7b8 f   nafxcwd:winctrl2.obj
 0001:0003b849       ?GetItemText@CListCtrl@@QBE?AVCString@@HH@Z 0043c849 f   nafxcwd:winctrl2.obj
 0001:0003b94e       ?GetItemText@CListCtrl@@QBEHHHPADH@Z 0043c94e f   nafxcwd:winctrl2.obj
 0001:0003b9ca       ?GetItemData@CListCtrl@@QBEKH@Z 0043c9ca f   nafxcwd:winctrl2.obj
 0001:0003ba60       ?DrawItem@CListCtrl@@UAEXPAUtagDRAWITEMSTRUCT@@@Z 0043ca60 f   nafxcwd:winctrl2.obj
 0001:0003ba96       ?OnChildNotify@CListCtrl@@MAEHIIJPAJ@Z 0043ca96 f   nafxcwd:winctrl2.obj
 0001:0003bb00       ?RemoveImageList@CListCtrl@@IAEXH@Z 0043cb00 f   nafxcwd:winctrl2.obj
 0001:0003bb45       ?OnNcDestroy@CListCtrl@@IAEXXZ 0043cb45 f   nafxcwd:winctrl2.obj
 0001:0003bb76       ?CreateDragImage@CListCtrl@@QAEPAVCImageList@@HPAUtagPOINT@@@Z 0043cb76 f   nafxcwd:winctrl2.obj
 0001:0003bc71       ?GetMessageMap@CTreeCtrl@@MBEPBUAFX_MSGMAP@@XZ 0043cc71 f   nafxcwd:winctrl2.obj
 0001:0003bc81       ?Create@CTreeCtrl@@QAEHKABUtagRECT@@PAVCWnd@@I@Z 0043cc81 f   nafxcwd:winctrl2.obj
 0001:0003bce8       ??1CTreeCtrl@@UAE@XZ       0043cce8 f   nafxcwd:winctrl2.obj
 0001:0003bd39       ?GetItemRect@CTreeCtrl@@QBEHPAU_TREEITEM@@PAUtagRECT@@H@Z 0043cd39 f   nafxcwd:winctrl2.obj
 0001:0003bd99       ?GetItemText@CTreeCtrl@@QBE?AVCString@@PAU_TREEITEM@@@Z 0043cd99 f   nafxcwd:winctrl2.obj
 0001:0003be9d       ?GetItemImage@CTreeCtrl@@QBEHPAU_TREEITEM@@AAH1@Z 0043ce9d f   nafxcwd:winctrl2.obj
 0001:0003bf1e       ?GetItemState@CTreeCtrl@@QBEIPAU_TREEITEM@@I@Z 0043cf1e f   nafxcwd:winctrl2.obj
 0001:0003bfb1       ?GetItemData@CTreeCtrl@@QBEKPAU_TREEITEM@@@Z 0043cfb1 f   nafxcwd:winctrl2.obj
 0001:0003c037       ?ItemHasChildren@CTreeCtrl@@QBEHPAU_TREEITEM@@@Z 0043d037 f   nafxcwd:winctrl2.obj
 0001:0003c09f       ?SetItem@CTreeCtrl@@QAEHPAU_TREEITEM@@IPBDHHIIJ@Z 0043d09f f   nafxcwd:winctrl2.obj
 0001:0003c127       ?InsertItem@CTreeCtrl@@QAEPAU_TREEITEM@@IPBDHHIIJPAU2@1@Z 0043d127 f   nafxcwd:winctrl2.obj
 0001:0003c1b5       ?HitTest@CTreeCtrl@@QBEPAU_TREEITEM@@VCPoint@@PAI@Z 0043d1b5 f   nafxcwd:winctrl2.obj
 0001:0003c22d       ?RemoveImageList@CTreeCtrl@@IAEXH@Z 0043d22d f   nafxcwd:winctrl2.obj
 0001:0003c272       ?OnDestroy@CTreeCtrl@@QAEXXZ 0043d272 f   nafxcwd:winctrl2.obj
 0001:0003c299       ?CreateDragImage@CTreeCtrl@@QAEPAVCImageList@@PAU_TREEITEM@@@Z 0043d299 f   nafxcwd:winctrl2.obj
 0001:0003c392       ?GetCheck@CTreeCtrl@@QBEHPAU_TREEITEM@@@Z 0043d392 f   nafxcwd:winctrl2.obj
 0001:0003c425       ?SetCheck@CTreeCtrl@@QAEHPAU_TREEITEM@@H@Z 0043d425 f   nafxcwd:winctrl2.obj
 0001:0003c4a1       ?Create@CSpinButtonCtrl@@QAEHKABUtagRECT@@PAVCWnd@@I@Z 0043d4a1 f   nafxcwd:winctrl2.obj
 0001:0003c505       ??1CSpinButtonCtrl@@UAE@XZ 0043d505 f   nafxcwd:winctrl2.obj
 0001:0003c556       ?GetRange@CSpinButtonCtrl@@QBEXAAH0@Z 0043d556 f   nafxcwd:winctrl2.obj
 0001:0003c5cc       ?Create@CSliderCtrl@@QAEHKABUtagRECT@@PAVCWnd@@I@Z 0043d5cc f   nafxcwd:winctrl2.obj
 0001:0003c633       ??1CSliderCtrl@@UAE@XZ     0043d633 f   nafxcwd:winctrl2.obj
 0001:0003c684       ?GetRange@CSliderCtrl@@QBEXAAH0@Z 0043d684 f   nafxcwd:winctrl2.obj
 0001:0003c6dc       ?SetRange@CSliderCtrl@@QAEXHHH@Z 0043d6dc f   nafxcwd:winctrl2.obj
 0001:0003c709       ?GetSelection@CSliderCtrl@@QBEXAAH0@Z 0043d709 f   nafxcwd:winctrl2.obj
 0001:0003c77d       ?SetSelection@CSliderCtrl@@QAEXHH@Z 0043d77d f   nafxcwd:winctrl2.obj
 0001:0003c7eb       ?Create@CProgressCtrl@@QAEHKABUtagRECT@@PAVCWnd@@I@Z 0043d7eb f   nafxcwd:winctrl2.obj
 0001:0003c852       ??1CProgressCtrl@@UAE@XZ   0043d852 f   nafxcwd:winctrl2.obj
 0001:0003c8a3       ?Create@CHeaderCtrl@@QAEHKABUtagRECT@@PAVCWnd@@I@Z 0043d8a3 f   nafxcwd:winctrl2.obj
 0001:0003c90a       ??1CHeaderCtrl@@UAE@XZ     0043d90a f   nafxcwd:winctrl2.obj
 0001:0003c95b       ?DrawItem@CHeaderCtrl@@UAEXPAUtagDRAWITEMSTRUCT@@@Z 0043d95b f   nafxcwd:winctrl2.obj
 0001:0003c991       ?OnChildNotify@CHeaderCtrl@@MAEHIIJPAJ@Z 0043d991 f   nafxcwd:winctrl2.obj
 0001:0003c9fb       ?Create@CHotKeyCtrl@@QAEHKABUtagRECT@@PAVCWnd@@I@Z 0043d9fb f   nafxcwd:winctrl2.obj
 0001:0003ca62       ??1CHotKeyCtrl@@UAE@XZ     0043da62 f   nafxcwd:winctrl2.obj
 0001:0003cab3       ?GetHotKey@CHotKeyCtrl@@QBEXAAG0@Z 0043dab3 f   nafxcwd:winctrl2.obj
 0001:0003cb34       ?GetMessageMap@CTabCtrl@@MBEPBUAFX_MSGMAP@@XZ 0043db34 f   nafxcwd:winctrl2.obj
 0001:0003cb44       ?Create@CTabCtrl@@QAEHKABUtagRECT@@PAVCWnd@@I@Z 0043db44 f   nafxcwd:winctrl2.obj
 0001:0003cbab       ??1CTabCtrl@@UAE@XZ        0043dbab f   nafxcwd:winctrl2.obj
 0001:0003cbfc       ?DrawItem@CTabCtrl@@UAEXPAUtagDRAWITEMSTRUCT@@@Z 0043dbfc f   nafxcwd:winctrl2.obj
 0001:0003cc32       ?OnChildNotify@CTabCtrl@@MAEHIIJPAJ@Z 0043dc32 f   nafxcwd:winctrl2.obj
 0001:0003cc9c       ?OnDestroy@CTabCtrl@@IAEXXZ 0043dc9c f   nafxcwd:winctrl2.obj
 0001:0003cce3       ?GetItemState@CTabCtrl@@QBEKHK@Z 0043dce3 f   nafxcwd:winctrl2.obj
 0001:0003cd6b       ?SetItemState@CTabCtrl@@QAEHHKK@Z 0043dd6b f   nafxcwd:winctrl2.obj
 0001:0003cdd8       ?InsertItem@CTabCtrl@@QAEHIHPBDHJ@Z 0043ddd8 f   nafxcwd:winctrl2.obj
 0001:0003ce4a       ?InsertItem@CTabCtrl@@QAEHIHPBDHJKK@Z 0043de4a f   nafxcwd:winctrl2.obj
 0001:0003cec8       ?Create@CAnimateCtrl@@QAEHKABUtagRECT@@PAVCWnd@@I@Z 0043dec8 f   nafxcwd:winctrl2.obj
 0001:0003cf2f       ??1CAnimateCtrl@@UAE@XZ    0043df2f f   nafxcwd:winctrl2.obj
 0001:0003cf80       ??1CRichEditCtrl@@UAE@XZ   0043df80 f   nafxcwd:winctrl2.obj
 0001:0003cfd1       ?afxMapHIMAGELIST@@YGPAVCHandleMap@@H@Z 0043dfd1 f   nafxcwd:winctrl2.obj
 0001:0003d0a1       ??0CImageList@@QAE@XZ      0043e0a1 f   nafxcwd:winctrl2.obj
 0001:0003d0ca       ??1CImageList@@UAE@XZ      0043e0ca f   nafxcwd:winctrl2.obj
 0001:0003d11b       ?Detach@CImageList@@QAEPAU_IMAGELIST@@XZ 0043e11b f   nafxcwd:winctrl2.obj
 0001:0003d163       ?DeleteImageList@CImageList@@QAEHXZ 0043e163 f   nafxcwd:winctrl2.obj
 0001:0003d18a       ?FromHandle@CImageList@@SGPAV1@PAU_IMAGELIST@@@Z 0043e18a f   nafxcwd:winctrl2.obj
 0001:0003d203       ?FromHandlePermanent@CImageList@@SGPAV1@PAU_IMAGELIST@@@Z 0043e203 f   nafxcwd:winctrl2.obj
 0001:0003d269       ?Create@CImageList@@QAEHHHIHH@Z 0043e269 f   nafxcwd:winctrl2.obj
 0001:0003d299       ?Create@CImageList@@QAEHIHHK@Z 0043e299 f   nafxcwd:winctrl2.obj
 0001:0003d32b       ?Create@CImageList@@QAEHPBDHHK@Z 0043e32b f   nafxcwd:winctrl2.obj
 0001:0003d38f       ?Create@CImageList@@QAEHAAV1@H0HHH@Z 0043e38f f   nafxcwd:winctrl2.obj
 0001:0003d3c9       ?Attach@CImageList@@QAEHPAU_IMAGELIST@@@Z 0043e3c9 f   nafxcwd:winctrl2.obj
 0001:0003d47a       ?Read@CImageList@@QAEHPAVCArchive@@@Z 0043e47a f   nafxcwd:winctrl2.obj
 0001:0003d51f       ?Write@CImageList@@QAEHPAVCArchive@@@Z 0043e51f f   nafxcwd:winctrl2.obj
 0001:0003d5b9       ?Dump@CImageList@@UBEXAAVCDumpContext@@@Z 0043e5b9 f   nafxcwd:winctrl2.obj
 0001:0003d5fa       ?AssertValid@CImageList@@UBEXXZ 0043e5fa f   nafxcwd:winctrl2.obj
 0001:0003d6b9       ??0CDragListBox@@QAE@XZ    0043e6b9 f   nafxcwd:winctrl2.obj
 0001:0003d6e2       ?ItemFromPt@CDragListBox@@QBEHVCPoint@@H@Z 0043e6e2 f   nafxcwd:winctrl2.obj
 0001:0003d744       ??0CToolBarCtrl@@QAE@XZ    0043e744 f   nafxcwd:winctrl2.obj
 0001:0003d763       ?EnableButton@CToolBarCtrl@@QAEHHH@Z 0043e763 f   nafxcwd:winctrl2.obj
 0001:0003d7bd       ?CheckButton@CToolBarCtrl@@QAEHHH@Z 0043e7bd f   nafxcwd:winctrl2.obj
 0001:0003d817       ?PressButton@CToolBarCtrl@@QAEHHH@Z 0043e817 f   nafxcwd:winctrl2.obj
 0001:0003d871       ?HideButton@CToolBarCtrl@@QAEHHH@Z 0043e871 f   nafxcwd:winctrl2.obj
 0001:0003d8cb       ?Indeterminate@CToolBarCtrl@@QAEHHH@Z 0043e8cb f   nafxcwd:winctrl2.obj
 0001:0003d925       ?IsButtonEnabled@CToolBarCtrl@@QBEHH@Z 0043e925 f   nafxcwd:winctrl2.obj
 0001:0003d978       ?IsButtonChecked@CToolBarCtrl@@QBEHH@Z 0043e978 f   nafxcwd:winctrl2.obj
 0001:0003d9cb       ?IsButtonPressed@CToolBarCtrl@@QBEHH@Z 0043e9cb f   nafxcwd:winctrl2.obj
 0001:0003da1e       ?IsButtonHidden@CToolBarCtrl@@QBEHH@Z 0043ea1e f   nafxcwd:winctrl2.obj
 0001:0003da71       ?IsButtonIndeterminate@CToolBarCtrl@@QBEHH@Z 0043ea71 f   nafxcwd:winctrl2.obj
 0001:0003dac4       ?SetState@CToolBarCtrl@@QAEHHI@Z 0043eac4 f   nafxcwd:winctrl2.obj
 0001:0003db1e       ?GetState@CToolBarCtrl@@QBEHH@Z 0043eb1e f   nafxcwd:winctrl2.obj
 0001:0003db71       ?AddButtons@CToolBarCtrl@@QAEHHPAU_TBBUTTON@@@Z 0043eb71 f   nafxcwd:winctrl2.obj
 0001:0003dbc6       ?InsertButton@CToolBarCtrl@@QAEHHPAU_TBBUTTON@@@Z 0043ebc6 f   nafxcwd:winctrl2.obj
 0001:0003dc1b       ?DeleteButton@CToolBarCtrl@@QAEHH@Z 0043ec1b f   nafxcwd:winctrl2.obj
 0001:0003dc6e       ?GetButton@CToolBarCtrl@@QBEHHPAU_TBBUTTON@@@Z 0043ec6e f   nafxcwd:winctrl2.obj
 0001:0003dcc3       ?GetButtonCount@CToolBarCtrl@@QBEHXZ 0043ecc3 f   nafxcwd:winctrl2.obj
 0001:0003dd12       ?CommandToIndex@CToolBarCtrl@@QBEII@Z 0043ed12 f   nafxcwd:winctrl2.obj
 0001:0003dd65       ?Customize@CToolBarCtrl@@QAEXXZ 0043ed65 f   nafxcwd:winctrl2.obj
 0001:0003ddb4       ?AddStrings@CToolBarCtrl@@QAEHPBD@Z 0043edb4 f   nafxcwd:winctrl2.obj
 0001:0003de07       ?GetItemRect@CToolBarCtrl@@QBEHHPAUtagRECT@@@Z 0043ee07 f   nafxcwd:winctrl2.obj
 0001:0003de5c       ?SetButtonStructSize@CToolBarCtrl@@QAEXH@Z 0043ee5c f   nafxcwd:winctrl2.obj
 0001:0003deaf       ?SetButtonSize@CToolBarCtrl@@QAEHVCSize@@@Z 0043eeaf f   nafxcwd:winctrl2.obj
 0001:0003df15       ?SetBitmapSize@CToolBarCtrl@@QAEHVCSize@@@Z 0043ef15 f   nafxcwd:winctrl2.obj
 0001:0003df7b       ?AutoSize@CToolBarCtrl@@QAEXXZ 0043ef7b f   nafxcwd:winctrl2.obj
 0001:0003dfca       ?GetToolTips@CToolBarCtrl@@QBEPAVCToolTipCtrl@@XZ 0043efca f   nafxcwd:winctrl2.obj
 0001:0003e01f       ?SetToolTips@CToolBarCtrl@@QAEXPAVCToolTipCtrl@@@Z 0043f01f f   nafxcwd:winctrl2.obj
 0001:0003e077       ?SetOwner@CToolBarCtrl@@QAEXPAVCWnd@@@Z 0043f077 f   nafxcwd:winctrl2.obj
 0001:0003e0cf       ?SetRows@CToolBarCtrl@@QAEXHHPAUtagRECT@@@Z 0043f0cf f   nafxcwd:winctrl2.obj
 0001:0003e138       ?GetRows@CToolBarCtrl@@QBEHXZ 0043f138 f   nafxcwd:winctrl2.obj
 0001:0003e187       ?SetCmdID@CToolBarCtrl@@QAEHHI@Z 0043f187 f   nafxcwd:winctrl2.obj
 0001:0003e1dc       ?GetBitmapFlags@CToolBarCtrl@@QBEIXZ 0043f1dc f   nafxcwd:winctrl2.obj
 0001:0003e22b       ?HitTest@CToolBarCtrl@@QBEHPAUtagPOINT@@@Z 0043f22b f   nafxcwd:winctrl2.obj
 0001:0003e27e       ?GetExtendedStyle@CToolBarCtrl@@QBEKXZ 0043f27e f   nafxcwd:winctrl2.obj
 0001:0003e2cd       ?SetExtendedStyle@CToolBarCtrl@@QAEKK@Z 0043f2cd f   nafxcwd:winctrl2.obj
 0001:0003e320       ?GetInsertMarkColor@CToolBarCtrl@@QBEKXZ 0043f320 f   nafxcwd:winctrl2.obj
 0001:0003e36f       ?SetInsertMarkColor@CToolBarCtrl@@QAEKK@Z 0043f36f f   nafxcwd:winctrl2.obj
 0001:0003e3c2       ??0CStatusBarCtrl@@QAE@XZ  0043f3c2 f   nafxcwd:winctrl2.obj
 0001:0003e3e1       ?SetText@CStatusBarCtrl@@QAEHPBDHH@Z 0043f3e1 f   nafxcwd:winctrl2.obj
 0001:0003e459       ?SetParts@CStatusBarCtrl@@QAEHHPAH@Z 0043f459 f   nafxcwd:winctrl2.obj
 0001:0003e4ae       ?GetParts@CStatusBarCtrl@@QBEHHPAH@Z 0043f4ae f   nafxcwd:winctrl2.obj
 0001:0003e503       ?GetBorders@CStatusBarCtrl@@QBEHPAH@Z 0043f503 f   nafxcwd:winctrl2.obj
 0001:0003e556       ?SetMinHeight@CStatusBarCtrl@@QAEXH@Z 0043f556 f   nafxcwd:winctrl2.obj
 0001:0003e5a9       ?SetSimple@CStatusBarCtrl@@QAEHH@Z 0043f5a9 f   nafxcwd:winctrl2.obj
 0001:0003e5fc       ?GetRect@CStatusBarCtrl@@QBEHHPAUtagRECT@@@Z 0043f5fc f   nafxcwd:winctrl2.obj
 0001:0003e651       ??0CListCtrl@@QAE@XZ       0043f651 f   nafxcwd:winctrl2.obj
 0001:0003e670       ?GetBkColor@CListCtrl@@QBEKXZ 0043f670 f   nafxcwd:winctrl2.obj
 0001:0003e6bf       ?SetBkColor@CListCtrl@@QAEHK@Z 0043f6bf f   nafxcwd:winctrl2.obj
 0001:0003e712       ?GetImageList@CListCtrl@@QBEPAVCImageList@@H@Z 0043f712 f   nafxcwd:winctrl2.obj
 0001:0003e76e       ?SetImageList@CListCtrl@@QAEPAVCImageList@@PAV2@H@Z 0043f76e f   nafxcwd:winctrl2.obj
 0001:0003e7d1       ?GetItemCount@CListCtrl@@QBEHXZ 0043f7d1 f   nafxcwd:winctrl2.obj
 0001:0003e823       ?GetItem@CListCtrl@@QBEHPAUtagLVITEMA@@@Z 0043f823 f   nafxcwd:winctrl2.obj
 0001:0003e879       ?SetItem@CListCtrl@@QAEHPBUtagLVITEMA@@@Z 0043f879 f   nafxcwd:winctrl2.obj
 0001:0003e8cf       ?SetItemData@CListCtrl@@QAEHHK@Z 0043f8cf f   nafxcwd:winctrl2.obj
 0001:0003e929       ?InsertItem@CListCtrl@@QAEHPBUtagLVITEMA@@@Z 0043f929 f   nafxcwd:winctrl2.obj
 0001:0003e97f       ?InsertItem@CListCtrl@@QAEHHPBD@Z 0043f97f f   nafxcwd:winctrl2.obj
 0001:0003e9d7       ?InsertItem@CListCtrl@@QAEHHPBDH@Z 0043f9d7 f   nafxcwd:winctrl2.obj
 0001:0003ea31       ?DeleteItem@CListCtrl@@QAEHH@Z 0043fa31 f   nafxcwd:winctrl2.obj
 0001:0003ea87       ?DeleteAllItems@CListCtrl@@QAEHXZ 0043fa87 f   nafxcwd:winctrl2.obj
 0001:0003ead9       ?GetCallbackMask@CListCtrl@@QBEIXZ 0043fad9 f   nafxcwd:winctrl2.obj
 0001:0003eb2b       ?SetCallbackMask@CListCtrl@@QAEHI@Z 0043fb2b f   nafxcwd:winctrl2.obj
 0001:0003eb81       ?GetNextItem@CListCtrl@@QBEHHH@Z 0043fb81 f   nafxcwd:winctrl2.obj
 0001:0003ebde       ?GetFirstSelectedItemPosition@CListCtrl@@QBEPAU__POSITION@@XZ 0043fbde f   nafxcwd:winctrl2.obj
 0001:0003ec29       ?GetNextSelectedItem@CListCtrl@@QBEHAAPAU__POSITION@@@Z 0043fc29 f   nafxcwd:winctrl2.obj
 0001:0003ec8d       ?FindItem@CListCtrl@@QBEHPAUtagLVFINDINFOA@@H@Z 0043fc8d f   nafxcwd:winctrl2.obj
 0001:0003ece5       ?HitTest@CListCtrl@@QBEHPAUtagLVHITTESTINFO@@@Z 0043fce5 f   nafxcwd:winctrl2.obj
 0001:0003ed3b       ?SetItemPosition@CListCtrl@@QAEHHUtagPOINT@@@Z 0043fd3b f   nafxcwd:winctrl2.obj
 0001:0003edbe       ?GetItemPosition@CListCtrl@@QBEHHPAUtagPOINT@@@Z 0043fdbe f   nafxcwd:winctrl2.obj
 0001:0003ee16       ?GetStringWidth@CListCtrl@@QBEHPBD@Z 0043fe16 f   nafxcwd:winctrl2.obj
 0001:0003ee6c       ?EnsureVisible@CListCtrl@@QAEHHH@Z 0043fe6c f   nafxcwd:winctrl2.obj
 0001:0003eec9       ?Scroll@CListCtrl@@QAEHVCSize@@@Z 0043fec9 f   nafxcwd:winctrl2.obj
 0001:0003ef21       ?RedrawItems@CListCtrl@@QAEHHH@Z 0043ff21 f   nafxcwd:winctrl2.obj
 0001:0003ef79       ?Arrange@CListCtrl@@QAEHI@Z 0043ff79 f   nafxcwd:winctrl2.obj
 0001:0003efcf       ?EditLabel@CListCtrl@@QAEPAVCEdit@@H@Z 0043ffcf f   nafxcwd:winctrl2.obj
 0001:0003f02b       ?GetEditControl@CListCtrl@@QBEPAVCEdit@@XZ 0044002b f   nafxcwd:winctrl2.obj
 0001:0003f083       ?GetColumn@CListCtrl@@QBEHHPAUtagLVCOLUMNA@@@Z 00440083 f   nafxcwd:winctrl2.obj
 0001:0003f0db       ?SetColumn@CListCtrl@@QAEHHPBUtagLVCOLUMNA@@@Z 004400db f   nafxcwd:winctrl2.obj
 0001:0003f133       ?InsertColumn@CListCtrl@@QAEHHPBUtagLVCOLUMNA@@@Z 00440133 f   nafxcwd:winctrl2.obj
 0001:0003f18b       ?DeleteColumn@CListCtrl@@QAEHH@Z 0044018b f   nafxcwd:winctrl2.obj
 0001:0003f1e1       ?GetColumnWidth@CListCtrl@@QBEHH@Z 004401e1 f   nafxcwd:winctrl2.obj
 0001:0003f237       ?SetColumnWidth@CListCtrl@@QAEHHH@Z 00440237 f   nafxcwd:winctrl2.obj
 0001:0003f294       ?GetViewRect@CListCtrl@@QBEHPAUtagRECT@@@Z 00440294 f   nafxcwd:winctrl2.obj
 0001:0003f2ea       ?GetTextColor@CListCtrl@@QBEKXZ 004402ea f   nafxcwd:winctrl2.obj
 0001:0003f33c       ?SetTextColor@CListCtrl@@QAEHK@Z 0044033c f   nafxcwd:winctrl2.obj
 0001:0003f392       ?GetTextBkColor@CListCtrl@@QBEKXZ 00440392 f   nafxcwd:winctrl2.obj
 0001:0003f3e4       ?SetTextBkColor@CListCtrl@@QAEHK@Z 004403e4 f   nafxcwd:winctrl2.obj
 0001:0003f43a       ?GetTopIndex@CListCtrl@@QBEHXZ 0044043a f   nafxcwd:winctrl2.obj
 0001:0003f48c       ?GetCountPerPage@CListCtrl@@QBEHXZ 0044048c f   nafxcwd:winctrl2.obj
 0001:0003f4de       ?GetOrigin@CListCtrl@@QBEHPAUtagPOINT@@@Z 004404de f   nafxcwd:winctrl2.obj
 0001:0003f534       ?Update@CListCtrl@@QAEHH@Z 00440534 f   nafxcwd:winctrl2.obj
 0001:0003f58a       ?SetItemState@CListCtrl@@QAEHHPAUtagLVITEMA@@@Z 0044058a f   nafxcwd:winctrl2.obj
 0001:0003f5e2       ?GetItemState@CListCtrl@@QBEIHI@Z 004405e2 f   nafxcwd:winctrl2.obj
 0001:0003f63a       ?SetItemCount@CListCtrl@@QAEXH@Z 0044063a f   nafxcwd:winctrl2.obj
 0001:0003f690       ?SortItems@CListCtrl@@QAEHP6GHJJJ@ZK@Z 00440690 f   nafxcwd:winctrl2.obj
 0001:0003f713       ?GetSelectedCount@CListCtrl@@QBEIXZ 00440713 f   nafxcwd:winctrl2.obj
 0001:0003f765       ??0CTreeCtrl@@QAE@XZ       00440765 f   nafxcwd:winctrl2.obj
 0001:0003f784       ?InsertItem@CTreeCtrl@@QAEPAU_TREEITEM@@PAUtagTVINSERTSTRUCTA@@@Z 00440784 f   nafxcwd:winctrl2.obj
 0001:0003f7da       ?InsertItem@CTreeCtrl@@QAEPAU_TREEITEM@@PBDHHPAU2@1@Z 004407da f   nafxcwd:winctrl2.obj
 0001:0003f83c       ?InsertItem@CTreeCtrl@@QAEPAU_TREEITEM@@PBDPAU2@1@Z 0044083c f   nafxcwd:winctrl2.obj
 0001:0003f89a       ?DeleteItem@CTreeCtrl@@QAEHPAU_TREEITEM@@@Z 0044089a f   nafxcwd:winctrl2.obj
 0001:0003f8f0       ?DeleteAllItems@CTreeCtrl@@QAEHXZ 004408f0 f   nafxcwd:winctrl2.obj
 0001:0003f945       ?Expand@CTreeCtrl@@QAEHPAU_TREEITEM@@I@Z 00440945 f   nafxcwd:winctrl2.obj
 0001:0003f99d       ?GetCount@CTreeCtrl@@QBEIXZ 0044099d f   nafxcwd:winctrl2.obj
 0001:0003f9ef       ?GetIndent@CTreeCtrl@@QBEIXZ 004409ef f   nafxcwd:winctrl2.obj
 0001:0003fa41       ?SetIndent@CTreeCtrl@@QAEXI@Z 00440a41 f   nafxcwd:winctrl2.obj
 0001:0003fa97       ?GetImageList@CTreeCtrl@@QBEPAVCImageList@@I@Z 00440a97 f   nafxcwd:winctrl2.obj
 0001:0003faf3       ?SetImageList@CTreeCtrl@@QAEPAVCImageList@@PAV2@H@Z 00440af3 f   nafxcwd:winctrl2.obj
 0001:0003fb56       ?GetNextItem@CTreeCtrl@@QBEPAU_TREEITEM@@PAU2@I@Z 00440b56 f   nafxcwd:winctrl2.obj
 0001:0003fbae       ?GetChildItem@CTreeCtrl@@QBEPAU_TREEITEM@@PAU2@@Z 00440bae f   nafxcwd:winctrl2.obj
 0001:0003fc04       ?GetNextSiblingItem@CTreeCtrl@@QBEPAU_TREEITEM@@PAU2@@Z 00440c04 f   nafxcwd:winctrl2.obj
 0001:0003fc5a       ?GetPrevSiblingItem@CTreeCtrl@@QBEPAU_TREEITEM@@PAU2@@Z 00440c5a f   nafxcwd:winctrl2.obj
 0001:0003fcb0       ?GetParentItem@CTreeCtrl@@QBEPAU_TREEITEM@@PAU2@@Z 00440cb0 f   nafxcwd:winctrl2.obj
 0001:0003fd06       ?GetFirstVisibleItem@CTreeCtrl@@QBEPAU_TREEITEM@@XZ 00440d06 f   nafxcwd:winctrl2.obj
 0001:0003fd58       ?GetNextVisibleItem@CTreeCtrl@@QBEPAU_TREEITEM@@PAU2@@Z 00440d58 f   nafxcwd:winctrl2.obj
 0001:0003fdae       ?GetPrevVisibleItem@CTreeCtrl@@QBEPAU_TREEITEM@@PAU2@@Z 00440dae f   nafxcwd:winctrl2.obj
 0001:0003fe04       ?GetSelectedItem@CTreeCtrl@@QBEPAU_TREEITEM@@XZ 00440e04 f   nafxcwd:winctrl2.obj
 0001:0003fe56       ?GetDropHilightItem@CTreeCtrl@@QBEPAU_TREEITEM@@XZ 00440e56 f   nafxcwd:winctrl2.obj
 0001:0003fea8       ?GetRootItem@CTreeCtrl@@QBEPAU_TREEITEM@@XZ 00440ea8 f   nafxcwd:winctrl2.obj
 0001:0003fefa       ?Select@CTreeCtrl@@QAEHPAU_TREEITEM@@I@Z 00440efa f   nafxcwd:winctrl2.obj
 0001:0003ff52       ?SelectItem@CTreeCtrl@@QAEHPAU_TREEITEM@@@Z 00440f52 f   nafxcwd:winctrl2.obj
 0001:0003ffa8       ?SelectDropTarget@CTreeCtrl@@QAEHPAU_TREEITEM@@@Z 00440fa8 f   nafxcwd:winctrl2.obj
 0001:0003fffe       ?SelectSetFirstVisible@CTreeCtrl@@QAEHPAU_TREEITEM@@@Z 00440ffe f   nafxcwd:winctrl2.obj
 0001:00040054       ?GetItem@CTreeCtrl@@QBEHPAUtagTVITEMA@@@Z 00441054 f   nafxcwd:winctrl2.obj
 0001:000400aa       ?SetItem@CTreeCtrl@@QAEHPAUtagTVITEMA@@@Z 004410aa f   nafxcwd:winctrl2.obj
 0001:00040100       ?SetItemText@CTreeCtrl@@QAEHPAU_TREEITEM@@PBD@Z 00441100 f   nafxcwd:winctrl2.obj
 0001:0004015a       ?SetItemImage@CTreeCtrl@@QAEHPAU_TREEITEM@@HH@Z 0044115a f   nafxcwd:winctrl2.obj
 0001:000401b6       ?SetItemState@CTreeCtrl@@QAEHPAU_TREEITEM@@II@Z 004411b6 f   nafxcwd:winctrl2.obj
 0001:00040212       ?SetItemData@CTreeCtrl@@QAEHPAU_TREEITEM@@K@Z 00441212 f   nafxcwd:winctrl2.obj
 0001:0004026c       ?EditLabel@CTreeCtrl@@QAEPAVCEdit@@PAU_TREEITEM@@@Z 0044126c f   nafxcwd:winctrl2.obj
 0001:000402c8       ?HitTest@CTreeCtrl@@QBEPAU_TREEITEM@@PAUtagTVHITTESTINFO@@@Z 004412c8 f   nafxcwd:winctrl2.obj
 0001:0004031e       ?GetEditControl@CTreeCtrl@@QBEPAVCEdit@@XZ 0044131e f   nafxcwd:winctrl2.obj
 0001:00040376       ?GetVisibleCount@CTreeCtrl@@QBEIXZ 00441376 f   nafxcwd:winctrl2.obj
 0001:000403c8       ?SortChildren@CTreeCtrl@@QAEHPAU_TREEITEM@@@Z 004413c8 f   nafxcwd:winctrl2.obj
 0001:0004041e       ?EnsureVisible@CTreeCtrl@@QAEHPAU_TREEITEM@@@Z 0044141e f   nafxcwd:winctrl2.obj
 0001:00040474       ?SortChildrenCB@CTreeCtrl@@QAEHPAUtagTVSORTCB@@@Z 00441474 f   nafxcwd:winctrl2.obj
 0001:000404ca       ?GetToolTips@CTreeCtrl@@QBEPAVCToolTipCtrl@@XZ 004414ca f   nafxcwd:winctrl2.obj
 0001:00040522       ?SetToolTips@CTreeCtrl@@QAEPAVCToolTipCtrl@@PAV2@@Z 00441522 f   nafxcwd:winctrl2.obj
 0001:00040583       ?GetBkColor@CTreeCtrl@@QBEKXZ 00441583 f   nafxcwd:winctrl2.obj
 0001:000405d5       ?SetBkColor@CTreeCtrl@@QAEKK@Z 004415d5 f   nafxcwd:winctrl2.obj
 0001:0004062b       ?GetItemHeight@CTreeCtrl@@QBEFXZ 0044162b f   nafxcwd:winctrl2.obj
 0001:0004067d       ?SetItemHeight@CTreeCtrl@@QAEFF@Z 0044167d f   nafxcwd:winctrl2.obj
 0001:000406d4       ?GetTextColor@CTreeCtrl@@QBEKXZ 004416d4 f   nafxcwd:winctrl2.obj
 0001:00040726       ?SetTextColor@CTreeCtrl@@QAEKK@Z 00441726 f   nafxcwd:winctrl2.obj
 0001:0004077c       ?SetInsertMark@CTreeCtrl@@QAEHPAU_TREEITEM@@H@Z 0044177c f   nafxcwd:winctrl2.obj
 0001:000407d4       ?GetInsertMarkColor@CTreeCtrl@@QBEKXZ 004417d4 f   nafxcwd:winctrl2.obj
 0001:00040826       ?SetInsertMarkColor@CTreeCtrl@@QAEKK@Z 00441826 f   nafxcwd:winctrl2.obj
 0001:0004087c       ??0CHotKeyCtrl@@QAE@XZ     0044187c f   nafxcwd:winctrl2.obj
 0001:0004089b       ?SetHotKey@CHotKeyCtrl@@QAEXGG@Z 0044189b f   nafxcwd:winctrl2.obj
 0001:00040909       ?GetHotKey@CHotKeyCtrl@@QBEKXZ 00441909 f   nafxcwd:winctrl2.obj
 0001:0004095b       ?SetRules@CHotKeyCtrl@@QAEXGG@Z 0044195b f   nafxcwd:winctrl2.obj
 0001:000409be       ?Activate@CToolTipCtrl@@QAEXH@Z 004419be f   nafxcwd:winctrl2.obj
 0001:00040a14       ?SetToolInfo@CToolTipCtrl@@QAEXPAUtagTOOLINFOA@@@Z 00441a14 f   nafxcwd:winctrl2.obj
 0001:00040a6a       ?RelayEvent@CToolTipCtrl@@QAEXPAUtagMSG@@@Z 00441a6a f   nafxcwd:winctrl2.obj
 0001:00040ac0       ?GetToolCount@CToolTipCtrl@@QBEHXZ 00441ac0 f   nafxcwd:winctrl2.obj
 0001:00040b12       ??0CSpinButtonCtrl@@QAE@XZ 00441b12 f   nafxcwd:winctrl2.obj
 0001:00040b31       ?GetAccel@CSpinButtonCtrl@@QBEIHPAU_UDACCEL@@@Z 00441b31 f   nafxcwd:winctrl2.obj
 0001:00040b8e       ?GetBase@CSpinButtonCtrl@@QBEIXZ 00441b8e f   nafxcwd:winctrl2.obj
 0001:00040be5       ?GetBuddy@CSpinButtonCtrl@@QBEPAVCWnd@@XZ 00441be5 f   nafxcwd:winctrl2.obj
 0001:00040c3d       ?GetPos@CSpinButtonCtrl@@QBEHXZ 00441c3d f   nafxcwd:winctrl2.obj
 0001:00040c8f       ?GetRange@CSpinButtonCtrl@@QBEKXZ 00441c8f f   nafxcwd:winctrl2.obj
 0001:00040ce1       ?SetAccel@CSpinButtonCtrl@@QAEHHPAU_UDACCEL@@@Z 00441ce1 f   nafxcwd:winctrl2.obj
 0001:00040d3e       ?SetBase@CSpinButtonCtrl@@QAEHH@Z 00441d3e f   nafxcwd:winctrl2.obj
 0001:00040d94       ?SetBuddy@CSpinButtonCtrl@@QAEPAVCWnd@@PAV2@@Z 00441d94 f   nafxcwd:winctrl2.obj
 0001:00040df5       ?SetPos@CSpinButtonCtrl@@QAEHH@Z 00441df5 f   nafxcwd:winctrl2.obj
 0001:00040e53       ?SetRange@CSpinButtonCtrl@@QAEXHH@Z 00441e53 f   nafxcwd:winctrl2.obj
 0001:00040ebc       ??0CSliderCtrl@@QAE@XZ     00441ebc f   nafxcwd:winctrl2.obj
 0001:00040edb       ?GetLineSize@CSliderCtrl@@QBEHXZ 00441edb f   nafxcwd:winctrl2.obj
 0001:00040f2d       ?SetLineSize@CSliderCtrl@@QAEHH@Z 00441f2d f   nafxcwd:winctrl2.obj
 0001:00040f83       ?GetPageSize@CSliderCtrl@@QBEHXZ 00441f83 f   nafxcwd:winctrl2.obj
 0001:00040fd5       ?SetPageSize@CSliderCtrl@@QAEHH@Z 00441fd5 f   nafxcwd:winctrl2.obj
 0001:0004102b       ?GetRangeMax@CSliderCtrl@@QBEHXZ 0044202b f   nafxcwd:winctrl2.obj
 0001:0004107d       ?GetRangeMin@CSliderCtrl@@QBEHXZ 0044207d f   nafxcwd:winctrl2.obj
 0001:000410cf       ?SetRangeMin@CSliderCtrl@@QAEXHH@Z 004420cf f   nafxcwd:winctrl2.obj
 0001:00041127       ?SetRangeMax@CSliderCtrl@@QAEXHH@Z 00442127 f   nafxcwd:winctrl2.obj
 0001:0004117f       ?ClearSel@CSliderCtrl@@QAEXH@Z 0044217f f   nafxcwd:winctrl2.obj
 0001:000411d5       ?GetChannelRect@CSliderCtrl@@QBEXPAUtagRECT@@@Z 004421d5 f   nafxcwd:winctrl2.obj
 0001:0004122b       ?GetThumbRect@CSliderCtrl@@QBEXPAUtagRECT@@@Z 0044222b f   nafxcwd:winctrl2.obj
 0001:00041281       ?GetPos@CSliderCtrl@@QBEHXZ 00442281 f   nafxcwd:winctrl2.obj
 0001:000412d3       ?SetPos@CSliderCtrl@@QAEXH@Z 004422d3 f   nafxcwd:winctrl2.obj
 0001:00041329       ?VerifyPos@CSliderCtrl@@QAEXXZ 00442329 f   nafxcwd:winctrl2.obj
 0001:0004137b       ?ClearTics@CSliderCtrl@@QAEXH@Z 0044237b f   nafxcwd:winctrl2.obj
 0001:000413d1       ?GetNumTics@CSliderCtrl@@QBEIXZ 004423d1 f   nafxcwd:winctrl2.obj
 0001:00041423       ?GetTicArray@CSliderCtrl@@QBEPAKXZ 00442423 f   nafxcwd:winctrl2.obj
 0001:00041475       ?GetTic@CSliderCtrl@@QBEHH@Z 00442475 f   nafxcwd:winctrl2.obj
 0001:000414cb       ?GetTicPos@CSliderCtrl@@QBEHH@Z 004424cb f   nafxcwd:winctrl2.obj
 0001:00041521       ?SetTic@CSliderCtrl@@QAEHH@Z 00442521 f   nafxcwd:winctrl2.obj
 0001:00041577       ?SetTicFreq@CSliderCtrl@@QAEXH@Z 00442577 f   nafxcwd:winctrl2.obj
 0001:000415cd       ?GetBuddy@CSliderCtrl@@QBEPAVCWnd@@H@Z 004425cd f   nafxcwd:winctrl2.obj
 0001:00041629       ?SetBuddy@CSliderCtrl@@QAEPAVCWnd@@PAV2@H@Z 00442629 f   nafxcwd:winctrl2.obj
 0001:0004168c       ?GetToolTips@CSliderCtrl@@QBEPAVCToolTipCtrl@@XZ 0044268c f   nafxcwd:winctrl2.obj
 0001:000416e4       ?SetToolTips@CSliderCtrl@@QAEXPAVCToolTipCtrl@@@Z 004426e4 f   nafxcwd:winctrl2.obj
 0001:0004173f       ?SetTipSide@CSliderCtrl@@QAEHH@Z 0044273f f   nafxcwd:winctrl2.obj
 0001:00041795       ??0CProgressCtrl@@QAE@XZ   00442795 f   nafxcwd:winctrl2.obj
 0001:000417b4       ?SetRange@CProgressCtrl@@QAEXFF@Z 004427b4 f   nafxcwd:winctrl2.obj
 0001:0004181d       ?SetRange32@CProgressCtrl@@QAEXHH@Z 0044281d f   nafxcwd:winctrl2.obj
 0001:00041875       ?GetPos@CProgressCtrl@@QAEHXZ 00442875 f   nafxcwd:winctrl2.obj
 0001:000418c7       ?OffsetPos@CProgressCtrl@@QAEHH@Z 004428c7 f   nafxcwd:winctrl2.obj
 0001:0004191d       ?SetStep@CProgressCtrl@@QAEHH@Z 0044291d f   nafxcwd:winctrl2.obj
 0001:00041973       ?StepIt@CProgressCtrl@@QAEHXZ 00442973 f   nafxcwd:winctrl2.obj
 0001:000419c5       ??0CHeaderCtrl@@QAE@XZ     004429c5 f   nafxcwd:winctrl2.obj
 0001:000419e4       ?GetItemCount@CHeaderCtrl@@QBEHXZ 004429e4 f   nafxcwd:winctrl2.obj
 0001:00041a36       ?InsertItem@CHeaderCtrl@@QAEHHPAU_HD_ITEMA@@@Z 00442a36 f   nafxcwd:winctrl2.obj
 0001:00041a8e       ?DeleteItem@CHeaderCtrl@@QAEHH@Z 00442a8e f   nafxcwd:winctrl2.obj
 0001:00041ae4       ?GetItem@CHeaderCtrl@@QBEHHPAU_HD_ITEMA@@@Z 00442ae4 f   nafxcwd:winctrl2.obj
 0001:00041b3c       ?SetItem@CHeaderCtrl@@QAEHHPAU_HD_ITEMA@@@Z 00442b3c f   nafxcwd:winctrl2.obj
 0001:00041b94       ?Layout@CHeaderCtrl@@QAEHPAU_HD_LAYOUT@@@Z 00442b94 f   nafxcwd:winctrl2.obj
 0001:00041bea       ??BCImageList@@QBEPAU_IMAGELIST@@XZ 00442bea f   nafxcwd:winctrl2.obj
 0001:00041bfb       ?GetSafeHandle@CImageList@@QBEPAU_IMAGELIST@@XZ 00442bfb f   nafxcwd:winctrl2.obj
 0001:00041c23       ?GetImageCount@CImageList@@QBEHXZ 00442c23 f   nafxcwd:winctrl2.obj
 0001:00041c64       ?Add@CImageList@@QAEHPAVCBitmap@@0@Z 00442c64 f   nafxcwd:winctrl2.obj
 0001:00041cb9       ?Add@CImageList@@QAEHPAVCBitmap@@K@Z 00442cb9 f   nafxcwd:winctrl2.obj
 0001:00041d09       ?Remove@CImageList@@QAEHH@Z 00442d09 f   nafxcwd:winctrl2.obj
 0001:00041d50       ?Replace@CImageList@@QAEHHPAVCBitmap@@0@Z 00442d50 f   nafxcwd:winctrl2.obj
 0001:00041da9       ?Add@CImageList@@QAEHPAUHICON__@@@Z 00442da9 f   nafxcwd:winctrl2.obj
 0001:00041df2       ?Replace@CImageList@@QAEHHPAUHICON__@@@Z 00442df2 f   nafxcwd:winctrl2.obj
 0001:00041e3d       ?ExtractIconA@CImageList@@QAEPAUHICON__@@H@Z 00442e3d f   nafxcwd:winctrl2.obj
 0001:00041e86       ?Draw@CImageList@@QAEHPAVCDC@@HUtagPOINT@@I@Z 00442e86 f   nafxcwd:winctrl2.obj
 0001:00041f02       ?SetBkColor@CImageList@@QAEKK@Z 00442f02 f   nafxcwd:winctrl2.obj
 0001:00041f49       ?GetBkColor@CImageList@@QBEKXZ 00442f49 f   nafxcwd:winctrl2.obj
 0001:00041f8a       ?SetOverlayImage@CImageList@@QAEHHH@Z 00442f8a f   nafxcwd:winctrl2.obj
 0001:00041fd5       ?GetImageInfo@CImageList@@QBEHHPAU_IMAGEINFO@@@Z 00442fd5 f   nafxcwd:winctrl2.obj
 0001:00042020       ?BeginDrag@CImageList@@QAEHHVCPoint@@@Z 00443020 f   nafxcwd:winctrl2.obj
 0001:0004206f       ?EndDrag@CImageList@@SGXXZ 0044306f f   nafxcwd:winctrl2.obj
 0001:0004207a       ?DragMove@CImageList@@SGHVCPoint@@@Z 0044307a f   nafxcwd:winctrl2.obj
 0001:0004208f       ?SetDragCursorImage@CImageList@@QAEHHVCPoint@@@Z 0044308f f   nafxcwd:winctrl2.obj
 0001:000420de       ?DragShowNolock@CImageList@@SGHH@Z 004430de f   nafxcwd:winctrl2.obj
 0001:000420ef       ?GetDragImage@CImageList@@SGPAV1@PAUtagPOINT@@0@Z 004430ef f   nafxcwd:winctrl2.obj
 0001:0004210a       ?DragEnter@CImageList@@SGHPAVCWnd@@VCPoint@@@Z 0044310a f   nafxcwd:winctrl2.obj
 0001:00042128       ?DragLeave@CImageList@@SGHPAVCWnd@@@Z 00443128 f   nafxcwd:winctrl2.obj
 0001:0004213e       ??0CTabCtrl@@QAE@XZ        0044313e f   nafxcwd:winctrl2.obj
 0001:0004215d       ?GetImageList@CTabCtrl@@QBEPAVCImageList@@XZ 0044315d f   nafxcwd:winctrl2.obj
 0001:000421b5       ?SetImageList@CTabCtrl@@QAEPAVCImageList@@PAV2@@Z 004431b5 f   nafxcwd:winctrl2.obj
 0001:00042216       ?GetItemCount@CTabCtrl@@QBEHXZ 00443216 f   nafxcwd:winctrl2.obj
 0001:00042268       ?GetItem@CTabCtrl@@QBEHHPAUtagTCITEMA@@@Z 00443268 f   nafxcwd:winctrl2.obj
 0001:000422c0       ?SetItem@CTabCtrl@@QAEHHPAUtagTCITEMA@@@Z 004432c0 f   nafxcwd:winctrl2.obj
 0001:00042318       ?SetItemExtra@CTabCtrl@@QAEHH@Z 00443318 f   nafxcwd:winctrl2.obj
 0001:0004236e       ?SetCurFocus@CTabCtrl@@QAEXH@Z 0044336e f   nafxcwd:winctrl2.obj
 0001:000423c4       ?InsertItem@CTabCtrl@@QAEHHPAUtagTCITEMA@@@Z 004433c4 f   nafxcwd:winctrl2.obj
 0001:0004241c       ?InsertItem@CTabCtrl@@QAEHHPBD@Z 0044341c f   nafxcwd:winctrl2.obj
 0001:00042470       ?InsertItem@CTabCtrl@@QAEHHPBDH@Z 00443470 f   nafxcwd:winctrl2.obj
 0001:000424c6       ?DeleteItem@CTabCtrl@@QAEHH@Z 004434c6 f   nafxcwd:winctrl2.obj
 0001:0004251c       ?DeleteAllItems@CTabCtrl@@QAEHXZ 0044351c f   nafxcwd:winctrl2.obj
 0001:0004256e       ?GetItemRect@CTabCtrl@@QBEHHPAUtagRECT@@@Z 0044356e f   nafxcwd:winctrl2.obj
 0001:000425c6       ?GetCurSel@CTabCtrl@@QBEHXZ 004435c6 f   nafxcwd:winctrl2.obj
 0001:00042618       ?SetCurSel@CTabCtrl@@QAEHH@Z 00443618 f   nafxcwd:winctrl2.obj
 0001:0004266e       ?HitTest@CTabCtrl@@QBEHPAUtagTCHITTESTINFO@@@Z 0044366e f   nafxcwd:winctrl2.obj
 0001:000426c4       ?AdjustRect@CTabCtrl@@QAEXHPAUtagRECT@@@Z 004436c4 f   nafxcwd:winctrl2.obj
 0001:0004271c       ?SetItemSize@CTabCtrl@@QAE?AVCSize@@V2@@Z 0044371c f   nafxcwd:winctrl2.obj
 0001:000427a0       ?RemoveImage@CTabCtrl@@QAEXH@Z 004437a0 f   nafxcwd:winctrl2.obj
 0001:000427f6       ?SetPadding@CTabCtrl@@QAEXVCSize@@@Z 004437f6 f   nafxcwd:winctrl2.obj
 0001:0004285f       ?GetRowCount@CTabCtrl@@QBEHXZ 0044385f f   nafxcwd:winctrl2.obj
 0001:000428b1       ?GetToolTips@CTabCtrl@@QBEPAVCToolTipCtrl@@XZ 004438b1 f   nafxcwd:winctrl2.obj
 0001:00042909       ?SetToolTips@CTabCtrl@@QAEXPAVCToolTipCtrl@@@Z 00443909 f   nafxcwd:winctrl2.obj
 0001:00042964       ?GetCurFocus@CTabCtrl@@QBEHXZ 00443964 f   nafxcwd:winctrl2.obj
 0001:000429b6       ?SetMinTabWidth@CTabCtrl@@QAEHH@Z 004439b6 f   nafxcwd:winctrl2.obj
 0001:00042a0c       ?DeselectAll@CTabCtrl@@QAEXH@Z 00443a0c f   nafxcwd:winctrl2.obj
 0001:00042a62       ?HighlightItem@CTabCtrl@@QAEHHH@Z 00443a62 f   nafxcwd:winctrl2.obj
 0001:00042abf       ?GetExtendedStyle@CTabCtrl@@QAEKXZ 00443abf f   nafxcwd:winctrl2.obj
 0001:00042b11       ?SetExtendedStyle@CTabCtrl@@QAEKKK@Z 00443b11 f   nafxcwd:winctrl2.obj
 0001:00042b69       ??0CAnimateCtrl@@QAE@XZ    00443b69 f   nafxcwd:winctrl2.obj
 0001:00042b88       ?Open@CAnimateCtrl@@QAEHPBD@Z 00443b88 f   nafxcwd:winctrl2.obj
 0001:00042bde       ?Open@CAnimateCtrl@@QAEHI@Z 00443bde f   nafxcwd:winctrl2.obj
 0001:00042c34       ?Play@CAnimateCtrl@@QAEHIII@Z 00443c34 f   nafxcwd:winctrl2.obj
 0001:00042c9f       ?Stop@CAnimateCtrl@@QAEHXZ 00443c9f f   nafxcwd:winctrl2.obj
 0001:00042cf1       ?Close@CAnimateCtrl@@QAEHXZ 00443cf1 f   nafxcwd:winctrl2.obj
 0001:00042d43       ?Seek@CAnimateCtrl@@QAEHI@Z 00443d43 f   nafxcwd:winctrl2.obj
 0001:00042dac       ??0CRichEditCtrl@@QAE@XZ   00443dac f   nafxcwd:winctrl2.obj
 0001:00042dcb       ?CanUndo@CRichEditCtrl@@QBEHXZ 00443dcb f   nafxcwd:winctrl2.obj
 0001:00042e1d       ?GetLineCount@CRichEditCtrl@@QBEHXZ 00443e1d f   nafxcwd:winctrl2.obj
 0001:00042e6f       ?GetModify@CRichEditCtrl@@QBEHXZ 00443e6f f   nafxcwd:winctrl2.obj
 0001:00042ec1       ?SetModify@CRichEditCtrl@@QAEXH@Z 00443ec1 f   nafxcwd:winctrl2.obj
 0001:00042f17       ?GetRect@CRichEditCtrl@@QBEXPAUtagRECT@@@Z 00443f17 f   nafxcwd:winctrl2.obj
 0001:00042f6d       ?GetCharPos@CRichEditCtrl@@QBE?AVCPoint@@J@Z 00443f6d f   nafxcwd:winctrl2.obj
 0001:00042fe0       ?SetOptions@CRichEditCtrl@@QAEXGK@Z 00443fe0 f   nafxcwd:winctrl2.obj
 0001:0004303e       ?EmptyUndoBuffer@CRichEditCtrl@@QAEXXZ 0044403e f   nafxcwd:winctrl2.obj
 0001:00043090       ?ReplaceSel@CRichEditCtrl@@QAEXPBDH@Z 00444090 f   nafxcwd:winctrl2.obj
 0001:000430e8       ?SetRect@CRichEditCtrl@@QAEXPBUtagRECT@@@Z 004440e8 f   nafxcwd:winctrl2.obj
 0001:0004313e       ?Undo@CRichEditCtrl@@QAEHXZ 0044413e f   nafxcwd:winctrl2.obj
 0001:00043190       ?Clear@CRichEditCtrl@@QAEXXZ 00444190 f   nafxcwd:winctrl2.obj
 0001:000431e2       ?Copy@CRichEditCtrl@@QAEXXZ 004441e2 f   nafxcwd:winctrl2.obj
 0001:00043234       ?Cut@CRichEditCtrl@@QAEXXZ 00444234 f   nafxcwd:winctrl2.obj
 0001:00043286       ?Paste@CRichEditCtrl@@QAEXXZ 00444286 f   nafxcwd:winctrl2.obj
 0001:000432d8       ?SetReadOnly@CRichEditCtrl@@QAEHH@Z 004442d8 f   nafxcwd:winctrl2.obj
 0001:0004332e       ?GetFirstVisibleLine@CRichEditCtrl@@QBEHXZ 0044432e f   nafxcwd:winctrl2.obj
 0001:00043380       ?DisplayBand@CRichEditCtrl@@QAEHPAUtagRECT@@@Z 00444380 f   nafxcwd:winctrl2.obj
 0001:000433d6       ?GetSel@CRichEditCtrl@@QBEXAAU_charrange@@@Z 004443d6 f   nafxcwd:winctrl2.obj
 0001:0004342c       ?LimitText@CRichEditCtrl@@QAEXJ@Z 0044442c f   nafxcwd:winctrl2.obj
 0001:00043482       ?LineFromChar@CRichEditCtrl@@QBEJJ@Z 00444482 f   nafxcwd:winctrl2.obj
 0001:000434d8       ?SetSel@CRichEditCtrl@@QAEXAAU_charrange@@@Z 004444d8 f   nafxcwd:winctrl2.obj
 0001:0004352e       ?FindTextA@CRichEditCtrl@@QBEJKPAU_findtextexa@@@Z 0044452e f   nafxcwd:winctrl2.obj
 0001:00043586       ?FormatRange@CRichEditCtrl@@QAEJPAU_formatrange@@H@Z 00444586 f   nafxcwd:winctrl2.obj
 0001:000435de       ?GetEventMask@CRichEditCtrl@@QBEJXZ 004445de f   nafxcwd:winctrl2.obj
 0001:00043630       ?GetLimitText@CRichEditCtrl@@QBEJXZ 00444630 f   nafxcwd:winctrl2.obj
 0001:00043682       ?GetSelText@CRichEditCtrl@@QBEJPAD@Z 00444682 f   nafxcwd:winctrl2.obj
 0001:000436d8       ?HideSelection@CRichEditCtrl@@QAEXHH@Z 004446d8 f   nafxcwd:winctrl2.obj
 0001:00043730       ?RequestResize@CRichEditCtrl@@QAEXXZ 00444730 f   nafxcwd:winctrl2.obj
 0001:00043782       ?GetSelectionType@CRichEditCtrl@@QBEGXZ 00444782 f   nafxcwd:winctrl2.obj
 0001:000437d4       ?SetBackgroundColor@CRichEditCtrl@@QAEKHK@Z 004447d4 f   nafxcwd:winctrl2.obj
 0001:0004382c       ?SetEventMask@CRichEditCtrl@@QAEKK@Z 0044482c f   nafxcwd:winctrl2.obj
 0001:00043882       ?SetOLECallback@CRichEditCtrl@@QAEHPAUIRichEditOleCallback@@@Z 00444882 f   nafxcwd:winctrl2.obj
 0001:000438d8       ?SetTargetDevice@CRichEditCtrl@@QAEHPAUHDC__@@J@Z 004448d8 f   nafxcwd:winctrl2.obj
 0001:00043930       ?SetTargetDevice@CRichEditCtrl@@QAEHAAVCDC@@J@Z 00444930 f   nafxcwd:winctrl2.obj
 0001:0004398b       ?StreamIn@CRichEditCtrl@@QAEJHAAU_editstream@@@Z 0044498b f   nafxcwd:winctrl2.obj
 0001:000439e3       ?StreamOut@CRichEditCtrl@@QAEJHAAU_editstream@@@Z 004449e3 f   nafxcwd:winctrl2.obj
 0001:00043a3b       ?GetTextLength@CRichEditCtrl@@QBEJXZ 00444a3b f   nafxcwd:winctrl2.obj
 0001:00043a90       ??_ECDragListBox@@UAEPAXI@Z 00444a90 f i nafxcwd:winctrl2.obj
 0001:00043a90       ??_GCDragListBox@@UAEPAXI@Z 00444a90 f i nafxcwd:winctrl2.obj
 0001:00043ac0       ??_ECToolBarCtrl@@UAEPAXI@Z 00444ac0 f i nafxcwd:winctrl2.obj
 0001:00043ac0       ??_GCToolBarCtrl@@UAEPAXI@Z 00444ac0 f i nafxcwd:winctrl2.obj
 0001:00043af0       ??_GCStatusBarCtrl@@UAEPAXI@Z 00444af0 f i nafxcwd:winctrl2.obj
 0001:00043af0       ??_ECStatusBarCtrl@@UAEPAXI@Z 00444af0 f i nafxcwd:winctrl2.obj
 0001:00043b20       ??_GCListCtrl@@UAEPAXI@Z   00444b20 f i nafxcwd:winctrl2.obj
 0001:00043b20       ??_ECListCtrl@@UAEPAXI@Z   00444b20 f i nafxcwd:winctrl2.obj
 0001:00043b50       ??_GCTreeCtrl@@UAEPAXI@Z   00444b50 f i nafxcwd:winctrl2.obj
 0001:00043b50       ??_ECTreeCtrl@@UAEPAXI@Z   00444b50 f i nafxcwd:winctrl2.obj
 0001:00043b80       ??_GCSpinButtonCtrl@@UAEPAXI@Z 00444b80 f i nafxcwd:winctrl2.obj
 0001:00043b80       ??_ECSpinButtonCtrl@@UAEPAXI@Z 00444b80 f i nafxcwd:winctrl2.obj
 0001:00043bb0       ??_ECSliderCtrl@@UAEPAXI@Z 00444bb0 f i nafxcwd:winctrl2.obj
 0001:00043bb0       ??_GCSliderCtrl@@UAEPAXI@Z 00444bb0 f i nafxcwd:winctrl2.obj
 0001:00043be0       ??_GCProgressCtrl@@UAEPAXI@Z 00444be0 f i nafxcwd:winctrl2.obj
 0001:00043be0       ??_ECProgressCtrl@@UAEPAXI@Z 00444be0 f i nafxcwd:winctrl2.obj
 0001:00043c10       ??_GCHeaderCtrl@@UAEPAXI@Z 00444c10 f i nafxcwd:winctrl2.obj
 0001:00043c10       ??_ECHeaderCtrl@@UAEPAXI@Z 00444c10 f i nafxcwd:winctrl2.obj
 0001:00043c40       ??_ECHotKeyCtrl@@UAEPAXI@Z 00444c40 f i nafxcwd:winctrl2.obj
 0001:00043c40       ??_GCHotKeyCtrl@@UAEPAXI@Z 00444c40 f i nafxcwd:winctrl2.obj
 0001:00043c70       ??_GCTabCtrl@@UAEPAXI@Z    00444c70 f i nafxcwd:winctrl2.obj
 0001:00043c70       ??_ECTabCtrl@@UAEPAXI@Z    00444c70 f i nafxcwd:winctrl2.obj
 0001:00043ca0       ??_GCAnimateCtrl@@UAEPAXI@Z 00444ca0 f i nafxcwd:winctrl2.obj
 0001:00043ca0       ??_ECAnimateCtrl@@UAEPAXI@Z 00444ca0 f i nafxcwd:winctrl2.obj
 0001:00043cd0       ??_GCRichEditCtrl@@UAEPAXI@Z 00444cd0 f i nafxcwd:winctrl2.obj
 0001:00043cd0       ??_ECRichEditCtrl@@UAEPAXI@Z 00444cd0 f i nafxcwd:winctrl2.obj
 0001:00043d00       ??_ECImageList@@UAEPAXI@Z  00444d00 f i nafxcwd:winctrl2.obj
 0001:00043d00       ??_GCImageList@@UAEPAXI@Z  00444d00 f i nafxcwd:winctrl2.obj
 0001:00043d30       ?GetMessageMap@CToolTipCtrl@@MBEPBUAFX_MSGMAP@@XZ 00444d30 f   nafxcwd:tooltip.obj
 0001:00043d40       ??0CToolTipCtrl@@QAE@XZ    00444d40 f   nafxcwd:tooltip.obj
 0001:00043d99       ?Create@CToolTipCtrl@@QAEHPAVCWnd@@K@Z 00444d99 f   nafxcwd:tooltip.obj
 0001:00043e27       ??1CToolTipCtrl@@UAE@XZ    00444e27 f   nafxcwd:tooltip.obj
 0001:00043e87       ?DestroyToolTipCtrl@CToolTipCtrl@@UAEHXZ 00444e87 f   nafxcwd:tooltip.obj
 0001:00043eda       ?OnAddTool@CToolTipCtrl@@IAEJIJ@Z 00444eda f   nafxcwd:tooltip.obj
 0001:00043f7f       ?OnDisableModal@CToolTipCtrl@@IAEJIJ@Z 00444f7f f   nafxcwd:tooltip.obj
 0001:00043f9f       ?OnEnable@CToolTipCtrl@@IAEXH@Z 00444f9f f   nafxcwd:tooltip.obj
 0001:00043fbf       ?OnWindowFromPoint@CToolTipCtrl@@IAEJIJ@Z 00444fbf f   nafxcwd:tooltip.obj
 0001:0004409b       ?AddTool@CToolTipCtrl@@QAEHPAVCWnd@@PBDPBUtagRECT@@I@Z 0044509b f   nafxcwd:tooltip.obj
 0001:00044197       ?AddTool@CToolTipCtrl@@QAEHPAVCWnd@@IPBUtagRECT@@I@Z 00445197 f   nafxcwd:tooltip.obj
 0001:000442c0       ?DelTool@CToolTipCtrl@@QAEXPAVCWnd@@I@Z 004452c0 f   nafxcwd:tooltip.obj
 0001:0004434c       ?GetText@CToolTipCtrl@@QBEXAAVCString@@PAVCWnd@@I@Z 0044534c f   nafxcwd:tooltip.obj
 0001:000443f2       ?GetToolInfo@CToolTipCtrl@@QBEHAAVCToolInfo@@PAVCWnd@@I@Z 004453f2 f   nafxcwd:tooltip.obj
 0001:00044488       ?HitTest@CToolTipCtrl@@QBEHPAVCWnd@@VCPoint@@PAUtagTOOLINFOA@@@Z 00445488 f   nafxcwd:tooltip.obj
 0001:0004456d       ?SetToolRect@CToolTipCtrl@@QAEXPAVCWnd@@IPBUtagRECT@@@Z 0044556d f   nafxcwd:tooltip.obj
 0001:0004462b       ?UpdateTipText@CToolTipCtrl@@QAEXPBDPAVCWnd@@I@Z 0044562b f   nafxcwd:tooltip.obj
 0001:000446bd       ?UpdateTipText@CToolTipCtrl@@QAEXIPAVCWnd@@I@Z 004456bd f   nafxcwd:tooltip.obj
 0001:00044772       ?FillInToolInfo@CToolTipCtrl@@QBEXAAUtagTOOLINFOA@@PAVCWnd@@I@Z 00445772 f   nafxcwd:tooltip.obj
 0001:000447ec       ?_EnableToolTips@CWnd@@QAEHHI@Z 004457ec f   nafxcwd:tooltip.obj
 0001:00044913       ?EnableToolTips@CWnd@@QAEHH@Z 00445913 f   nafxcwd:tooltip.obj
 0001:0004492e       ?EnableTrackingToolTips@CWnd@@QAEHH@Z 0044592e f   nafxcwd:tooltip.obj
 0001:0004494c       ?_AfxRelayToolTipMessage@@YGXPAVCToolTipCtrl@@PAUtagMSG@@@Z 0044594c f   nafxcwd:tooltip.obj
 0001:000449de       ?_FilterToolTipMessage@CWnd@@SGXPAUtagMSG@@PAV1@@Z 004459de f   nafxcwd:tooltip.obj
 0001:000449f1       ?FilterToolTipMessage@CWnd@@QAEXPAUtagMSG@@@Z 004459f1 f   nafxcwd:tooltip.obj
 0001:00045190       ??_ECToolTipCtrl@@UAEPAXI@Z 00446190 f i nafxcwd:tooltip.obj
 0001:00045190       ??_GCToolTipCtrl@@UAEPAXI@Z 00446190 f i nafxcwd:tooltip.obj
 0001:000451c0       ??0CArchiveStream@@QAE@PAVCArchive@@@Z 004461c0 f   nafxcwd:arcstrm.obj
 0001:000451ea       ?AddRef@CArchiveStream@@UAGKXZ 004461ea f   nafxcwd:arcstrm.obj
 0001:000451f6       ?Release@CArchiveStream@@UAGKXZ 004461f6 f   nafxcwd:arcstrm.obj
 0001:000451ff       ?QueryInterface@CArchiveStream@@UAGJABU_GUID@@PAPAX@Z 004461ff f   nafxcwd:arcstrm.obj
 0001:00045241       ?Read@CArchiveStream@@UAGJPAXKPAK@Z 00446241 f   nafxcwd:arcstrm.obj
 0001:00045347       ?Write@CArchiveStream@@UAGJPBXKPAK@Z 00446347 f   nafxcwd:arcstrm.obj
 0001:0004544a       ?Seek@CArchiveStream@@UAGJT_LARGE_INTEGER@@KPAT_ULARGE_INTEGER@@@Z 0044644a f   nafxcwd:arcstrm.obj
 0001:00045579       ?SetSize@CArchiveStream@@UAGJT_ULARGE_INTEGER@@@Z 00446579 f   nafxcwd:arcstrm.obj
 0001:00045585       ?CopyTo@CArchiveStream@@UAGJPAUIStream@@T_ULARGE_INTEGER@@PAT3@2@Z 00446585 f   nafxcwd:arcstrm.obj
 0001:00045591       ?Commit@CArchiveStream@@UAGJK@Z 00446591 f   nafxcwd:arcstrm.obj
 0001:0004559d       ?Revert@CArchiveStream@@UAGJXZ 0044659d f   nafxcwd:arcstrm.obj
 0001:000455a9       ?LockRegion@CArchiveStream@@UAGJT_ULARGE_INTEGER@@0K@Z 004465a9 f   nafxcwd:arcstrm.obj
 0001:000455b5       ?UnlockRegion@CArchiveStream@@UAGJT_ULARGE_INTEGER@@0K@Z 004465b5 f   nafxcwd:arcstrm.obj
 0001:000455c1       ?Stat@CArchiveStream@@UAGJPAUtagSTATSTG@@K@Z 004465c1 f   nafxcwd:arcstrm.obj
 0001:000455cd       ?Clone@CArchiveStream@@UAGJPAPAUIStream@@@Z 004465cd f   nafxcwd:arcstrm.obj
 0001:000455e0       ??0IStream@@QAE@XZ         004465e0 f i nafxcwd:arcstrm.obj
 0001:00045600       ??0ISequentialStream@@QAE@XZ 00446600 f i nafxcwd:arcstrm.obj
 0001:00045620       ??0IUnknown@@QAE@XZ        00446620 f i nafxcwd:arcstrm.obj
 0001:000492d0       ?data@CPlex@@QAEPAXXZ      0044a2d0 f i nafxcwd:map_pp.obj
 0001:000492f0       ??0CPtrList@@QAE@H@Z       0044a2f0 f   nafxcwd:list_p.obj
 0001:0004939c       ?RemoveAll@CPtrList@@QAEXXZ 0044a39c f   nafxcwd:list_p.obj
 0001:000493f4       ??1CPtrList@@UAE@XZ        0044a3f4 f   nafxcwd:list_p.obj
 0001:0004946b       ?NewNode@CPtrList@@IAEPAUCNode@1@PAU21@0@Z 0044a46b f   nafxcwd:list_p.obj
 0001:00049580       ?FreeNode@CPtrList@@IAEXPAUCNode@1@@Z 0044a580 f   nafxcwd:list_p.obj
 0001:000495e7       ?AddHead@CPtrList@@QAEPAU__POSITION@@PAX@Z 0044a5e7 f   nafxcwd:list_p.obj
 0001:00049652       ?AddTail@CPtrList@@QAEPAU__POSITION@@PAX@Z 0044a652 f   nafxcwd:list_p.obj
 0001:000496bc       ?AddHead@CPtrList@@QAEXPAV1@@Z 0044a6bc f   nafxcwd:list_p.obj
 0001:0004976c       ?AddTail@CPtrList@@QAEXPAV1@@Z 0044a76c f   nafxcwd:list_p.obj
 0001:0004981c       ?RemoveHead@CPtrList@@QAEPAXXZ 0044a81c f   nafxcwd:list_p.obj
 0001:000498e1       ?RemoveTail@CPtrList@@QAEPAXXZ 0044a8e1 f   nafxcwd:list_p.obj
 0001:000499a6       ?InsertBefore@CPtrList@@QAEPAU__POSITION@@PAU2@PAX@Z 0044a9a6 f   nafxcwd:list_p.obj
 0001:00049a88       ?InsertAfter@CPtrList@@QAEPAU__POSITION@@PAU2@PAX@Z 0044aa88 f   nafxcwd:list_p.obj
 0001:00049b91       ?RemoveAt@CPtrList@@QAEXPAU__POSITION@@@Z 0044ab91 f   nafxcwd:list_p.obj
 0001:00049c9d       ?FindIndex@CPtrList@@QBEPAU__POSITION@@H@Z 0044ac9d f   nafxcwd:list_p.obj
 0001:00049d2b       ?Find@CPtrList@@QBEPAU__POSITION@@PAXPAU2@@Z 0044ad2b f   nafxcwd:list_p.obj
 0001:00049dc1       ?Dump@CPtrList@@UBEXAAVCDumpContext@@@Z 0044adc1 f   nafxcwd:list_p.obj
 0001:00049e50       ?AssertValid@CPtrList@@UBEXXZ 0044ae50 f   nafxcwd:list_p.obj
 0001:00049f20       ??_GCPtrList@@UAEPAXI@Z    0044af20 f i nafxcwd:list_p.obj
 0001:00049f20       ??_ECPtrList@@UAEPAXI@Z    0044af20 f i nafxcwd:list_p.obj
 0001:00049f50       ??0CByteArray@@QAE@XZ      0044af50 f   nafxcwd:array_b.obj
 0001:00049f97       ??1CByteArray@@UAE@XZ      0044af97 f   nafxcwd:array_b.obj
 0001:0004a007       ?SetSize@CByteArray@@QAEXHH@Z 0044b007 f   nafxcwd:array_b.obj
 0001:0004a2de       ?Append@CByteArray@@QAEHABV1@@Z 0044b2de f   nafxcwd:array_b.obj
 0001:0004a36b       ?Copy@CByteArray@@QAEXABV1@@Z 0044b36b f   nafxcwd:array_b.obj
 0001:0004a3e1       ?FreeExtra@CByteArray@@QAEXXZ 0044b3e1 f   nafxcwd:array_b.obj
 0001:0004a4b2       ?SetAtGrow@CByteArray@@QAEXHE@Z 0044b4b2 f   nafxcwd:array_b.obj
 0001:0004a523       ?InsertAt@CByteArray@@QAEXHEH@Z 0044b523 f   nafxcwd:array_b.obj
 0001:0004a658       ?RemoveAt@CByteArray@@QAEXHH@Z 0044b658 f   nafxcwd:array_b.obj
 0001:0004a733       ?InsertAt@CByteArray@@QAEXHPAV1@@Z 0044b733 f   nafxcwd:array_b.obj
 0001:0004a842       ?Serialize@CByteArray@@UAEXAAVCArchive@@@Z 0044b842 f   nafxcwd:array_b.obj
 0001:0004a8d2       ?Dump@CByteArray@@UBEXAAVCDumpContext@@@Z 0044b8d2 f   nafxcwd:array_b.obj
 0001:0004a984       ?AssertValid@CByteArray@@UBEXXZ 0044b984 f   nafxcwd:array_b.obj
 0001:0004aaa0       ??_GCByteArray@@UAEPAXI@Z  0044baa0 f i nafxcwd:array_b.obj
 0001:0004aaa0       ??_ECByteArray@@UAEPAXI@Z  0044baa0 f i nafxcwd:array_b.obj
 0001:0004aad0       ??0CWordArray@@QAE@XZ      0044bad0 f   nafxcwd:array_w.obj
 0001:0004ab17       ??1CWordArray@@UAE@XZ      0044bb17 f   nafxcwd:array_w.obj
 0001:0004ab87       ?SetSize@CWordArray@@QAEXHH@Z 0044bb87 f   nafxcwd:array_w.obj
 0001:0004ae76       ?Append@CWordArray@@QAEHABV1@@Z 0044be76 f   nafxcwd:array_w.obj
 0001:0004af08       ?Copy@CWordArray@@QAEXABV1@@Z 0044bf08 f   nafxcwd:array_w.obj
 0001:0004af80       ?FreeExtra@CWordArray@@QAEXXZ 0044bf80 f   nafxcwd:array_w.obj
 0001:0004b058       ?SetAtGrow@CWordArray@@QAEXHG@Z 0044c058 f   nafxcwd:array_w.obj
 0001:0004b0cb       ?InsertAt@CWordArray@@QAEXHGH@Z 0044c0cb f   nafxcwd:array_w.obj
 0001:0004b20d       ?RemoveAt@CWordArray@@QAEXHH@Z 0044c20d f   nafxcwd:array_w.obj
 0001:0004b2ee       ?InsertAt@CWordArray@@QAEXHPAV1@@Z 0044c2ee f   nafxcwd:array_w.obj
 0001:0004b3fd       ?Serialize@CWordArray@@UAEXAAVCArchive@@@Z 0044c3fd f   nafxcwd:array_w.obj
 0001:0004b491       ?Dump@CWordArray@@UBEXAAVCDumpContext@@@Z 0044c491 f   nafxcwd:array_w.obj
 0001:0004b544       ?AssertValid@CWordArray@@UBEXXZ 0044c544 f   nafxcwd:array_w.obj
 0001:0004b660       ??_GCWordArray@@UAEPAXI@Z  0044c660 f i nafxcwd:array_w.obj
 0001:0004b660       ??_ECWordArray@@UAEPAXI@Z  0044c660 f i nafxcwd:array_w.obj
 0001:0004b690       ??0CDWordArray@@QAE@XZ     0044c690 f   nafxcwd:array_d.obj
 0001:0004b6d7       ??1CDWordArray@@UAE@XZ     0044c6d7 f   nafxcwd:array_d.obj
 0001:0004b747       ?SetSize@CDWordArray@@QAEXHH@Z 0044c747 f   nafxcwd:array_d.obj
 0001:0004ba3c       ?Append@CDWordArray@@QAEHABV1@@Z 0044ca3c f   nafxcwd:array_d.obj
 0001:0004bacf       ?Copy@CDWordArray@@QAEXABV1@@Z 0044cacf f   nafxcwd:array_d.obj
 0001:0004bb48       ?FreeExtra@CDWordArray@@QAEXXZ 0044cb48 f   nafxcwd:array_d.obj
 0001:0004bc22       ?SetAtGrow@CDWordArray@@QAEXHK@Z 0044cc22 f   nafxcwd:array_d.obj
 0001:0004bc93       ?InsertAt@CDWordArray@@QAEXHKH@Z 0044cc93 f   nafxcwd:array_d.obj
 0001:0004bdd5       ?RemoveAt@CDWordArray@@QAEXHH@Z 0044cdd5 f   nafxcwd:array_d.obj
 0001:0004beb7       ?InsertAt@CDWordArray@@QAEXHPAV1@@Z 0044ceb7 f   nafxcwd:array_d.obj
 0001:0004bfc6       ?Serialize@CDWordArray@@UAEXAAVCArchive@@@Z 0044cfc6 f   nafxcwd:array_d.obj
 0001:0004c05c       ?Dump@CDWordArray@@UBEXAAVCDumpContext@@@Z 0044d05c f   nafxcwd:array_d.obj
 0001:0004c10e       ?AssertValid@CDWordArray@@UBEXXZ 0044d10e f   nafxcwd:array_d.obj
 0001:0004c220       ??_ECDWordArray@@UAEPAXI@Z 0044d220 f i nafxcwd:array_d.obj
 0001:0004c220       ??_GCDWordArray@@UAEPAXI@Z 0044d220 f i nafxcwd:array_d.obj
 0001:0004c250       ??0CUIntArray@@QAE@XZ      0044d250 f   nafxcwd:array_u.obj
 0001:0004c297       ??1CUIntArray@@UAE@XZ      0044d297 f   nafxcwd:array_u.obj
 0001:0004c307       ?SetSize@CUIntArray@@QAEXHH@Z 0044d307 f   nafxcwd:array_u.obj
 0001:0004c5fc       ?Append@CUIntArray@@QAEHABV1@@Z 0044d5fc f   nafxcwd:array_u.obj
 0001:0004c68f       ?Copy@CUIntArray@@QAEXABV1@@Z 0044d68f f   nafxcwd:array_u.obj
 0001:0004c708       ?FreeExtra@CUIntArray@@QAEXXZ 0044d708 f   nafxcwd:array_u.obj
 0001:0004c7e2       ?SetAtGrow@CUIntArray@@QAEXHI@Z 0044d7e2 f   nafxcwd:array_u.obj
 0001:0004c853       ?InsertAt@CUIntArray@@QAEXHIH@Z 0044d853 f   nafxcwd:array_u.obj
 0001:0004c995       ?RemoveAt@CUIntArray@@QAEXHH@Z 0044d995 f   nafxcwd:array_u.obj
 0001:0004ca77       ?InsertAt@CUIntArray@@QAEXHPAV1@@Z 0044da77 f   nafxcwd:array_u.obj
 0001:0004cb86       ?Dump@CUIntArray@@UBEXAAVCDumpContext@@@Z 0044db86 f   nafxcwd:array_u.obj
 0001:0004cc38       ?AssertValid@CUIntArray@@UBEXXZ 0044dc38 f   nafxcwd:array_u.obj
 0001:0004cd50       ??_GCUIntArray@@UAEPAXI@Z  0044dd50 f i nafxcwd:array_u.obj
 0001:0004cd50       ??_ECUIntArray@@UAEPAXI@Z  0044dd50 f i nafxcwd:array_u.obj
 0001:0004cd80       ??0CPtrArray@@QAE@XZ       0044dd80 f   nafxcwd:array_p.obj
 0001:0004cdc7       ??1CPtrArray@@UAE@XZ       0044ddc7 f   nafxcwd:array_p.obj
 0001:0004ce37       ?SetSize@CPtrArray@@QAEXHH@Z 0044de37 f   nafxcwd:array_p.obj
 0001:0004d12c       ?Append@CPtrArray@@QAEHABV1@@Z 0044e12c f   nafxcwd:array_p.obj
 0001:0004d1bf       ?Copy@CPtrArray@@QAEXABV1@@Z 0044e1bf f   nafxcwd:array_p.obj
 0001:0004d238       ?FreeExtra@CPtrArray@@QAEXXZ 0044e238 f   nafxcwd:array_p.obj
 0001:0004d312       ?SetAtGrow@CPtrArray@@QAEXHPAX@Z 0044e312 f   nafxcwd:array_p.obj
 0001:0004d383       ?InsertAt@CPtrArray@@QAEXHPAXH@Z 0044e383 f   nafxcwd:array_p.obj
 0001:0004d4c5       ?RemoveAt@CPtrArray@@QAEXHH@Z 0044e4c5 f   nafxcwd:array_p.obj
 0001:0004d5a7       ?InsertAt@CPtrArray@@QAEXHPAV1@@Z 0044e5a7 f   nafxcwd:array_p.obj
 0001:0004d6b6       ?Dump@CPtrArray@@UBEXAAVCDumpContext@@@Z 0044e6b6 f   nafxcwd:array_p.obj
 0001:0004d768       ?AssertValid@CPtrArray@@UBEXXZ 0044e768 f   nafxcwd:array_p.obj
 0001:0004d880       ??_GCPtrArray@@UAEPAXI@Z   0044e880 f i nafxcwd:array_p.obj
 0001:0004d880       ??_ECPtrArray@@UAEPAXI@Z   0044e880 f i nafxcwd:array_p.obj
 0001:0004d8b0       ??0CObArray@@QAE@XZ        0044e8b0 f   nafxcwd:array_o.obj
 0001:0004d8f7       ??1CObArray@@UAE@XZ        0044e8f7 f   nafxcwd:array_o.obj
 0001:0004d967       ?SetSize@CObArray@@QAEXHH@Z 0044e967 f   nafxcwd:array_o.obj
 0001:0004dc5c       ?Append@CObArray@@QAEHABV1@@Z 0044ec5c f   nafxcwd:array_o.obj
 0001:0004dcef       ?Copy@CObArray@@QAEXABV1@@Z 0044ecef f   nafxcwd:array_o.obj
 0001:0004dd68       ?FreeExtra@CObArray@@QAEXXZ 0044ed68 f   nafxcwd:array_o.obj
 0001:0004de42       ?SetAtGrow@CObArray@@QAEXHPAVCObject@@@Z 0044ee42 f   nafxcwd:array_o.obj
 0001:0004deb3       ?InsertAt@CObArray@@QAEXHPAVCObject@@H@Z 0044eeb3 f   nafxcwd:array_o.obj
 0001:0004dff5       ?RemoveAt@CObArray@@QAEXHH@Z 0044eff5 f   nafxcwd:array_o.obj
 0001:0004e0d7       ?InsertAt@CObArray@@QAEXHPAV1@@Z 0044f0d7 f   nafxcwd:array_o.obj
 0001:0004e1e6       ?Serialize@CObArray@@UAEXAAVCArchive@@@Z 0044f1e6 f   nafxcwd:array_o.obj
 0001:0004e2b4       ?Dump@CObArray@@UBEXAAVCDumpContext@@@Z 0044f2b4 f   nafxcwd:array_o.obj
 0001:0004e366       ?AssertValid@CObArray@@UBEXXZ 0044f366 f   nafxcwd:array_o.obj
 0001:0004e480       ??_ECObArray@@UAEPAXI@Z    0044f480 f i nafxcwd:array_o.obj
 0001:0004e480       ??_GCObArray@@UAEPAXI@Z    0044f480 f i nafxcwd:array_o.obj
 0001:0004e4b0       ??0CStringArray@@QAE@XZ    0044f4b0 f   nafxcwd:array_s.obj
 0001:0004e4f7       ??1CStringArray@@UAE@XZ    0044f4f7 f   nafxcwd:array_s.obj
 0001:0004e5db       ?SetSize@CStringArray@@QAEXHH@Z 0044f5db f   nafxcwd:array_s.obj
 0001:0004e976       ?Append@CStringArray@@QAEHABV1@@Z 0044f976 f   nafxcwd:array_s.obj
 0001:0004ea5e       ?Copy@CStringArray@@QAEXABV1@@Z 0044fa5e f   nafxcwd:array_s.obj
 0001:0004ead4       ?FreeExtra@CStringArray@@QAEXXZ 0044fad4 f   nafxcwd:array_s.obj
 0001:0004ebae       ?SetAtGrow@CStringArray@@QAEXHPBD@Z 0044fbae f   nafxcwd:array_s.obj
 0001:0004ec25       ?SetAtGrow@CStringArray@@QAEXHABVCString@@@Z 0044fc25 f   nafxcwd:array_s.obj
 0001:0004ec9c       ?InsertEmpty@CStringArray@@IAEXHH@Z 0044fc9c f   nafxcwd:array_s.obj
 0001:0004edaf       ?InsertAt@CStringArray@@QAEXHPBDH@Z 0044fdaf f   nafxcwd:array_s.obj
 0001:0004ee45       ?InsertAt@CStringArray@@QAEXHABVCString@@H@Z 0044fe45 f   nafxcwd:array_s.obj
 0001:0004ee9a       ?RemoveAt@CStringArray@@QAEXHH@Z 0044fe9a f   nafxcwd:array_s.obj
 0001:0004ef95       ?InsertAt@CStringArray@@QAEXHPAV1@@Z 0044ff95 f   nafxcwd:array_s.obj
 0001:0004f113       ?Serialize@CStringArray@@UAEXAAVCArchive@@@Z 00450113 f   nafxcwd:array_s.obj
 0001:0004f1e1       ?Dump@CStringArray@@UBEXAAVCDumpContext@@@Z 004501e1 f   nafxcwd:array_s.obj
 0001:0004f292       ?AssertValid@CStringArray@@UBEXXZ 00450292 f   nafxcwd:array_s.obj
 0001:0004f3b0       ??_GCStringArray@@UAEPAXI@Z 004503b0 f i nafxcwd:array_s.obj
 0001:0004f3b0       ??_ECStringArray@@UAEPAXI@Z 004503b0 f i nafxcwd:array_s.obj
 0001:0004f3e0       ??_GCString@@QAEPAXI@Z     004503e0 f i nafxcwd:array_s.obj
 0001:0004f410       ?Create@CPlex@@SGPAU1@AAPAU1@II@Z 00450410 f   nafxcwd:plex.obj
 0001:0004f47d       ?FreeDataChain@CPlex@@QAEXXZ 0045047d f   nafxcwd:plex.obj
 0001:00051d40       ??0CMapPtrToPtr@@QAE@H@Z   00452d40 f   nafxcwd:map_pp.obj
 0001:00051dec       ?InitHashTable@CMapPtrToPtr@@QAEXIH@Z 00452dec f   nafxcwd:map_pp.obj
 0001:00051ebf       ?RemoveAll@CMapPtrToPtr@@QAEXXZ 00452ebf f   nafxcwd:map_pp.obj
 0001:00051f2d       ??1CMapPtrToPtr@@UAE@XZ    00452f2d f   nafxcwd:map_pp.obj
 0001:00051fa4       ?NewAssoc@CMapPtrToPtr@@IAEPAUCAssoc@1@XZ 00452fa4 f   nafxcwd:map_pp.obj
 0001:000520b3       ?FreeAssoc@CMapPtrToPtr@@IAEXPAUCAssoc@1@@Z 004530b3 f   nafxcwd:map_pp.obj
 0001:0005211d       ?GetAssocAt@CMapPtrToPtr@@IBEPAUCAssoc@1@PAXAAI@Z 0045311d f   nafxcwd:map_pp.obj
 0001:00052187       ?GetValueAt@CMapPtrToPtr@@QBEPAXPAX@Z 00453187 f   nafxcwd:map_pp.obj
 0001:000521f0       ?Lookup@CMapPtrToPtr@@QBEHPAXAAPAX@Z 004531f0 f   nafxcwd:map_pp.obj
 0001:0005223f       ??ACMapPtrToPtr@@QAEAAPAXPAX@Z 0045323f f   nafxcwd:map_pp.obj
 0001:000522ce       ?RemoveKey@CMapPtrToPtr@@QAEHPAX@Z 004532ce f   nafxcwd:map_pp.obj
 0001:00052367       ?GetNextAssoc@CMapPtrToPtr@@QBEXAAPAU__POSITION@@AAPAX1@Z 00453367 f   nafxcwd:map_pp.obj
 0001:000524d9       ?Dump@CMapPtrToPtr@@UBEXAAVCDumpContext@@@Z 004534d9 f   nafxcwd:map_pp.obj
 0001:0005258a       ?AssertValid@CMapPtrToPtr@@UBEXXZ 0045358a f   nafxcwd:map_pp.obj
 0001:00052600       ??_GCMapPtrToPtr@@UAEPAXI@Z 00453600 f i nafxcwd:map_pp.obj
 0001:00052600       ??_ECMapPtrToPtr@@UAEPAXI@Z 00453600 f i nafxcwd:map_pp.obj
 0001:00052630       ?HashKey@CMapPtrToPtr@@QBEIPAX@Z 00453630 f i nafxcwd:map_pp.obj
 0001:00052650       ??0CMapWordToPtr@@QAE@H@Z  00453650 f   nafxcwd:map_wp.obj
 0001:000526fc       ?InitHashTable@CMapWordToPtr@@QAEXIH@Z 004536fc f   nafxcwd:map_wp.obj
 0001:000527cf       ?RemoveAll@CMapWordToPtr@@QAEXXZ 004537cf f   nafxcwd:map_wp.obj
 0001:0005283d       ??1CMapWordToPtr@@UAE@XZ   0045383d f   nafxcwd:map_wp.obj
 0001:000528b4       ?NewAssoc@CMapWordToPtr@@IAEPAUCAssoc@1@XZ 004538b4 f   nafxcwd:map_wp.obj
 0001:000529c2       ?FreeAssoc@CMapWordToPtr@@IAEXPAUCAssoc@1@@Z 004539c2 f   nafxcwd:map_wp.obj
 0001:00052a2c       ?GetAssocAt@CMapWordToPtr@@IBEPAUCAssoc@1@GAAI@Z 00453a2c f   nafxcwd:map_wp.obj
 0001:00052aa2       ?Lookup@CMapWordToPtr@@QBEHGAAPAX@Z 00453aa2 f   nafxcwd:map_wp.obj
 0001:00052af2       ??ACMapWordToPtr@@QAEAAPAXG@Z 00453af2 f   nafxcwd:map_wp.obj
 0001:00052b84       ?RemoveKey@CMapWordToPtr@@QAEHG@Z 00453b84 f   nafxcwd:map_wp.obj
 0001:00052c28       ?GetNextAssoc@CMapWordToPtr@@QBEXAAPAU__POSITION@@AAGAAPAX@Z 00453c28 f   nafxcwd:map_wp.obj
 0001:00052d9d       ?Dump@CMapWordToPtr@@UBEXAAVCDumpContext@@@Z 00453d9d f   nafxcwd:map_wp.obj
 0001:00052e4f       ?AssertValid@CMapWordToPtr@@UBEXXZ 00453e4f f   nafxcwd:map_wp.obj
 0001:00052ec0       ??_GCMapWordToPtr@@UAEPAXI@Z 00453ec0 f i nafxcwd:map_wp.obj
 0001:00052ec0       ??_ECMapWordToPtr@@UAEPAXI@Z 00453ec0 f i nafxcwd:map_wp.obj
 0001:00052ef0       ?HashKey@CMapWordToPtr@@QBEIG@Z 00453ef0 f i nafxcwd:map_wp.obj
 0001:00052f10       ??0CMapPtrToWord@@QAE@H@Z  00453f10 f   nafxcwd:map_pw.obj
 0001:00052fbc       ?InitHashTable@CMapPtrToWord@@QAEXIH@Z 00453fbc f   nafxcwd:map_pw.obj
 0001:0005308f       ?RemoveAll@CMapPtrToWord@@QAEXXZ 0045408f f   nafxcwd:map_pw.obj
 0001:000530fd       ??1CMapPtrToWord@@UAE@XZ   004540fd f   nafxcwd:map_pw.obj
 0001:00053174       ?NewAssoc@CMapPtrToWord@@IAEPAUCAssoc@1@XZ 00454174 f   nafxcwd:map_pw.obj
 0001:00053282       ?FreeAssoc@CMapPtrToWord@@IAEXPAUCAssoc@1@@Z 00454282 f   nafxcwd:map_pw.obj
 0001:000532ec       ?GetAssocAt@CMapPtrToWord@@IBEPAUCAssoc@1@PAXAAI@Z 004542ec f   nafxcwd:map_pw.obj
 0001:00053356       ?Lookup@CMapPtrToWord@@QBEHPAXAAG@Z 00454356 f   nafxcwd:map_pw.obj
 0001:000533a7       ??ACMapPtrToWord@@QAEAAGPAX@Z 004543a7 f   nafxcwd:map_pw.obj
 0001:00053436       ?RemoveKey@CMapPtrToWord@@QAEHPAX@Z 00454436 f   nafxcwd:map_pw.obj
 0001:000534cf       ?GetNextAssoc@CMapPtrToWord@@QBEXAAPAU__POSITION@@AAPAXAAG@Z 004544cf f   nafxcwd:map_pw.obj
 0001:00053643       ?Dump@CMapPtrToWord@@UBEXAAVCDumpContext@@@Z 00454643 f   nafxcwd:map_pw.obj
 0001:000536f5       ?AssertValid@CMapPtrToWord@@UBEXXZ 004546f5 f   nafxcwd:map_pw.obj
 0001:00053760       ??_GCMapPtrToWord@@UAEPAXI@Z 00454760 f i nafxcwd:map_pw.obj
 0001:00053760       ??_ECMapPtrToWord@@UAEPAXI@Z 00454760 f i nafxcwd:map_pw.obj
 0001:00053790       ?HashKey@CMapPtrToWord@@QBEIPAX@Z 00454790 f i nafxcwd:map_pw.obj
 0001:000537b0       ??0CMapWordToOb@@QAE@H@Z   004547b0 f   nafxcwd:map_wo.obj
 0001:0005385c       ?InitHashTable@CMapWordToOb@@QAEXIH@Z 0045485c f   nafxcwd:map_wo.obj
 0001:0005392f       ?RemoveAll@CMapWordToOb@@QAEXXZ 0045492f f   nafxcwd:map_wo.obj
 0001:0005399d       ??1CMapWordToOb@@UAE@XZ    0045499d f   nafxcwd:map_wo.obj
 0001:00053a14       ?NewAssoc@CMapWordToOb@@IAEPAUCAssoc@1@XZ 00454a14 f   nafxcwd:map_wo.obj
 0001:00053b22       ?FreeAssoc@CMapWordToOb@@IAEXPAUCAssoc@1@@Z 00454b22 f   nafxcwd:map_wo.obj
 0001:00053b8c       ?GetAssocAt@CMapWordToOb@@IBEPAUCAssoc@1@GAAI@Z 00454b8c f   nafxcwd:map_wo.obj
 0001:00053c02       ?Lookup@CMapWordToOb@@QBEHGAAPAVCObject@@@Z 00454c02 f   nafxcwd:map_wo.obj
 0001:00053c52       ??ACMapWordToOb@@QAEAAPAVCObject@@G@Z 00454c52 f   nafxcwd:map_wo.obj
 0001:00053ce4       ?RemoveKey@CMapWordToOb@@QAEHG@Z 00454ce4 f   nafxcwd:map_wo.obj
 0001:00053d88       ?GetNextAssoc@CMapWordToOb@@QBEXAAPAU__POSITION@@AAGAAPAVCObject@@@Z 00454d88 f   nafxcwd:map_wo.obj
 0001:00053efd       ?Serialize@CMapWordToOb@@UAEXAAVCArchive@@@Z 00454efd f   nafxcwd:map_wo.obj
 0001:0005402a       ?Dump@CMapWordToOb@@UBEXAAVCDumpContext@@@Z 0045502a f   nafxcwd:map_wo.obj
 0001:000540dc       ?AssertValid@CMapWordToOb@@UBEXXZ 004550dc f   nafxcwd:map_wo.obj
 0001:00054150       ??_GCMapWordToOb@@UAEPAXI@Z 00455150 f i nafxcwd:map_wo.obj
 0001:00054150       ??_ECMapWordToOb@@UAEPAXI@Z 00455150 f i nafxcwd:map_wo.obj
 0001:00054180       ?HashKey@CMapWordToOb@@QBEIG@Z 00455180 f i nafxcwd:map_wo.obj
 0001:000541a0       ??0CMapStringToPtr@@QAE@H@Z 004551a0 f   nafxcwd:map_sp.obj
 0001:0005424c       ?InitHashTable@CMapStringToPtr@@QAEXIH@Z 0045524c f   nafxcwd:map_sp.obj
 0001:0005431f       ?RemoveAll@CMapStringToPtr@@QAEXXZ 0045531f f   nafxcwd:map_sp.obj
 0001:000543eb       ??1CMapStringToPtr@@UAE@XZ 004553eb f   nafxcwd:map_sp.obj
 0001:00054462       ?NewAssoc@CMapStringToPtr@@IAEPAUCAssoc@1@XZ 00455462 f   nafxcwd:map_sp.obj
 0001:00054580       ?FreeAssoc@CMapStringToPtr@@IAEXPAUCAssoc@1@@Z 00455580 f   nafxcwd:map_sp.obj
 0001:000545f9       ?GetAssocAt@CMapStringToPtr@@IBEPAUCAssoc@1@PBDAAI@Z 004555f9 f   nafxcwd:map_sp.obj
 0001:00054671       ?Lookup@CMapStringToPtr@@QBEHPBDAAPAX@Z 00455671 f   nafxcwd:map_sp.obj
 0001:000546c0       ?LookupKey@CMapStringToPtr@@QBEHPBDAAPBD@Z 004556c0 f   nafxcwd:map_sp.obj
 0001:00054714       ??ACMapStringToPtr@@QAEAAPAXPBD@Z 00455714 f   nafxcwd:map_sp.obj
 0001:000547b2       ?RemoveKey@CMapStringToPtr@@QAEHPBD@Z 004557b2 f   nafxcwd:map_sp.obj
 0001:00054859       ?GetNextAssoc@CMapStringToPtr@@QBEXAAPAU__POSITION@@AAVCString@@AAPAX@Z 00455859 f   nafxcwd:map_sp.obj
 0001:000549be       ?Dump@CMapStringToPtr@@UBEXAAVCDumpContext@@@Z 004559be f   nafxcwd:map_sp.obj
 0001:00054aab       ?AssertValid@CMapStringToPtr@@UBEXXZ 00455aab f   nafxcwd:map_sp.obj
 0001:00054b20       ??_ECMapStringToPtr@@UAEPAXI@Z 00455b20 f i nafxcwd:map_sp.obj
 0001:00054b20       ??_GCMapStringToPtr@@UAEPAXI@Z 00455b20 f i nafxcwd:map_sp.obj
 0001:00054b50       ?HashKey@CMapStringToPtr@@QBEIPBD@Z 00455b50 f i nafxcwd:map_sp.obj
 0001:00054ba0       ??0CMapStringToOb@@QAE@H@Z 00455ba0 f   nafxcwd:map_so.obj
 0001:00054c4c       ?InitHashTable@CMapStringToOb@@QAEXIH@Z 00455c4c f   nafxcwd:map_so.obj
 0001:00054d1f       ?RemoveAll@CMapStringToOb@@QAEXXZ 00455d1f f   nafxcwd:map_so.obj
 0001:00054deb       ??1CMapStringToOb@@UAE@XZ  00455deb f   nafxcwd:map_so.obj
 0001:00054e62       ?NewAssoc@CMapStringToOb@@IAEPAUCAssoc@1@XZ 00455e62 f   nafxcwd:map_so.obj
 0001:00054f80       ?FreeAssoc@CMapStringToOb@@IAEXPAUCAssoc@1@@Z 00455f80 f   nafxcwd:map_so.obj
 0001:00054ff9       ?GetAssocAt@CMapStringToOb@@IBEPAUCAssoc@1@PBDAAI@Z 00455ff9 f   nafxcwd:map_so.obj
 0001:00055071       ?Lookup@CMapStringToOb@@QBEHPBDAAPAVCObject@@@Z 00456071 f   nafxcwd:map_so.obj
 0001:000550c0       ?LookupKey@CMapStringToOb@@QBEHPBDAAPBD@Z 004560c0 f   nafxcwd:map_so.obj
 0001:00055114       ??ACMapStringToOb@@QAEAAPAVCObject@@PBD@Z 00456114 f   nafxcwd:map_so.obj
 0001:000551b2       ?RemoveKey@CMapStringToOb@@QAEHPBD@Z 004561b2 f   nafxcwd:map_so.obj
 0001:00055259       ?GetNextAssoc@CMapStringToOb@@QBEXAAPAU__POSITION@@AAVCString@@AAPAVCObject@@@Z 00456259 f   nafxcwd:map_so.obj
 0001:000553be       ?Serialize@CMapStringToOb@@UAEXAAVCArchive@@@Z 004563be f   nafxcwd:map_so.obj
 0001:0005552d       ?Dump@CMapStringToOb@@UBEXAAVCDumpContext@@@Z 0045652d f   nafxcwd:map_so.obj
 0001:0005561a       ?AssertValid@CMapStringToOb@@UBEXXZ 0045661a f   nafxcwd:map_so.obj
 0001:00055690       ??_ECMapStringToOb@@UAEPAXI@Z 00456690 f i nafxcwd:map_so.obj
 0001:00055690       ??_GCMapStringToOb@@UAEPAXI@Z 00456690 f i nafxcwd:map_so.obj
 0001:000556c0       ?HashKey@CMapStringToOb@@QBEIPBD@Z 004566c0 f i nafxcwd:map_so.obj
 0001:00055710       ??0CMapStringToString@@QAE@H@Z 00456710 f   nafxcwd:map_ss.obj
 0001:000557bc       ?InitHashTable@CMapStringToString@@QAEXIH@Z 004567bc f   nafxcwd:map_ss.obj
 0001:0005588f       ?RemoveAll@CMapStringToString@@QAEXXZ 0045688f f   nafxcwd:map_ss.obj
 0001:0005596a       ??1CMapStringToString@@UAE@XZ 0045696a f   nafxcwd:map_ss.obj
 0001:000559e1       ?NewAssoc@CMapStringToString@@IAEPAUCAssoc@1@XZ 004569e1 f   nafxcwd:map_ss.obj
 0001:00055b1c       ?FreeAssoc@CMapStringToString@@IAEXPAUCAssoc@1@@Z 00456b1c f   nafxcwd:map_ss.obj
 0001:00055ba4       ?GetAssocAt@CMapStringToString@@IBEPAUCAssoc@1@PBDAAI@Z 00456ba4 f   nafxcwd:map_ss.obj
 0001:00055c1c       ?Lookup@CMapStringToString@@QBEHPBDAAVCString@@@Z 00456c1c f   nafxcwd:map_ss.obj
 0001:00055c6f       ?LookupKey@CMapStringToString@@QBEHPBDAAPBD@Z 00456c6f f   nafxcwd:map_ss.obj
 0001:00055cc3       ??ACMapStringToString@@QAEAAVCString@@PBD@Z 00456cc3 f   nafxcwd:map_ss.obj
 0001:00055d61       ?RemoveKey@CMapStringToString@@QAEHPBD@Z 00456d61 f   nafxcwd:map_ss.obj
 0001:00055e08       ?GetNextAssoc@CMapStringToString@@QBEXAAPAU__POSITION@@AAVCString@@1@Z 00456e08 f   nafxcwd:map_ss.obj
 0001:00055f71       ?Serialize@CMapStringToString@@UAEXAAVCArchive@@@Z 00456f71 f   nafxcwd:map_ss.obj
 0001:00056100       ?Dump@CMapStringToString@@UBEXAAVCDumpContext@@@Z 00457100 f   nafxcwd:map_ss.obj
 0001:00056208       ?AssertValid@CMapStringToString@@UBEXXZ 00457208 f   nafxcwd:map_ss.obj
 0001:00056270       ??_GCMapStringToString@@UAEPAXI@Z 00457270 f i nafxcwd:map_ss.obj
 0001:00056270       ??_ECMapStringToString@@UAEPAXI@Z 00457270 f i nafxcwd:map_ss.obj
 0001:000562a0       ?HashKey@CMapStringToString@@QBEIPBD@Z 004572a0 f i nafxcwd:map_ss.obj
 0001:00058450       ??2CObject@@SGPAXI@Z       00459450 f   nafxcwd:afxmem.obj
 0001:00058469       ??3CObject@@SGXPAX@Z       00459469 f   nafxcwd:afxmem.obj
 0001:0005847e       ??3CObject@@SGXPAX0@Z      0045947e f   nafxcwd:afxmem.obj
 0001:00058493       ??2@YAPAXIPBDH@Z           00459493 f   nafxcwd:afxmem.obj
 0001:000584ae       ??3@YAXPAXPBDH@Z           004594ae f   nafxcwd:afxmem.obj
 0001:000584bf       ??2CObject@@SGPAXIPBDH@Z   004594bf f   nafxcwd:afxmem.obj
 0001:000584dc       ??3CObject@@SGXPAXPBDH@Z   004594dc f   nafxcwd:afxmem.obj
 0001:000584f1       ?AfxAllocMemoryDebug@@YGPAXIHPBDH@Z 004594f1 f   nafxcwd:afxmem.obj
 0001:0005851a       ?AfxFreeMemoryDebug@@YGXPAXH@Z 0045951a f   nafxcwd:afxmem.obj
 0001:0005853b       ?_AfxDefaultAllocHook@@YGHIHJ@Z 0045953b f   nafxcwd:afxmem.obj
 0001:00058547       ?_AfxAllocHookProxy@@YAHHPAXIHJPBEH@Z 00459547 f   nafxcwd:afxmem.obj
 0001:000585c6       ?AfxSetAllocHook@@YGP6GHIHJ@ZP6GHIHJ@Z@Z 004595c6 f   nafxcwd:afxmem.obj
 0001:000585ff       ?AfxEnableMemoryTracking@@YGHH@Z 004595ff f   nafxcwd:afxmem.obj
 0001:00058651       ?AfxSetAllocStop@@YGXJ@Z   00459651 f   nafxcwd:afxmem.obj
 0001:00058664       ?AfxCheckMemory@@YGHXZ     00459664 f   nafxcwd:afxmem.obj
 0001:0005866e       ?AfxIsMemoryBlock@@YGHPBXIPAJ@Z 0045966e f   nafxcwd:afxmem.obj
 0001:0005868d       ??0CMemoryState@@QAE@XZ    0045968d f   nafxcwd:afxmem.obj
 0001:000586ab       ?UpdateData@CMemoryState@@QAEXXZ 004596ab f   nafxcwd:afxmem.obj
 0001:00058714       ?Difference@CMemoryState@@QAEHABU1@0@Z 00459714 f   nafxcwd:afxmem.obj
 0001:0005874b       ?DumpStatistics@CMemoryState@@QBEXXZ 0045974b f   nafxcwd:afxmem.obj
 0001:00058762       ?Checkpoint@CMemoryState@@QAEXXZ 00459762 f   nafxcwd:afxmem.obj
 0001:00058781       ?DumpAllObjectsSince@CMemoryState@@QBEXXZ 00459781 f   nafxcwd:afxmem.obj
 0001:00058798       ?_AfxDoForAllObjectsProxy@@YAXPAX0@Z 00459798 f   nafxcwd:afxmem.obj
 0001:000587b9       ?AfxDoForAllObjects@@YGXP6AXPAVCObject@@PAX@Z1@Z 004597b9 f   nafxcwd:afxmem.obj
 0001:000587e2       ?AfxDumpMemoryLeaks@@YGHXZ 004597e2 f   nafxcwd:afxmem.obj
 0001:000587ec       ?AfxNewHandler@@YAHI@Z     004597ec f   nafxcwd:afxmem.obj
 0001:000587f8       ?AfxGetNewHandler@@YGP6AHI@ZXZ 004597f8 f   nafxcwd:afxmem.obj
 0001:00058802       ?AfxSetNewHandler@@YGP6AHI@ZP6AHI@Z@Z 00459802 f   nafxcwd:afxmem.obj
 0001:00058820       ??2@YAPAXI@Z               00459820 f   nafxcwd:afxmem.obj
 0001:00058869       ??3@YAXPAX@Z               00459869 f   nafxcwd:afxmem.obj
 0001:0005887c       ??2@YAPAXIHPBDH@Z          0045987c f   nafxcwd:afxmem.obj
 0001:00058a67       ??0CWnd@@QAE@XZ            00459a67 f   nafxcwd:wincore.obj
 0001:00058a99       ??0CWnd@@AAE@PAUHWND__@@@Z 00459a99 f   nafxcwd:wincore.obj
 0001:00058ad6       ?_AfxModifyStyle@@YGHPAUHWND__@@HKKI@Z 00459ad6 f   nafxcwd:wincore.obj
 0001:00058b69       ?ModifyStyle@CWnd@@SGHPAUHWND__@@KKI@Z 00459b69 f   nafxcwd:wincore.obj
 0001:00058b87       ?ModifyStyleEx@CWnd@@SGHPAUHWND__@@KKI@Z 00459b87 f   nafxcwd:wincore.obj
 0001:00058ba5       ?_AfxPreInitDialog@@YGXPAVCWnd@@PAUtagRECT@@PAK@Z 00459ba5 f   nafxcwd:wincore.obj
 0001:00058c05       ?_AfxPostInitDialog@@YGXPAVCWnd@@ABUtagRECT@@K@Z 00459c05 f   nafxcwd:wincore.obj
 0001:00058ca4       ?_AfxHandleActivate@@YGXPAVCWnd@@I0@Z 00459ca4 f   nafxcwd:wincore.obj
 0001:00058d28       ?_AfxHandleSetCursor@@YGHPAVCWnd@@II@Z 00459d28 f   nafxcwd:wincore.obj
 0001:00058d9c       ?AfxCallWndProc@@YGJPAVCWnd@@PAUHWND__@@IIJ@Z 00459d9c f   nafxcwd:wincore.obj
 0001:00058f4c       ?GetCurrentMessage@CWnd@@KGPBUtagMSG@@XZ 00459f4c f   nafxcwd:wincore.obj
 0001:00058f92       ?Default@CWnd@@IAEJXZ      00459f92 f   nafxcwd:wincore.obj
 0001:00058fcf       ?afxMapHWND@@YGPAVCHandleMap@@H@Z 00459fcf f   nafxcwd:wincore.obj
 0001:0005909f       ?FromHandle@CWnd@@SGPAV1@PAUHWND__@@@Z 0045a09f f   nafxcwd:wincore.obj
 0001:00059124       ?FromHandlePermanent@CWnd@@SGPAV1@PAUHWND__@@@Z 0045a124 f   nafxcwd:wincore.obj
 0001:0005918a       ?Attach@CWnd@@QAEHPAUHWND__@@@Z 0045a18a f   nafxcwd:wincore.obj
 0001:00059247       ?Detach@CWnd@@QAEPAUHWND__@@XZ 0045a247 f   nafxcwd:wincore.obj
 0001:00059299       ?PreSubclassWindow@CWnd@@UAEXXZ 0045a299 f   nafxcwd:wincore.obj
 0001:000592a4       ?AfxWndProc@@YGJPAUHWND__@@IIJ@Z 0045a2a4 f   nafxcwd:wincore.obj
 0001:0005932e       ?AfxGetAfxWndProc@@YGP6GJPAUHWND__@@IIJ@ZXZ 0045a32e f   nafxcwd:wincore.obj
 0001:00059338       ?_AfxActivationWndProc@@YGJPAUHWND__@@IIJ@Z 0045a338 f   nafxcwd:wincore.obj
 0001:000595ae       ?_AfxGrayBackgroundWndProc@@YGJPAUHWND__@@IIJ@Z 0045a5ae f   nafxcwd:wincore.obj
 0001:00059641       ?_AfxCbtFilterHook@@YGJHIJ@Z 0045a641 f   nafxcwd:wincore.obj
 0001:00059a4f       ?AfxHookWindowCreate@@YGXPAVCWnd@@@Z 0045aa4f f   nafxcwd:wincore.obj
 0001:00059b41       ?AfxUnhookWindowCreate@@YGHXZ 0045ab41 f   nafxcwd:wincore.obj
 0001:00059ba0       ?CreateEx@CWnd@@QAEHKPBD0KABUtagRECT@@PAV1@IPAX@Z 0045aba0 f   nafxcwd:wincore.obj
 0001:00059bfc       ?CreateEx@CWnd@@QAEHKPBD0KHHHHPAUHWND__@@PAUHMENU__@@PAX@Z 0045abfc f   nafxcwd:wincore.obj
 0001:00059d2a       ?PreCreateWindow@CWnd@@UAEHAAUtagCREATESTRUCTA@@@Z 0045ad2a f   nafxcwd:wincore.obj
 0001:00059da3       ?Create@CWnd@@UAEHPBD0KABUtagRECT@@PAV1@IPAUCCreateContext@@@Z 0045ada3 f   nafxcwd:wincore.obj
 0001:00059e4f       ??1CWnd@@UAE@XZ            0045ae4f f   nafxcwd:wincore.obj
 0001:00059f2e       ?OnDestroy@CWnd@@IAEXXZ    0045af2e f   nafxcwd:wincore.obj
 0001:00059f7b       ?OnNcDestroy@CWnd@@IAEXXZ  0045af7b f   nafxcwd:wincore.obj
 0001:0005a147       ?PostNcDestroy@CWnd@@MAEXXZ 0045b147 f   nafxcwd:wincore.obj
 0001:0005a152       ?OnFinalRelease@CWnd@@UAEXXZ 0045b152 f   nafxcwd:wincore.obj
 0001:0005a181       ?AssertValid@CWnd@@UBEXXZ  0045b181 f   nafxcwd:wincore.obj
 0001:0005a303       ?Dump@CWnd@@UBEXAAVCDumpContext@@@Z 0045b303 f   nafxcwd:wincore.obj
 0001:0005a512       ?DestroyWindow@CWnd@@UAEHXZ 0045b512 f   nafxcwd:wincore.obj
 0001:0005a60b       ?DefWindowProcA@CWnd@@MAEJIIJ@Z 0045b60b f   nafxcwd:wincore.obj
 0001:0005a696       ?GetSuperWndProcAddr@CWnd@@MAEPAP6GJPAUHWND__@@IIJ@ZXZ 0045b696 f   nafxcwd:wincore.obj
 0001:0005a6a7       ?PreTranslateMessage@CWnd@@UAEHPAUtagMSG@@@Z 0045b6a7 f   nafxcwd:wincore.obj
 0001:0005a6dd       ?CancelToolTips@CWnd@@SGXH@Z 0045b6dd f   nafxcwd:wincore.obj
 0001:0005a751       ?OnToolHitTest@CWnd@@UBEHVCPoint@@PAUtagTOOLINFOA@@@Z 0045b751 f   nafxcwd:wincore.obj
 0001:0005a811       ?GetWindowTextA@CWnd@@QBEXAAVCString@@@Z 0045b811 f   nafxcwd:wincore.obj
 0001:0005a8af       ?GetDlgItemTextA@CWnd@@QBEHHAAVCString@@@Z 0045b8af f   nafxcwd:wincore.obj
 0001:0005a97f       ?GetWindowPlacement@CWnd@@QBEHPAUtagWINDOWPLACEMENT@@@Z 0045b97f f   nafxcwd:wincore.obj
 0001:0005a9d7       ?SetWindowPlacement@CWnd@@QAEHPBUtagWINDOWPLACEMENT@@@Z 0045b9d7 f   nafxcwd:wincore.obj
 0001:0005aa2f       ?OnDrawItem@CWnd@@IAEXHPAUtagDRAWITEMSTRUCT@@@Z 0045ba2f f   nafxcwd:wincore.obj
 0001:0005aa8a       ?OnCompareItem@CWnd@@IAEHHPAUtagCOMPAREITEMSTRUCT@@@Z 0045ba8a f   nafxcwd:wincore.obj
 0001:0005aaba       ?OnDeleteItem@CWnd@@IAEXHPAUtagDELETEITEMSTRUCT@@@Z 0045baba f   nafxcwd:wincore.obj
 0001:0005aae3       ?OnCharToItem@CWnd@@IAEHIPAVCListBox@@I@Z 0045bae3 f   nafxcwd:wincore.obj
 0001:0005ab15       ?OnVKeyToItem@CWnd@@IAEHIPAVCListBox@@I@Z 0045bb15 f   nafxcwd:wincore.obj
 0001:0005ab47       ?TrackPopupMenu@CMenu@@QAEHIHHPAVCWnd@@PBUtagRECT@@@Z 0045bb47 f   nafxcwd:wincore.obj
 0001:0005abf1       ?_AfxFindPopupMenuFromID@@YGPAVCMenu@@PAV1@I@Z 0045bbf1 f   nafxcwd:wincore.obj
 0001:0005ac90       ?OnMeasureItem@CWnd@@IAEXHPAUtagMEASUREITEMSTRUCT@@@Z 0045bc90 f   nafxcwd:wincore.obj
 0001:0005ad7d       ?AfxRegisterClass@@YGHPAUtagWNDCLASSA@@@Z 0045bd7d f   nafxcwd:wincore.obj
 0001:0005aef8       ?AfxRegisterWndClass@@YGPBDIPAUHICON__@@PAUHBRUSH__@@0@Z 0045bef8 f   nafxcwd:wincore.obj
 0001:0005b003       ?OnNTCtlColor@CWnd@@IAEJIJ@Z 0045c003 f   nafxcwd:wincore.obj
 0001:0005b095       ?WinHelpA@CWnd@@UAEXKI@Z   0045c095 f   nafxcwd:wincore.obj
 0001:0005b208       ?GetMessageMap@CWnd@@MBEPBUAFX_MSGMAP@@XZ 0045c208 f   nafxcwd:wincore.obj
 0001:0005b218       ?AfxFindMessageEntry@@YGPBUAFX_MSGMAP_ENTRY@@PBU1@III@Z 0045c218 f   nafxcwd:wincore.obj
 0001:0005b29d       ?AfxResetMsgCache@@YGXXZ   0045c29d f   nafxcwd:wincore.obj
 0001:0005b2b6       ?WindowProc@CWnd@@MAEJIIJ@Z 0045c2b6 f   nafxcwd:wincore.obj
 0001:0005b30e       ?OnWndMsg@CWnd@@MAEHIIJPAJ@Z 0045c30e f   nafxcwd:wincore.obj
 0001:0005bfa3       ??0CTestCmdUI@@QAE@XZ      0045cfa3 f   nafxcwd:wincore.obj
 0001:0005bfcc       ?Enable@CTestCmdUI@@UAEXH@Z 0045cfcc f   nafxcwd:wincore.obj
 0001:0005bfec       ?SetCheck@CTestCmdUI@@UAEXH@Z 0045cfec f   nafxcwd:wincore.obj
 0001:0005bff9       ?SetRadio@CTestCmdUI@@UAEXH@Z 0045cff9 f   nafxcwd:wincore.obj
 0001:0005c006       ?SetText@CTestCmdUI@@UAEXPBD@Z 0045d006 f   nafxcwd:wincore.obj
 0001:0005c013       ?OnCommand@CWnd@@MAEHIJ@Z  0045d013 f   nafxcwd:wincore.obj
 0001:0005c154       ?OnNotify@CWnd@@MAEHIJPAJ@Z 0045d154 f   nafxcwd:wincore.obj
 0001:0005c262       ?GetParentFrame@CWnd@@QBEPAVCFrameWnd@@XZ 0045d262 f   nafxcwd:wincore.obj
 0001:0005c2c9       ?AfxGetParentOwner@@YGPAUHWND__@@PAU1@@Z 0045d2c9 f   nafxcwd:wincore.obj
 0001:0005c32e       ?GetTopLevelParent@CWnd@@QBEPAV1@XZ 0045d32e f   nafxcwd:wincore.obj
 0001:0005c38a       ?GetTopLevelOwner@CWnd@@QBEPAV1@XZ 0045d38a f   nafxcwd:wincore.obj
 0001:0005c3e9       ?GetParentOwner@CWnd@@QBEPAV1@XZ 0045d3e9 f   nafxcwd:wincore.obj
 0001:0005c45b       ?IsTopParentActive@CWnd@@QBEHXZ 0045d45b f   nafxcwd:wincore.obj
 0001:0005c4c1       ?ActivateTopParent@CWnd@@QAEXXZ 0045d4c1 f   nafxcwd:wincore.obj
 0001:0005c515       ?GetTopLevelFrame@CWnd@@QBEPAVCFrameWnd@@XZ 0045d515 f   nafxcwd:wincore.obj
 0001:0005c58a       ?GetSafeOwner@CWnd@@SGPAV1@PAV1@PAPAUHWND__@@@Z 0045d58a f   nafxcwd:wincore.obj
 0001:0005c5b2       ?MessageBoxA@CWnd@@QAEHPBD0I@Z 0045d5b2 f   nafxcwd:wincore.obj
 0001:0005c5f0       ?GetDescendantWindow@CWnd@@SGPAV1@PAUHWND__@@HH@Z 0045d5f0 f   nafxcwd:wincore.obj
 0001:0005c6b1       ?SendMessageToDescendants@CWnd@@SGXPAUHWND__@@IIJHH@Z 0045d6b1 f   nafxcwd:wincore.obj
 0001:0005c769       ?GetScrollBarCtrl@CWnd@@UBEPAVCScrollBar@@H@Z 0045d769 f   nafxcwd:wincore.obj
 0001:0005c778       ?SetScrollPos@CWnd@@QAEHHHH@Z 0045d778 f   nafxcwd:wincore.obj
 0001:0005c7ca       ?GetScrollPos@CWnd@@QBEHH@Z 0045d7ca f   nafxcwd:wincore.obj
 0001:0005c80c       ?SetScrollRange@CWnd@@QAEXHHHH@Z 0045d80c f   nafxcwd:wincore.obj
 0001:0005c866       ?GetScrollRange@CWnd@@QBEXHPAH0@Z 0045d866 f   nafxcwd:wincore.obj
 0001:0005c8b8       ?EnableScrollBarCtrl@CWnd@@QAEXHH@Z 0045d8b8 f   nafxcwd:wincore.obj
 0001:0005c921       ?SetScrollInfo@CWnd@@QAEHHPAUtagSCROLLINFO@@H@Z 0045d921 f   nafxcwd:wincore.obj
 0001:0005c9c1       ?GetScrollInfo@CWnd@@QAEHHPAUtagSCROLLINFO@@I@Z 0045d9c1 f   nafxcwd:wincore.obj
 0001:0005ca61       ?GetScrollLimit@CWnd@@QAEHH@Z 0045da61 f   nafxcwd:wincore.obj
 0001:0005cac2       ?ScrollWindow@CWnd@@QAEXHHPBUtagRECT@@0@Z 0045dac2 f   nafxcwd:wincore.obj
 0001:0005cbd8       ?RepositionBars@CWnd@@QAEXIIIIPAUtagRECT@@PBU2@H@Z 0045dbd8 f   nafxcwd:wincore.obj
 0001:0005ce22       ?AfxRepositionWindow@@YGXPAUAFX_SIZEPARENTPARAMS@@PAUHWND__@@PBUtagRECT@@@Z 0045de22 f   nafxcwd:wincore.obj
 0001:0005cf89       ?CalcWindowRect@CWnd@@UAEXPAUtagRECT@@I@Z 0045df89 f   nafxcwd:wincore.obj
 0001:0005cfcb       ?HandleFloatingSysCommand@CWnd@@QAEHIJ@Z 0045dfcb f   nafxcwd:wincore.obj
 0001:0005d198       ?WalkPreTranslateTree@CWnd@@SGHPAUHWND__@@PAUtagMSG@@@Z 0045e198 f   nafxcwd:wincore.obj
 0001:0005d252       ?SendChildNotifyLastMsg@CWnd@@QAEHPAJ@Z 0045e252 f   nafxcwd:wincore.obj
 0001:0005d295       ?ReflectLastMsg@CWnd@@KGHPAUHWND__@@PAJ@Z 0045e295 f   nafxcwd:wincore.obj
 0001:0005d3da       ?OnChildNotify@CWnd@@MAEHIIJPAJ@Z 0045e3da f   nafxcwd:wincore.obj
 0001:0005d457       ?ReflectChildNotify@CWnd@@IAEHIIJPAJ@Z 0045e457 f   nafxcwd:wincore.obj
 0001:0005d64f       ?OnParentNotify@CWnd@@IAEXIJ@Z 0045e64f f   nafxcwd:wincore.obj
 0001:0005d690       ?OnActivateTopLevel@CWnd@@IAEJIJ@Z 0045e690 f   nafxcwd:wincore.obj
 0001:0005d6cf       ?OnSysColorChange@CWnd@@IAEXXZ 0045e6cf f   nafxcwd:wincore.obj
 0001:0005d76a       ?OnSettingChange@CWnd@@IAEXIPBD@Z 0045e76a f   nafxcwd:wincore.obj
 0001:0005d7cf       ?OnWinIniChange@CWnd@@IAEXPBD@Z 0045e7cf f   nafxcwd:wincore.obj
 0001:0005d82a       ?OnDevModeChange@CWnd@@IAEXPAD@Z 0045e82a f   nafxcwd:wincore.obj
 0001:0005d898       ?OnHelpInfo@CWnd@@IAEHPAUtagHELPINFO@@@Z 0045e898 f   nafxcwd:wincore.obj
 0001:0005d916       ?OnDisplayChange@CWnd@@IAEJIJ@Z 0045e916 f   nafxcwd:wincore.obj
 0001:0005d97b       ?OnDragList@CWnd@@IAEJIJ@Z 0045e97b f   nafxcwd:wincore.obj
 0001:0005d9d7       ?OnHScroll@CWnd@@IAEXIIPAVCScrollBar@@@Z 0045e9d7 f   nafxcwd:wincore.obj
 0001:0005da02       ?OnVScroll@CWnd@@IAEXIIPAVCScrollBar@@@Z 0045ea02 f   nafxcwd:wincore.obj
 0001:0005da2d       ?OnEnterIdle@CWnd@@IAEXIPAV1@@Z 0045ea2d f   nafxcwd:wincore.obj
 0001:0005da6c       ?OnCtlColor@CWnd@@IAEPAUHBRUSH__@@PAVCDC@@PAV1@I@Z 0045ea6c f   nafxcwd:wincore.obj
 0001:0005dac7       ?OnGrayCtlColor@CWnd@@QAEPAUHBRUSH__@@PAVCDC@@PAV1@I@Z 0045eac7 f   nafxcwd:wincore.obj
 0001:0005db33       ?GrayCtlColor@CWnd@@SGHPAUHDC__@@PAUHWND__@@IPAUHBRUSH__@@K@Z 0045eb33 f   nafxcwd:wincore.obj
 0001:0005dbf9       ?OnQuery3dControls@CWnd@@IAEJIJ@Z 0045ebf9 f   nafxcwd:wincore.obj
 0001:0005dc0b       ?UpdateData@CWnd@@QAEHH@Z  0045ec0b f   nafxcwd:wincore.obj
 0001:0005ddca       ??0CDataExchange@@QAE@PAVCWnd@@H@Z 0045edca f   nafxcwd:wincore.obj
 0001:0005de08       ?CenterWindow@CWnd@@QAEXPAV1@@Z 0045ee08 f   nafxcwd:wincore.obj
 0001:0005e0f0       ?CheckAutoCenter@CWnd@@UAEHXZ 0045f0f0 f   nafxcwd:wincore.obj
 0001:0005e100       ?ExecuteDlgInit@CWnd@@QAEHPBD@Z 0045f100 f   nafxcwd:wincore.obj
 0001:0005e1c6       ?ExecuteDlgInit@CWnd@@QAEHPAX@Z 0045f1c6 f   nafxcwd:wincore.obj
 0001:0005e485       ?UpdateDialogControls@CWnd@@QAEXPAVCCmdTarget@@H@Z 0045f485 f   nafxcwd:wincore.obj
 0001:0005e5ef       ?PreTranslateInput@CWnd@@QAEHPAUtagMSG@@@Z 0045f5ef f   nafxcwd:wincore.obj
 0001:0005e66d       ?RunModalLoop@CWnd@@QAEHK@Z 0045f66d f   nafxcwd:wincore.obj
 0001:0005e933       ?ContinueModal@CWnd@@UAEHXZ 0045f933 f   nafxcwd:wincore.obj
 0001:0005e947       ?EndModalLoop@CWnd@@UAEXH@Z 0045f947 f   nafxcwd:wincore.obj
 0001:0005e9b8       ?SetOccDialogInfo@CWnd@@MAEHPAU_AFX_OCC_DIALOG_INFO@@@Z 0045f9b8 f   nafxcwd:wincore.obj
 0001:0005e9f0       ?_AfxRegisterWithIcon@@YGHPAUtagWNDCLASSA@@PBDI@Z 0045f9f0 f   nafxcwd:wincore.obj
 0001:0005ea4a       ?_AfxInitCommonControls@@YGJPAUtagINITCOMMONCONTROLSEX@@J@Z 0045fa4a f   nafxcwd:wincore.obj
 0001:0005eb1b       ?AfxEndDeferRegisterClass@@YGHJ@Z 0045fb1b f   nafxcwd:wincore.obj
 0001:0005eeea       ?IsFrameWnd@CWnd@@UBEHXZ   0045feea f   nafxcwd:wincore.obj
 0001:0005eef7       ?IsFrameWnd@CFrameWnd@@UBEHXZ 0045fef7 f   nafxcwd:wincore.obj
 0001:0005ef07       ?IsTracking@CFrameWnd@@QBEHXZ 0045ff07 f   nafxcwd:wincore.obj
 0001:0005ef51       ?SubclassCtl3d@CWnd@@QAEHH@Z 0045ff51 f   nafxcwd:wincore.obj
 0001:0005f00e       ?SubclassDlg3d@CWnd@@QAEHK@Z 0046000e f   nafxcwd:wincore.obj
 0001:0005f0ab       ?DragAcceptFiles@CWnd@@QAEXH@Z 004600ab f   nafxcwd:wincore.obj
 0001:0005f0fa       ?SubclassWindow@CWnd@@QAEHPAUHWND__@@@Z 004600fa f   nafxcwd:wincore.obj
 0001:0005f228       ?SubclassDlgItem@CWnd@@QAEHIPAV1@@Z 00460228 f   nafxcwd:wincore.obj
 0001:0005f358       ?UnsubclassWindow@CWnd@@QAEPAUHWND__@@XZ 00460358 f   nafxcwd:wincore.obj
 0001:0005f3d0       ??_ECWnd@@UAEPAXI@Z        004603d0 f i nafxcwd:wincore.obj
 0001:0005f3d0       ??_GCWnd@@UAEPAXI@Z        004603d0 f i nafxcwd:wincore.obj
 0001:0005f400       ?OnAmbientProperty@CWnd@@UAEHPAVCOleControlSite@@JPAUtagVARIANT@@@Z 00460400 f   nafxcwd:winocc.obj
 0001:0005f450       ?GetControlUnknown@CWnd@@QAEPAUIUnknown@@XZ 00460450 f   nafxcwd:winocc.obj
 0001:0005f471       ?CheckDlgButton@CWnd@@QAEXHI@Z 00460471 f   nafxcwd:winocc.obj
 0001:0005f4e5       ?CheckRadioButton@CWnd@@QAEXHHH@Z 004604e5 f   nafxcwd:winocc.obj
 0001:0005f561       ?GetDlgItem@CWnd@@QBEPAV1@H@Z 00460561 f   nafxcwd:winocc.obj
 0001:0005f5d3       ?GetDlgItem@CWnd@@QBEXHPAPAUHWND__@@@Z 004605d3 f   nafxcwd:winocc.obj
 0001:0005f665       ?GetDlgItemInt@CWnd@@QBEIHPAHH@Z 00460665 f   nafxcwd:winocc.obj
 0001:0005f6e1       ?GetDlgItemTextA@CWnd@@QBEHHPADH@Z 004606e1 f   nafxcwd:winocc.obj
 0001:0005f760       ?SendDlgItemMessageA@CWnd@@QAEJHIIJ@Z 00460760 f   nafxcwd:winocc.obj
 0001:0005f7e7       ?SetDlgItemInt@CWnd@@QAEXHIH@Z 004607e7 f   nafxcwd:winocc.obj
 0001:0005f869       ?SetDlgItemTextA@CWnd@@QAEXHPBD@Z 00460869 f   nafxcwd:winocc.obj
 0001:0005f8e3       ?IsDlgButtonChecked@CWnd@@QBEIH@Z 004608e3 f   nafxcwd:winocc.obj
 0001:0005f955       ?ScrollWindowEx@CWnd@@QAEHHHPBUtagRECT@@0PAVCRgn@@PAU2@I@Z 00460955 f   nafxcwd:winocc.obj
 0001:0005f9fa       ?IsDialogMessageA@CWnd@@QAEHPAUtagMSG@@@Z 004609fa f   nafxcwd:winocc.obj
 0001:0005fa7e       ?GetStyle@CWnd@@QBEKXZ     00460a7e f   nafxcwd:winocc.obj
 0001:0005fae5       ?GetExStyle@CWnd@@QBEKXZ   00460ae5 f   nafxcwd:winocc.obj
 0001:0005fb4c       ?ModifyStyle@CWnd@@QAEHKKI@Z 00460b4c f   nafxcwd:winocc.obj
 0001:0005fbcd       ?ModifyStyleEx@CWnd@@QAEHKKI@Z 00460bcd f   nafxcwd:winocc.obj
 0001:0005fc4e       ?SetWindowTextA@CWnd@@QAEXPBD@Z 00460c4e f   nafxcwd:winocc.obj
 0001:0005fcc0       ?GetWindowTextA@CWnd@@QBEHPADH@Z 00460cc0 f   nafxcwd:winocc.obj
 0001:0005fd3a       ?GetWindowTextLengthA@CWnd@@QBEHXZ 00460d3a f   nafxcwd:winocc.obj
 0001:0005fda2       ?GetDlgCtrlID@CWnd@@QBEHXZ 00460da2 f   nafxcwd:winocc.obj
 0001:0005fe0a       ?SetDlgCtrlID@CWnd@@QAEHH@Z 00460e0a f   nafxcwd:winocc.obj
 0001:0005fe7e       ?MoveWindow@CWnd@@QAEXHHHHH@Z 00460e7e f   nafxcwd:winocc.obj
 0001:0005ff10       ?SetWindowPos@CWnd@@QAEHPBV1@HHHHI@Z 00460f10 f   nafxcwd:winocc.obj
 0001:0005ffaf       ?ShowWindow@CWnd@@QAEHH@Z  00460faf f   nafxcwd:winocc.obj
 0001:00060021       ?IsWindowEnabled@CWnd@@QBEHXZ 00461021 f   nafxcwd:winocc.obj
 0001:00060089       ?EnableWindow@CWnd@@QAEHH@Z 00461089 f   nafxcwd:winocc.obj
 0001:000600fb       ?SetFocus@CWnd@@QAEPAV1@XZ 004610fb f   nafxcwd:winocc.obj
 0001:00060169       ?InvokeHelper@CWnd@@QAAXJGGPAXPBEZZ 00461169 f   nafxcwd:winocc.obj
 0001:000601dd       ?GetProperty@CWnd@@QBEXJGPAX@Z 004611dd f   nafxcwd:winocc.obj
 0001:0006023b       ?SetProperty@CWnd@@QAAXJGZZ 0046123b f   nafxcwd:winocc.obj
 0001:000602a2       ?GetDSCCursor@CWnd@@QAEPAUIUnknown@@XZ 004612a2 f   nafxcwd:winocc.obj
 0001:0006033b       ?BindDefaultProperty@CWnd@@QAEXJGPBDPAV1@@Z 0046133b f   nafxcwd:winocc.obj
 0001:00060396       ?BindProperty@CWnd@@QAEXJPAV1@@Z 00461396 f   nafxcwd:winocc.obj
 0001:000603e8       ?AttachControlSite@CWnd@@IAEXPAVCHandleMap@@@Z 004613e8 f   nafxcwd:winocc.obj
 0001:00060446       ?AttachControlSite@CWnd@@QAEXPAV1@@Z 00461446 f   nafxcwd:winocc.obj
 0001:000604c3       ?AttachControlSite@COleControlContainer@@UAEXPAVCWnd@@@Z 004614c3 f   nafxcwd:winocc.obj
 0001:00060570       ??0CCmdTarget@@QAE@XZ      00461570 f   nafxcwd:cmdtarg.obj
 0001:000605cb       ??1CCmdTarget@@UAE@XZ      004615cb f   nafxcwd:cmdtarg.obj
 0001:00060652       ?_AfxDispatchCmdMsg@@YGHPAVCCmdTarget@@IHP81@AEXXZPAXIPAUAFX_CMDHANDLERINFO@@@Z 00461652 f   nafxcwd:cmdtarg.obj
 0001:00060baf       ?OnCmdMsg@CCmdTarget@@UAEHIHPAXPAUAFX_CMDHANDLERINFO@@@Z 00461baf f   nafxcwd:cmdtarg.obj
 0001:00060e33       ?IsInvokeAllowed@CCmdTarget@@UAEHJ@Z 00461e33 f   nafxcwd:cmdtarg.obj
 0001:00060e45       ?GetDispatchIID@CCmdTarget@@UAEHPAU_GUID@@@Z 00461e45 f   nafxcwd:cmdtarg.obj
 0001:00060e54       ?GetTypeInfoCount@CCmdTarget@@UAEIXZ 00461e54 f   nafxcwd:cmdtarg.obj
 0001:00060e61       ?GetTypeLibCache@CCmdTarget@@UAEPAVCTypeLibCache@@XZ 00461e61 f   nafxcwd:cmdtarg.obj
 0001:00060e6e       ?GetTypeLib@CCmdTarget@@UAEJKPAPAUITypeLib@@@Z 00461e6e f   nafxcwd:cmdtarg.obj
 0001:00060e80       ?BeginWaitCursor@CCmdTarget@@QAEXXZ 00461e80 f   nafxcwd:cmdtarg.obj
 0001:00060ea5       ?EndWaitCursor@CCmdTarget@@QAEXXZ 00461ea5 f   nafxcwd:cmdtarg.obj
 0001:00060eca       ?RestoreWaitCursor@CCmdTarget@@QAEXXZ 00461eca f   nafxcwd:cmdtarg.obj
 0001:00060eef       ?GetMessageMap@CCmdTarget@@MBEPBUAFX_MSGMAP@@XZ 00461eef f   nafxcwd:cmdtarg.obj
 0001:00060eff       ?GetDispatchMap@CCmdTarget@@MBEPBUAFX_DISPMAP@@XZ 00461eff f   nafxcwd:cmdtarg.obj
 0001:00060f0f       ?GetEventSinkMap@CCmdTarget@@MBEPBUAFX_EVENTSINKMAP@@XZ 00461f0f f   nafxcwd:cmdtarg.obj
 0001:00060f1f       ?GetInterfaceMap@CCmdTarget@@MBEPBUAFX_INTERFACEMAP@@XZ 00461f1f f   nafxcwd:cmdtarg.obj
 0001:00060f2f       ?OnFinalRelease@CCmdTarget@@UAEXXZ 00461f2f f   nafxcwd:cmdtarg.obj
 0001:00060f91       ?OnCreateAggregates@CCmdTarget@@UAEHXZ 00461f91 f   nafxcwd:cmdtarg.obj
 0001:00060fa1       ?GetInterfaceHook@CCmdTarget@@UAEPAUIUnknown@@PBX@Z 00461fa1 f   nafxcwd:cmdtarg.obj
 0001:00060fb0       ?GetConnectionMap@CCmdTarget@@MBEPBUAFX_CONNECTIONMAP@@XZ 00461fb0 f   nafxcwd:cmdtarg.obj
 0001:00060fc0       ?GetConnectionHook@CCmdTarget@@MAEPAUIConnectionPoint@@ABU_GUID@@@Z 00461fc0 f   nafxcwd:cmdtarg.obj
 0001:00060fcf       ?GetExtraConnectionPoints@CCmdTarget@@MAEHPAVCPtrArray@@@Z 00461fcf f   nafxcwd:cmdtarg.obj
 0001:00060fde       ?GetCommandMap@CCmdTarget@@MBEPBUAFX_OLECMDMAP@@XZ 00461fde f   nafxcwd:cmdtarg.obj
 0001:00060fee       ?GetRoutingView@CCmdTarget@@IAEPAVCView@@XZ 00461fee f   nafxcwd:cmdtarg.obj
 0001:00060ffe       ?GetRoutingFrame@CCmdTarget@@IAEPAVCFrameWnd@@XZ 00461ffe f   nafxcwd:cmdtarg.obj
 0001:0006100e       ??0CCmdUI@@QAE@XZ          0046200e f   nafxcwd:cmdtarg.obj
 0001:0006107f       ?Enable@CCmdUI@@UAEXH@Z    0046207f f   nafxcwd:cmdtarg.obj
 0001:0006116a       ?SetCheck@CCmdUI@@UAEXH@Z  0046216a f   nafxcwd:cmdtarg.obj
 0001:00061234       ?SetRadio@CCmdUI@@UAEXH@Z  00462234 f   nafxcwd:cmdtarg.obj
 0001:000612d3       ?SetText@CCmdUI@@UAEXPBD@Z 004622d3 f   nafxcwd:cmdtarg.obj
 0001:00061414       ?DoUpdate@CCmdUI@@QAEHPAVCCmdTarget@@H@Z 00462414 f   nafxcwd:cmdtarg.obj
 0001:00061520       ??_ECCmdTarget@@UAEPAXI@Z  00462520 f i nafxcwd:cmdtarg.obj
 0001:00061520       ??_GCCmdTarget@@UAEPAXI@Z  00462520 f i nafxcwd:cmdtarg.obj
 0001:00061550       ?AfxGetEmptyString@@YGABVCString@@XZ 00462550 f   nafxcwd:strcore.obj
 0001:0006155a       ??0CString@@QAE@ABV0@@Z    0046255a f   nafxcwd:strcore.obj
 0001:000615f9       ?AllocBuffer@CString@@IAEXH@Z 004625f9 f   nafxcwd:strcore.obj
 0001:000616b1       ?FreeData@CString@@KIXPAUCStringData@@@Z 004626b1 f   nafxcwd:strcore.obj
 0001:000616d0       ?Release@CString@@IAEXXZ   004626d0 f   nafxcwd:strcore.obj
 0001:00061742       ?Release@CString@@KGXPAUCStringData@@@Z 00462742 f   nafxcwd:strcore.obj
 0001:00061792       ?Empty@CString@@QAEXXZ     00462792 f   nafxcwd:strcore.obj
 0001:00061837       ?CopyBeforeWrite@CString@@IAEXXZ 00462837 f   nafxcwd:strcore.obj
 0001:000618c1       ?AllocBeforeWrite@CString@@IAEXH@Z 004628c1 f   nafxcwd:strcore.obj
 0001:0006192c       ??1CString@@QAE@XZ         0046292c f   nafxcwd:strcore.obj
 0001:00061969       ?AllocCopy@CString@@IBEXAAV1@HHH@Z 00462969 f   nafxcwd:strcore.obj
 0001:000619b8       ??0CString@@QAE@PBD@Z      004629b8 f   nafxcwd:strcore.obj
 0001:00061a4f       ??0CString@@QAE@PBG@Z      00462a4f f   nafxcwd:strcore.obj
 0001:00061ac5       ??6@YGAAVCDumpContext@@AAV0@ABVCString@@@Z 00462ac5 f   nafxcwd:strcore.obj
 0001:00061add       ?AssignCopy@CString@@IAEXHPBD@Z 00462add f   nafxcwd:strcore.obj
 0001:00061b26       ??4CString@@QAEABV0@ABV0@@Z 00462b26 f   nafxcwd:strcore.obj
 0001:00061bdd       ??4CString@@QAEABV0@PBD@Z  00462bdd f   nafxcwd:strcore.obj
 0001:00061c38       ??4CString@@QAEABV0@PBG@Z  00462c38 f   nafxcwd:strcore.obj
 0001:00061ca0       ?ConcatCopy@CString@@IAEXHPBDH0@Z 00462ca0 f   nafxcwd:strcore.obj
 0001:00061cf9       ??H@YG?AVCString@@ABV0@0@Z 00462cf9 f   nafxcwd:strcore.obj
 0001:00061d8a       ??H@YG?AVCString@@ABV0@PBD@Z 00462d8a f   nafxcwd:strcore.obj
 0001:00061e4c       ??H@YG?AVCString@@PBDABV0@@Z 00462e4c f   nafxcwd:strcore.obj
 0001:00061f0e       ?ConcatInPlace@CString@@IAEXHPBD@Z 00462f0e f   nafxcwd:strcore.obj
 0001:00062035       ??YCString@@QAEABV0@PBD@Z  00463035 f   nafxcwd:strcore.obj
 0001:00062090       ??YCString@@QAEABV0@D@Z    00463090 f   nafxcwd:strcore.obj
 0001:000620ae       ??YCString@@QAEABV0@ABV0@@Z 004630ae f   nafxcwd:strcore.obj
 0001:000620d8       ?GetBuffer@CString@@QAEPADH@Z 004630d8 f   nafxcwd:strcore.obj
 0001:00062213       ?ReleaseBuffer@CString@@QAEXH@Z 00463213 f   nafxcwd:strcore.obj
 0001:00062287       ?GetBufferSetLength@CString@@QAEPADH@Z 00463287 f   nafxcwd:strcore.obj
 0001:000622e5       ?FreeExtra@CString@@QAEXXZ 004632e5 f   nafxcwd:strcore.obj
 0001:000623e4       ?LockBuffer@CString@@QAEPADXZ 004633e4 f   nafxcwd:strcore.obj
 0001:0006240f       ?UnlockBuffer@CString@@QAEXXZ 0046340f f   nafxcwd:strcore.obj
 0001:00062465       ?Find@CString@@QBEHD@Z     00463465 f   nafxcwd:strcore.obj
 0001:00062480       ?Find@CString@@QBEHDH@Z    00463480 f   nafxcwd:strcore.obj
 0001:000624e5       ?FindOneOf@CString@@QBEHPBD@Z 004634e5 f   nafxcwd:strcore.obj
 0001:00062555       ?MakeUpper@CString@@QAEXXZ 00463555 f   nafxcwd:strcore.obj
 0001:00062576       ?MakeLower@CString@@QAEXXZ 00463576 f   nafxcwd:strcore.obj
 0001:00062597       ?MakeReverse@CString@@QAEXXZ 00463597 f   nafxcwd:strcore.obj
 0001:000625b8       ?SetAt@CString@@QAEXHD@Z   004635b8 f   nafxcwd:strcore.obj
 0001:0006262b       ?CharToOemA@CString@@QAEXXZ 0046362b f   nafxcwd:strcore.obj
 0001:00062650       ?OemToCharA@CString@@QAEXXZ 00463650 f   nafxcwd:strcore.obj
 0001:00062675       ?_wcstombsz@@YAHPADPBGI@Z  00463675 f   nafxcwd:strcore.obj
 0001:000626ed       ?_mbstowcsz@@YAHPAGPBDI@Z  004636ed f   nafxcwd:strcore.obj
 0001:00062764       ?AfxA2WHelper@@YGPAGPAGPBDH@Z 00463764 f   nafxcwd:strcore.obj
 0001:000627dc       ?AfxW2AHelper@@YGPADPADPBGH@Z 004637dc f   nafxcwd:strcore.obj
 0001:00062860       ?GetMessageMap@CWinApp@@MBEPBUAFX_MSGMAP@@XZ 00463860 f   nafxcwd:appcore.obj
 0001:00062870       ?Run@CWinApp@@UAEHXZ       00463870 f   nafxcwd:appcore.obj
 0001:000628ae       ?WinHelpA@CWinApp@@UAEXKI@Z 004638ae f   nafxcwd:appcore.obj
 0001:00062909       ?ProcessWndProcException@CWinApp@@UAEJPAVCException@@PBUtagMSG@@@Z 00463909 f   nafxcwd:appcore.obj
 0001:000629be       ?OnIdle@CWinApp@@UAEHJ@Z   004639be f   nafxcwd:appcore.obj
 0001:00062ab0       ?DevModeChange@CWinApp@@QAEXPAD@Z 00463ab0 f   nafxcwd:appcore.obj
 0001:00062bfe       ?AssertValid@CWinApp@@UBEXXZ 00463bfe f   nafxcwd:appcore.obj
 0001:00062c99       ?Dump@CWinApp@@UBEXAAVCDumpContext@@@Z 00463c99 f   nafxcwd:appcore.obj
 0001:00063000       ?_AfxThreadEntry@@YGIPAX@Z 00464000 f   nafxcwd:thrdcore.obj
 0001:00063359       ?AfxGetThread@@YGPAVCWinThread@@XZ 00464359 f   nafxcwd:thrdcore.obj
 0001:00063385       ?AfxBeginThread@@YGPAVCWinThread@@P6AIPAX@Z0HIKPAU_SECURITY_ATTRIBUTES@@@Z 00464385 f   nafxcwd:thrdcore.obj
 0001:000634c4       ?AfxBeginThread@@YGPAVCWinThread@@PAUCRuntimeClass@@HIKPAU_SECURITY_ATTRIBUTES@@@Z 004644c4 f   nafxcwd:thrdcore.obj
 0001:000635dc       ?AfxEndThread@@YGXIH@Z     004645dc f   nafxcwd:thrdcore.obj
 0001:00063680       ?AfxInitThread@@YGXXZ      00464680 f   nafxcwd:thrdcore.obj
 0001:00063714       ?AfxTermThread@@YGXPAUHINSTANCE__@@@Z 00464714 f   nafxcwd:thrdcore.obj
 0001:000637e1       ?CreateThread@CWinThread@@QAEHKIPAU_SECURITY_ATTRIBUTES@@@Z 004647e1 f   nafxcwd:thrdcore.obj
 0001:000639d9       ?Delete@CWinThread@@UAEXXZ 004649d9 f   nafxcwd:thrdcore.obj
 0001:00063a1a       ?InitInstance@CWinThread@@UAEHXZ 00464a1a f   nafxcwd:thrdcore.obj
 0001:00063a3a       ?Run@CWinThread@@UAEHXZ    00464a3a f   nafxcwd:thrdcore.obj
 0001:00063b39       ?IsIdleMessage@CWinThread@@UAEHPAUtagMSG@@@Z 00464b39 f   nafxcwd:thrdcore.obj
 0001:00063be9       ?ExitInstance@CWinThread@@UAEHXZ 00464be9 f   nafxcwd:thrdcore.obj
 0001:00063c3f       ?OnIdle@CWinThread@@UAEHJ@Z 00464c3f f   nafxcwd:thrdcore.obj
 0001:00063e49       ?DispatchThreadMessage@CWinThread@@IAEXPAUtagMSG@@@Z 00464e49 f   nafxcwd:thrdcore.obj
 0001:00063e62       ?DispatchThreadMessageEx@CWinThread@@IAEHPAUtagMSG@@@Z 00464e62 f   nafxcwd:thrdcore.obj
 0001:00063f8d       ?PreTranslateMessage@CWinThread@@UAEHPAUtagMSG@@@Z 00464f8d f   nafxcwd:thrdcore.obj
 0001:0006402a       ?ProcessWndProcException@CWinThread@@UAEJPAVCException@@PBUtagMSG@@@Z 0046502a f   nafxcwd:thrdcore.obj
 0001:00064062       ?_AfxMsgFilterHook@@YGJHIJ@Z 00465062 f   nafxcwd:thrdcore.obj
 0001:000640f2       ?IsHelpKey@@YGHPAUtagMSG@@@Z 004650f2 f   nafxcwd:thrdcore.obj
 0001:0006416d       ?ProcessMessageFilter@CWinThread@@UAEHHPAUtagMSG@@@Z 0046516d f   nafxcwd:thrdcore.obj
 0001:00064335       ?GetMainWnd@CWinThread@@UAEPAVCWnd@@XZ 00465335 f   nafxcwd:thrdcore.obj
 0001:00064367       ?PumpMessage@CWinThread@@UAEHXZ 00465367 f   nafxcwd:thrdcore.obj
 0001:00064473       ?AssertValid@CWinThread@@UBEXXZ 00465473 f   nafxcwd:thrdcore.obj
 0001:00064486       ?Dump@CWinThread@@UBEXAAVCDumpContext@@@Z 00465486 f   nafxcwd:thrdcore.obj
 0001:000646d0       ?IsEnterKey@@YAHPAUtagMSG@@@Z 004656d0 f i nafxcwd:thrdcore.obj
 0001:00064700       ?IsButtonUp@@YAHPAUtagMSG@@@Z 00465700 f i nafxcwd:thrdcore.obj
 0001:00064720       ?AfxDlgProc@@YGHPAUHWND__@@IIJ@Z 00465720 f   nafxcwd:dlgcore.obj
 0001:0006476c       ?GetMessageMap@CDialog@@MBEPBUAFX_MSGMAP@@XZ 0046576c f   nafxcwd:dlgcore.obj
 0001:0006477c       ?PreTranslateMessage@CDialog@@UAEHPAUtagMSG@@@Z 0046577c f   nafxcwd:dlgcore.obj
 0001:0006487d       ?OnCmdMsg@CDialog@@UAEHIHPAXPAUAFX_CMDHANDLERINFO@@@Z 0046587d f   nafxcwd:dlgcore.obj
 0001:000649d2       ??0CDialog@@QAE@XZ         004659d2 f   nafxcwd:dlgcore.obj
 0001:00064a5a       ??1CDialog@@UAE@XZ         00465a5a f   nafxcwd:dlgcore.obj
 0001:00064ad8       ?Create@CDialog@@QAEHPBDPAVCWnd@@@Z 00465ad8 f   nafxcwd:dlgcore.obj
 0001:00064bf6       ?CreateIndirect@CDialog@@QAEHPAXPAVCWnd@@@Z 00465bf6 f   nafxcwd:dlgcore.obj
 0001:00064c15       ?CreateIndirect@CDialog@@IAEHPAXPAVCWnd@@PAUHINSTANCE__@@@Z 00465c15 f   nafxcwd:dlgcore.obj
 0001:00064c7c       ?CreateIndirect@CDialog@@QAEHPBUDLGTEMPLATE@@PAVCWnd@@PAX@Z 00465c7c f   nafxcwd:dlgcore.obj
 0001:00064c9f       ?CreateIndirect@CDialog@@IAEHPBUDLGTEMPLATE@@PAVCWnd@@PAXPAUHINSTANCE__@@@Z 00465c9f f   nafxcwd:dlgcore.obj
 0001:00064cfd       ?CreateDlg@CWnd@@IAEHPBDPAV1@@Z 00465cfd f   nafxcwd:dlgcore.obj
 0001:00064dac       ?CreateDlgIndirect@CWnd@@IAEHPBUDLGTEMPLATE@@PAV1@@Z 00465dac f   nafxcwd:dlgcore.obj
 0001:00064dcb       ?CreateDlgIndirect@CWnd@@IAEHPBUDLGTEMPLATE@@PAV1@PAUHINSTANCE__@@@Z 00465dcb f   nafxcwd:dlgcore.obj
 0001:000651fc       ?SetOccDialogInfo@CDialog@@MAEHPAU_AFX_OCC_DIALOG_INFO@@@Z 004661fc f   nafxcwd:dlgcore.obj
 0001:00065217       ??0CDialog@@QAE@PBDPAVCWnd@@@Z 00466217 f   nafxcwd:dlgcore.obj
 0001:000652f7       ??0CDialog@@QAE@IPAVCWnd@@@Z 004662f7 f   nafxcwd:dlgcore.obj
 0001:0006534c       ?InitModalIndirect@CDialog@@QAEHPAXPAVCWnd@@@Z 0046634c f   nafxcwd:dlgcore.obj
 0001:000653e5       ?InitModalIndirect@CDialog@@QAEHPBUDLGTEMPLATE@@PAVCWnd@@PAX@Z 004663e5 f   nafxcwd:dlgcore.obj
 0001:00065487       ?PreModal@CDialog@@IAEPAUHWND__@@XZ 00466487 f   nafxcwd:dlgcore.obj
 0001:000654fc       ?PostModal@CDialog@@IAEXXZ 004664fc f   nafxcwd:dlgcore.obj
 0001:00065558       ?DoModal@CDialog@@UAEHXZ   00466558 f   nafxcwd:dlgcore.obj
 0001:00065807       ?EndDialog@CDialog@@QAEXH@Z 00466807 f   nafxcwd:dlgcore.obj
 0001:00065872       ?HandleSetFont@CDialog@@IAEJIJ@Z 00466872 f   nafxcwd:dlgcore.obj
 0001:0006589f       ?PreInitDialog@CDialog@@MAEXXZ 0046689f f   nafxcwd:dlgcore.obj
 0001:000658aa       ?HandleInitDialog@CDialog@@IAEJIJ@Z 004668aa f   nafxcwd:dlgcore.obj
 0001:0006599d       ?AfxHelpEnabled@@YGHXZ     0046699d f   nafxcwd:dlgcore.obj
 0001:00065a05       ?OnSetFont@CDialog@@UAEXPAVCFont@@@Z 00466a05 f   nafxcwd:dlgcore.obj
 0001:00065a12       ?OnInitDialog@CDialog@@UAEHXZ 00466a12 f   nafxcwd:dlgcore.obj
 0001:00065ad2       ?OnOK@CDialog@@MAEXXZ      00466ad2 f   nafxcwd:dlgcore.obj
 0001:00065b09       ?OnCancel@CDialog@@MAEXXZ  00466b09 f   nafxcwd:dlgcore.obj
 0001:00065b1e       ?CheckAutoCenter@CDialog@@UAEHXZ 00466b1e f   nafxcwd:dlgcore.obj
 0001:00065c4d       ?OnCtlColor@CDialog@@IAEPAUHBRUSH__@@PAVCDC@@PAVCWnd@@I@Z 00466c4d f   nafxcwd:dlgcore.obj
 0001:00065c6e       ?OnCommandHelp@CDialog@@IAEJIJ@Z 00466c6e f   nafxcwd:dlgcore.obj
 0001:00065ccc       ?OnHelpHitTest@CDialog@@IAEJIJ@Z 00466ccc f   nafxcwd:dlgcore.obj
 0001:00065cf1       ?AssertValid@CDialog@@UBEXXZ 00466cf1 f   nafxcwd:dlgcore.obj
 0001:00065d04       ?Dump@CDialog@@UBEXAAVCDumpContext@@@Z 00466d04 f   nafxcwd:dlgcore.obj
 0001:00065ddf       ?_AfxCheckDialogTemplate@@YGHPBDH@Z 00466ddf f   nafxcwd:dlgcore.obj
 0001:00065fb0       ??_GCDialog@@UAEPAXI@Z     00466fb0 f i nafxcwd:dlgcore.obj
 0001:00065fb0       ??_ECDialog@@UAEPAXI@Z     00466fb0 f i nafxcwd:dlgcore.obj
 0001:00065fe0       ??3CException@@SGXPAX@Z    00466fe0 f   nafxcwd:except.obj
 0001:00066051       ??3CException@@SGXPAXPBDH@Z 00467051 f   nafxcwd:except.obj
 0001:00066061       ??0CException@@QAE@XZ      00467061 f   nafxcwd:except.obj
 0001:00066094       ??0CException@@QAE@H@Z     00467094 f   nafxcwd:except.obj
 0001:000660c8       ?Delete@CException@@QAEXXZ 004670c8 f   nafxcwd:except.obj
 0001:00066113       ?GetErrorMessage@CException@@UAEHPADIPAI@Z 00467113 f   nafxcwd:except.obj
 0001:00066143       ?ReportError@CException@@UAEHII@Z 00467143 f   nafxcwd:except.obj
 0001:000661c3       ??0AFX_EXCEPTION_LINK@@QAE@XZ 004671c3 f   nafxcwd:except.obj
 0001:000661f7       ?AfxTryCleanup@@YGXXZ      004671f7 f   nafxcwd:except.obj
 0001:00066255       ?AfxThrowLastCleanup@@YGXXZ 00467255 f   nafxcwd:except.obj
 0001:00066280       ?AfxGetExceptionContext@@YAPAUAFX_EXCEPTION_CONTEXT@@XZ 00467280 f i nafxcwd:except.obj
 0001:000662b0       ?GetRuntimeClass@CObject@@UBEPAUCRuntimeClass@@XZ 004672b0 f   nafxcwd:objcore.obj
 0001:000662c0       ?IsKindOf@CObject@@QBEHPBUCRuntimeClass@@@Z 004672c0 f   nafxcwd:objcore.obj
 0001:00066333       ?AfxDynamicDownCast@@YAPAVCObject@@PAUCRuntimeClass@@PAV1@@Z 00467333 f   nafxcwd:objcore.obj
 0001:00066355       ?AfxStaticDownCast@@YAPAVCObject@@PAUCRuntimeClass@@PAV1@@Z 00467355 f   nafxcwd:objcore.obj
 0001:00066390       ?AfxAssertValidObject@@YGXPBVCObject@@PBDH@Z 00467390 f   nafxcwd:objcore.obj
 0001:0006649a       ?AssertValid@CObject@@UBEXXZ 0046749a f   nafxcwd:objcore.obj
 0001:000664c8       ?Dump@CObject@@UBEXAAVCDumpContext@@@Z 004674c8 f   nafxcwd:objcore.obj
 0001:00066519       ?CreateObject@CRuntimeClass@@QAEPAVCObject@@XZ 00467519 f   nafxcwd:objcore.obj
 0001:000665d1       ?IsSerializable@CObject@@QBEHXZ 004675d1 f   nafxcwd:objcore.obj
 0001:000665f4       ?AfxClassInit@@YGXPAUCRuntimeClass@@@Z 004675f4 f   nafxcwd:objcore.obj
 0001:00066623       ??0AFX_CLASSINIT_COMPAT@@QAE@PAUCRuntimeClass@@@Z 00467623 f   nafxcwd:objcore.obj
 0001:0006665a       ?IsDerivedFrom@CRuntimeClass@@QBEHPBU1@@Z 0046765a f   nafxcwd:objcore.obj
 0001:0006672d       ?AfxDoForAllClasses@@YGXP6AXPBUCRuntimeClass@@PAX@Z1@Z 0046772d f   nafxcwd:objcore.obj
 0001:00066780       ?AddHead@?$CTypedSimpleList@PAUCRuntimeClass@@@@QAEXPAUCRuntimeClass@@@Z 00467780 f i nafxcwd:objcore.obj
 0001:000667a0       ??B?$CTypedSimpleList@PAUCRuntimeClass@@@@QAEPAUCRuntimeClass@@XZ 004677a0 f i nafxcwd:objcore.obj
 0001:000667c0       ?AfxLockTempMaps@@YGXXZ    004677c0 f   nafxcwd:winhand.obj
 0001:000667df       ?AfxUnlockTempMaps@@YGHH@Z 004677df f   nafxcwd:winhand.obj
 0001:0006699c       ??0CHandleMap@@QAE@PAUCRuntimeClass@@IH@Z 0046799c f   nafxcwd:winhand.obj
 0001:00066a70       ?FromHandle@CHandleMap@@QAEPAVCObject@@PAX@Z 00467a70 f   nafxcwd:winhand.obj
 0001:00066c9a       ?SetPermanent@CHandleMap@@QAEXPAXPAVCObject@@@Z 00467c9a f   nafxcwd:winhand.obj
 0001:00066cd0       ?RemoveHandle@CHandleMap@@QAEXPAX@Z 00467cd0 f   nafxcwd:winhand.obj
 0001:00066db4       ?DeleteTemp@CHandleMap@@QAEXXZ 00467db4 f   nafxcwd:winhand.obj
 0001:00066eea       ?DeleteTempMap@CWnd@@SGXXZ 00467eea f   nafxcwd:winhand.obj
 0001:00066f05       ?DeleteTempMap@CImageList@@SGXXZ 00467f05 f   nafxcwd:winhand.obj
 0001:00066f20       ?DeleteTempMap@CDC@@SGXXZ  00467f20 f   nafxcwd:winhand.obj
 0001:00066f3b       ?DeleteTempMap@CGdiObject@@SGXXZ 00467f3b f   nafxcwd:winhand.obj
 0001:00066f56       ?DeleteTempMap@CMenu@@SGXXZ 00467f56 f   nafxcwd:winhand.obj
 0001:00066f80       ?UpdateSysColors@AUX_DATA@@QAEXXZ 00467f80 f   nafxcwd:auxdata.obj
 0001:00067033       ?UpdateSysMetrics@AUX_DATA@@QAEXXZ 00468033 f   nafxcwd:auxdata.obj
 0001:000670e0       ?afxMapHMENU@@YGPAVCHandleMap@@H@Z 004680e0 f   nafxcwd:winmenu.obj
 0001:000671a9       ?FromHandle@CMenu@@SGPAV1@PAUHMENU__@@@Z 004681a9 f   nafxcwd:winmenu.obj
 0001:0006721c       ?FromHandlePermanent@CMenu@@SGPAV1@PAUHMENU__@@@Z 0046821c f   nafxcwd:winmenu.obj
 0001:0006727f       ?AssertValid@CMenu@@UBEXXZ 0046827f f   nafxcwd:winmenu.obj
 0001:000672c9       ?Dump@CMenu@@UBEXAAVCDumpContext@@@Z 004682c9 f   nafxcwd:winmenu.obj
 0001:0006730a       ?Attach@CMenu@@QAEHPAUHMENU__@@@Z 0046830a f   nafxcwd:winmenu.obj
 0001:0006738e       ?Detach@CMenu@@QAEPAUHMENU__@@XZ 0046838e f   nafxcwd:winmenu.obj
 0001:000673d6       ?DestroyMenu@CMenu@@QAEHXZ 004683d6 f   nafxcwd:winmenu.obj
 0001:000673fd       ?DrawItem@CMenu@@UAEXPAUtagDRAWITEMSTRUCT@@@Z 004683fd f   nafxcwd:winmenu.obj
 0001:0006740a       ?MeasureItem@CMenu@@UAEXPAUtagMEASUREITEMSTRUCT@@@Z 0046840a f   nafxcwd:winmenu.obj
 0001:00067420       ?ThrowOsError@CFileException@@SGXJPBD@Z 00468420 f   nafxcwd:filex.obj
 0001:00067444       ?ThrowErrno@CFileException@@SGXHPBD@Z 00468444 f   nafxcwd:filex.obj
 0001:0006746c       ?GetErrorMessage@CFileException@@UAEHPADIPAI@Z 0046846c f   nafxcwd:filex.obj
 0001:0006757b       ?Dump@CFileException@@UBEXAAVCDumpContext@@@Z 0046857b f   nafxcwd:filex.obj
 0001:00067600       ?AfxThrowFileException@@YGXHJPBD@Z 00468600 f   nafxcwd:filex.obj
 0001:000676d3       ?ErrnoToException@CFileException@@SGHH@Z 004686d3 f   nafxcwd:filex.obj
 0001:0006777e       ?OsErrorToException@CFileException@@SGHJ@Z 0046877e f   nafxcwd:filex.obj
 0001:00067ce0       ?LoadStringA@CString@@QAEHI@Z 00468ce0 f   nafxcwd:winstr.obj
 0001:00067da0       ?AfxLoadString@@YGHIPADI@Z 00468da0 f   nafxcwd:winstr.obj
 0001:00067e2f       ?AfxExtractSubString@@YGHAAVCString@@PBDHD@Z 00468e2f f   nafxcwd:winstr.obj
 0001:00067f10       ?_AfxAbbreviateName@@YGXPADHH@Z 00468f10 f   nafxcwd:filelist.obj
 0001:0006815a       ??0CRecentFileList@@QAE@IPBD0HH@Z 0046915a f   nafxcwd:filelist.obj
 0001:00068299       ??1CRecentFileList@@UAE@XZ 00469299 f   nafxcwd:filelist.obj
 0001:00068330       ?Add@CRecentFileList@@UAEXPBD@Z 00469330 f   nafxcwd:filelist.obj
 0001:000684d2       ?Remove@CRecentFileList@@UAEXH@Z 004694d2 f   nafxcwd:filelist.obj
 0001:000685b3       ?GetDisplayName@CRecentFileList@@QBEHAAVCString@@HPBDHH@Z 004695b3 f   nafxcwd:filelist.obj
 0001:0006879d       ?UpdateMenu@CRecentFileList@@UAEXPAVCCmdUI@@@Z 0046979d f   nafxcwd:filelist.obj
 0001:00068c23       ?WriteList@CRecentFileList@@UAEXXZ 00469c23 f   nafxcwd:filelist.obj
 0001:00068d7b       ?ReadList@CRecentFileList@@UAEXXZ 00469d7b f   nafxcwd:filelist.obj
 0001:00068f00       ??_GCRecentFileList@@UAEPAXI@Z 00469f00 f i nafxcwd:filelist.obj
 0001:00068f00       ??_ECRecentFileList@@UAEPAXI@Z 00469f00 f i nafxcwd:filelist.obj
 0001:00068f30       ??_ECString@@QAEPAXI@Z     00469f30 f i nafxcwd:filelist.obj
 0001:00068fa0       ?_AfxConvertDialogUnitsToPixels@@YGXPBDGHHPAUtagSIZE@@@Z 00469fa0 f   nafxcwd:dlgtempl.obj
 0001:000690e9       ??0CDialogTemplate@@QAE@PBUDLGTEMPLATE@@@Z 0046a0e9 f   nafxcwd:dlgtempl.obj
 0001:00069137       ??0CDialogTemplate@@QAE@PAX@Z 0046a137 f   nafxcwd:dlgtempl.obj
 0001:0006919e       ?SetTemplate@CDialogTemplate@@IAEHPBUDLGTEMPLATE@@I@Z 0046a19e f   nafxcwd:dlgtempl.obj
 0001:00069227       ??1CDialogTemplate@@QAE@XZ 0046a227 f   nafxcwd:dlgtempl.obj
 0001:00069246       ?Load@CDialogTemplate@@QAEHPBD@Z 0046a246 f   nafxcwd:dlgtempl.obj
 0001:000692d5       ?Detach@CDialogTemplate@@QAEPAXXZ 0046a2d5 f   nafxcwd:dlgtempl.obj
 0001:000692f6       ?HasFont@CDialogTemplate@@QBEHXZ 0046a2f6 f   nafxcwd:dlgtempl.obj
 0001:00069330       ?GetFontSizeField@CDialogTemplate@@KAPAEPBUDLGTEMPLATE@@@Z 0046a330 f   nafxcwd:dlgtempl.obj
 0001:000693e1       ?GetTemplateSize@CDialogTemplate@@KAIPBUDLGTEMPLATE@@@Z 0046a3e1 f   nafxcwd:dlgtempl.obj
 0001:00069522       ?GetFont@CDialogTemplate@@SAHPBUDLGTEMPLATE@@AAVCString@@AAG@Z 0046a522 f   nafxcwd:dlgtempl.obj
 0001:000695cc       ?GetFont@CDialogTemplate@@QBEHAAVCString@@AAG@Z 0046a5cc f   nafxcwd:dlgtempl.obj
 0001:00069638       ?SetFont@CDialogTemplate@@QAEHPBDG@Z 0046a638 f   nafxcwd:dlgtempl.obj
 0001:0006980a       ?SetSystemFont@CDialogTemplate@@QAEHG@Z 0046a80a f   nafxcwd:dlgtempl.obj
 0001:000698ca       ?GetSizeInDialogUnits@CDialogTemplate@@QBEXPAUtagSIZE@@@Z 0046a8ca f   nafxcwd:dlgtempl.obj
 0001:00069991       ?GetSizeInPixels@CDialogTemplate@@QBEXPAUtagSIZE@@@Z 0046a991 f   nafxcwd:dlgtempl.obj
 0001:00069ae0       ?IsDialogEx@@YAHPBUDLGTEMPLATE@@@Z 0046aae0 f i nafxcwd:dlgtempl.obj
 0001:00069b00       ?HasFont@@YAHPBUDLGTEMPLATE@@@Z 0046ab00 f i nafxcwd:dlgtempl.obj
 0001:00069b40       ?FontAttrSize@@YAHH@Z      0046ab40 f i nafxcwd:dlgtempl.obj
 0001:00069b60       ?_SkipString@@YAPAGPAG@Z   0046ab60 f i nafxcwd:dlgtempl.obj
 0001:00069b80       ?IsDirSep@@YAHD@Z          0046ab80 f i nafxcwd:filecore.obj
 0001:00069bb0       ??0CFile@@QAE@XZ           0046abb0 f   nafxcwd:filecore.obj
 0001:00069c1b       ??0CFile@@QAE@H@Z          0046ac1b f   nafxcwd:filecore.obj
 0001:00069c87       ??0CFile@@QAE@PBDI@Z       0046ac87 f   nafxcwd:filecore.obj
 0001:00069d5e       ??1CFile@@UAE@XZ           0046ad5e f   nafxcwd:filecore.obj
 0001:00069dd0       ?Duplicate@CFile@@UBEPAV1@XZ 0046add0 f   nafxcwd:filecore.obj
 0001:00069f13       ?Open@CFile@@UAEHPBDIPAVCFileException@@@Z 0046af13 f   nafxcwd:filecore.obj
 0001:0006a275       ?Read@CFile@@UAEIPAXI@Z    0046b275 f   nafxcwd:filecore.obj
 0001:0006a347       ?Write@CFile@@UAEXPBXI@Z   0046b347 f   nafxcwd:filecore.obj
 0001:0006a43e       ?Seek@CFile@@UAEJJI@Z      0046b43e f   nafxcwd:filecore.obj
 0001:0006a4f3       ?GetPosition@CFile@@UBEKXZ 0046b4f3 f   nafxcwd:filecore.obj
 0001:0006a569       ?Flush@CFile@@UAEXXZ       0046b569 f   nafxcwd:filecore.obj
 0001:0006a5b1       ?Close@CFile@@UAEXXZ       0046b5b1 f   nafxcwd:filecore.obj
 0001:0006a652       ?Abort@CFile@@UAEXXZ       0046b652 f   nafxcwd:filecore.obj
 0001:0006a69b       ?LockRange@CFile@@UAEXKK@Z 0046b69b f   nafxcwd:filecore.obj
 0001:0006a70f       ?UnlockRange@CFile@@UAEXKK@Z 0046b70f f   nafxcwd:filecore.obj
 0001:0006a783       ?SetLength@CFile@@UAEXK@Z  0046b783 f   nafxcwd:filecore.obj
 0001:0006a7fc       ?GetLength@CFile@@UBEKXZ   0046b7fc f   nafxcwd:filecore.obj
 0001:0006a878       ?GetBufferPtr@CFile@@UAEIIIPAPAX0@Z 0046b878 f   nafxcwd:filecore.obj
 0001:0006a8ad       ?Rename@CFile@@SGXPBD0@Z   0046b8ad f   nafxcwd:filecore.obj
 0001:0006a8d4       ?Remove@CFile@@SGXPBD@Z    0046b8d4 f   nafxcwd:filecore.obj
 0001:0006a8f7       ?CreateInstance@AFX_COM@@QAEJABU_GUID@@PAUIUnknown@@0PAPAX@Z 0046b8f7 f   nafxcwd:filecore.obj
 0001:0006a980       ?GetClassObject@AFX_COM@@QAEJABU_GUID@@0PAPAX@Z 0046b980 f   nafxcwd:filecore.obj
 0001:0006aacc       ?AfxStringFromCLSID@@YG?AVCString@@ABU_GUID@@@Z 0046bacc f   nafxcwd:filecore.obj
 0001:0006ab7c       ?AfxGetInProcServer@@YGHPBDAAVCString@@@Z 0046bb7c f   nafxcwd:filecore.obj
 0001:0006ac5b       ?AfxResolveShortcut@@YGHPAVCWnd@@PBDPADH@Z 0046bc5b f   nafxcwd:filecore.obj
 0001:0006adff       ?AfxFullPath@@YGHPADPBD@Z  0046bdff f   nafxcwd:filecore.obj
 0001:0006afa4       ?AfxGetRoot@@YGXPBDAAVCString@@@Z 0046bfa4 f   nafxcwd:filecore.obj
 0001:0006b19a       ?AfxComparePath@@YGHPBD0@Z 0046c19a f   nafxcwd:filecore.obj
 0001:0006b3df       ?AfxGetFileTitle@@YGIPBDPADI@Z 0046c3df f   nafxcwd:filecore.obj
 0001:0006b4c4       ?AfxGetModuleShortFileName@@YGXPAUHINSTANCE__@@AAVCString@@@Z 0046c4c4 f   nafxcwd:filecore.obj
 0001:0006b526       ?AssertValid@CFile@@UBEXXZ 0046c526 f   nafxcwd:filecore.obj
 0001:0006b539       ?Dump@CFile@@UBEXAAVCDumpContext@@@Z 0046c539 f   nafxcwd:filecore.obj
 0001:0006b5a0       ??_ECFile@@UAEPAXI@Z       0046c5a0 f i nafxcwd:filecore.obj
 0001:0006b5a0       ??_GCFile@@UAEPAXI@Z       0046c5a0 f i nafxcwd:filecore.obj
 0001:0006b5d0       ?Dump@CFileStatus@@QBEXAAVCDumpContext@@@Z 0046c5d0 f   nafxcwd:filest.obj
 0001:0006b6ba       ?GetFileName@CFile@@UBE?AVCString@@XZ 0046c6ba f   nafxcwd:filest.obj
 0001:0006b78a       ?GetFileTitle@CFile@@UBE?AVCString@@XZ 0046c78a f   nafxcwd:filest.obj
 0001:0006b85a       ?GetFilePath@CFile@@UBE?AVCString@@XZ 0046c85a f   nafxcwd:filest.obj
 0001:0006b8c9       ?GetStatus@CFile@@QBEHAAUCFileStatus@@@Z 0046c8c9 f   nafxcwd:filest.obj
 0001:0006ba5c       ?GetStatus@CFile@@SGHPBDAAUCFileStatus@@@Z 0046ca5c f   nafxcwd:filest.obj
 0001:0006bbb8       ?AfxTimeToFileTime@@YAXABVCTime@@PAU_FILETIME@@@Z 0046cbb8 f   nafxcwd:filest.obj
 0001:0006bc50       ?SetStatus@CFile@@SGXPBDABUCFileStatus@@@Z 0046cc50 f   nafxcwd:filest.obj
 0001:0006bdf7       ?GetStatus@CMemFile@@QBEHAAUCFileStatus@@@Z 0046cdf7 f   nafxcwd:filest.obj
 0001:0006be60       ?AfxWinMain@@YGHPAUHINSTANCE__@@0PADH@Z 0046ce60 f   nafxcwd:winmain.obj
 0001:00071e40       ??6@YGAAVCDumpContext@@AAV0@UtagSIZE@@@Z 00472e40 f   nafxcwd:wingdi.obj
 0001:00071e82       ??6@YGAAVCDumpContext@@AAV0@UtagPOINT@@@Z 00472e82 f   nafxcwd:wingdi.obj
 0001:00071ec4       ??6@YGAAVCDumpContext@@AAV0@ABUtagRECT@@@Z 00472ec4 f   nafxcwd:wingdi.obj
 0001:00071f3f       ??0CDC@@QAE@XZ             00472f3f f   nafxcwd:wingdi.obj
 0001:00071f7c       ?AssertValid@CDC@@UBEXXZ   00472f7c f   nafxcwd:wingdi.obj
 0001:00071f8f       ?Dump@CDC@@UBEXAAVCDumpContext@@@Z 00472f8f f   nafxcwd:wingdi.obj
 0001:00072006       ?afxMapHDC@@YGPAVCHandleMap@@H@Z 00473006 f   nafxcwd:wingdi.obj
 0001:000720c4       ?FromHandle@CDC@@SGPAV1@PAUHDC__@@@Z 004730c4 f   nafxcwd:wingdi.obj
 0001:00072137       ?Attach@CDC@@QAEHPAUHDC__@@@Z 00473137 f   nafxcwd:wingdi.obj
 0001:000721ed       ?Detach@CDC@@QAEPAUHDC__@@XZ 004731ed f   nafxcwd:wingdi.obj
 0001:00072240       ?DeleteDC@CDC@@QAEHXZ      00473240 f   nafxcwd:wingdi.obj
 0001:00072267       ??1CDC@@UAE@XZ             00473267 f   nafxcwd:wingdi.obj
 0001:000722c8       ?SetAttribDC@CDC@@UAEXPAUHDC__@@@Z 004732c8 f   nafxcwd:wingdi.obj
 0001:000722de       ?SetOutputDC@CDC@@UAEXPAUHDC__@@@Z 004732de f   nafxcwd:wingdi.obj
 0001:00072355       ?ReleaseAttribDC@CDC@@UAEXXZ 00473355 f   nafxcwd:wingdi.obj
 0001:0007236a       ?ReleaseOutputDC@CDC@@UAEXXZ 0047336a f   nafxcwd:wingdi.obj
 0001:000723e0       ?StartDocA@CDC@@QAEHPBD@Z  004733e0 f   nafxcwd:wingdi.obj
 0001:00072418       ?SaveDC@CDC@@UAEHXZ        00473418 f   nafxcwd:wingdi.obj
 0001:00072497       ?RestoreDC@CDC@@UAEHH@Z    00473497 f   nafxcwd:wingdi.obj
 0001:00072563       ?SelectGdiObject@CDC@@KGPAVCGdiObject@@PAUHDC__@@PAX@Z 00473563 f   nafxcwd:wingdi.obj
 0001:0007257e       ?SelectStockObject@CDC@@UAEPAVCGdiObject@@H@Z 0047357e f   nafxcwd:wingdi.obj
 0001:00072632       ?SelectObject@CDC@@QAEPAVCPen@@PAV2@@Z 00473632 f   nafxcwd:wingdi.obj
 0001:000726c3       ?SelectObject@CDC@@QAEPAVCBrush@@PAV2@@Z 004736c3 f   nafxcwd:wingdi.obj
 0001:00072754       ?SelectObject@CDC@@UAEPAVCFont@@PAV2@@Z 00473754 f   nafxcwd:wingdi.obj
 0001:000727e5       ?SelectObject@CDC@@QAEHPAVCRgn@@@Z 004737e5 f   nafxcwd:wingdi.obj
 0001:00072870       ?SelectPalette@CDC@@QAEPAVCPalette@@PAV2@H@Z 00473870 f   nafxcwd:wingdi.obj
 0001:000728c6       ?SetBkColor@CDC@@UAEKK@Z   004738c6 f   nafxcwd:wingdi.obj
 0001:00072947       ?SetBkMode@CDC@@QAEHH@Z    00473947 f   nafxcwd:wingdi.obj
 0001:000729c8       ?SetPolyFillMode@CDC@@QAEHH@Z 004739c8 f   nafxcwd:wingdi.obj
 0001:00072a49       ?SetROP2@CDC@@QAEHH@Z      00473a49 f   nafxcwd:wingdi.obj
 0001:00072aca       ?SetStretchBltMode@CDC@@QAEHH@Z 00473aca f   nafxcwd:wingdi.obj
 0001:00072b4b       ?SetTextColor@CDC@@UAEKK@Z 00473b4b f   nafxcwd:wingdi.obj
 0001:00072bcc       ?SetMapMode@CDC@@UAEHH@Z   00473bcc f   nafxcwd:wingdi.obj
 0001:00072c4d       ?SetViewportOrg@CDC@@UAE?AVCPoint@@HH@Z 00473c4d f   nafxcwd:wingdi.obj
 0001:00072d23       ?OffsetViewportOrg@CDC@@UAE?AVCPoint@@HH@Z 00473d23 f   nafxcwd:wingdi.obj
 0001:00072df9       ?SetViewportExt@CDC@@UAE?AVCSize@@HH@Z 00473df9 f   nafxcwd:wingdi.obj
 0001:00072ecf       ?ScaleViewportExt@CDC@@UAE?AVCSize@@HHHH@Z 00473ecf f   nafxcwd:wingdi.obj
 0001:00072fb5       ?SetWindowOrg@CDC@@QAE?AVCPoint@@HH@Z 00473fb5 f   nafxcwd:wingdi.obj
 0001:0007308b       ?OffsetWindowOrg@CDC@@QAE?AVCPoint@@HH@Z 0047408b f   nafxcwd:wingdi.obj
 0001:00073161       ?SetWindowExt@CDC@@UAE?AVCSize@@HH@Z 00474161 f   nafxcwd:wingdi.obj
 0001:00073237       ?ScaleWindowExt@CDC@@UAE?AVCSize@@HHHH@Z 00474237 f   nafxcwd:wingdi.obj
 0001:0007331d       ?GetClipBox@CDC@@UBEHPAUtagRECT@@@Z 0047431d f   nafxcwd:wingdi.obj
 0001:00073364       ?SelectClipRgn@CDC@@QAEHPAVCRgn@@@Z 00474364 f   nafxcwd:wingdi.obj
 0001:000733ef       ?ExcludeClipRect@CDC@@QAEHHHHH@Z 004743ef f   nafxcwd:wingdi.obj
 0001:00073488       ?ExcludeClipRect@CDC@@QAEHPBUtagRECT@@@Z 00474488 f   nafxcwd:wingdi.obj
 0001:00073537       ?IntersectClipRect@CDC@@QAEHHHHH@Z 00474537 f   nafxcwd:wingdi.obj
 0001:000735d0       ?IntersectClipRect@CDC@@QAEHPBUtagRECT@@@Z 004745d0 f   nafxcwd:wingdi.obj
 0001:0007367f       ?OffsetClipRgn@CDC@@QAEHHH@Z 0047467f f   nafxcwd:wingdi.obj
 0001:00073708       ?OffsetClipRgn@CDC@@QAEHUtagSIZE@@@Z 00474708 f   nafxcwd:wingdi.obj
 0001:00073791       ?MoveTo@CDC@@QAE?AVCPoint@@HH@Z 00474791 f   nafxcwd:wingdi.obj
 0001:00073867       ?LineTo@CDC@@QAEHHH@Z      00474867 f   nafxcwd:wingdi.obj
 0001:000738e0       ?SetTextAlign@CDC@@QAEII@Z 004748e0 f   nafxcwd:wingdi.obj
 0001:0007395e       ?SetTextJustification@CDC@@QAEHHH@Z 0047495e f   nafxcwd:wingdi.obj
 0001:000739e7       ?SetTextCharacterExtra@CDC@@QAEHH@Z 004749e7 f   nafxcwd:wingdi.obj
 0001:00073a68       ?SetMapperFlags@CDC@@QAEKK@Z 00474a68 f   nafxcwd:wingdi.obj
 0001:00073ae9       ?GetLayout@CDC@@QBEKXZ     00474ae9 f   nafxcwd:wingdi.obj
 0001:00073b8d       ?SetLayout@CDC@@QAEKK@Z    00474b8d f   nafxcwd:wingdi.obj
 0001:00073c3d       ?ScreenToClient@CWnd@@QBEXPAUtagRECT@@@Z 00474c3d f   nafxcwd:wingdi.obj
 0001:00073cbd       ?ClientToScreen@CWnd@@QBEXPAUtagRECT@@@Z 00474cbd f   nafxcwd:wingdi.obj
 0001:00073d3d       ?ArcTo@CDC@@QAEHHHHHHHHH@Z 00474d3d f   nafxcwd:wingdi.obj
 0001:00073e22       ?SetArcDirection@CDC@@QAEHH@Z 00474e22 f   nafxcwd:wingdi.obj
 0001:00073ea3       ?PolyDraw@CDC@@QAEHPBUtagPOINT@@PBEH@Z 00474ea3 f   nafxcwd:wingdi.obj
 0001:00073f74       ?PolylineTo@CDC@@QAEHPBUtagPOINT@@H@Z 00474f74 f   nafxcwd:wingdi.obj
 0001:00074041       ?SetColorAdjustment@CDC@@QAEHPBUtagCOLORADJUSTMENT@@@Z 00475041 f   nafxcwd:wingdi.obj
 0001:000740c2       ?PolyBezierTo@CDC@@QAEHPBUtagPOINT@@H@Z 004750c2 f   nafxcwd:wingdi.obj
 0001:0007418f       ?SelectClipPath@CDC@@QAEHH@Z 0047518f f   nafxcwd:wingdi.obj
 0001:00074256       ?SelectClipRgn@CDC@@QAEHPAVCRgn@@H@Z 00475256 f   nafxcwd:wingdi.obj
 0001:000742e9       ?AfxEnumMetaFileProc@@YGHPAUHDC__@@PAUtagHANDLETABLE@@PAUtagMETARECORD@@HJ@Z 004752e9 f   nafxcwd:wingdi.obj
 0001:00074645       ?PlayMetaFile@CDC@@QAEHPAUHMETAFILE__@@@Z 00475645 f   nafxcwd:wingdi.obj
 0001:00074693       ?LPtoDP@CDC@@QBEXPAUtagSIZE@@@Z 00475693 f   nafxcwd:wingdi.obj
 0001:00074759       ?DPtoLP@CDC@@QBEXPAUtagSIZE@@@Z 00475759 f   nafxcwd:wingdi.obj
 0001:0007481f       ?AssertValid@CClientDC@@UBEXXZ 0047581f f   nafxcwd:wingdi.obj
 0001:0007486c       ?Dump@CClientDC@@UBEXAAVCDumpContext@@@Z 0047586c f   nafxcwd:wingdi.obj
 0001:000748ad       ??0CClientDC@@QAE@PAVCWnd@@@Z 004758ad f   nafxcwd:wingdi.obj
 0001:0007495f       ??1CClientDC@@UAE@XZ       0047595f f   nafxcwd:wingdi.obj
 0001:000749e7       ?AssertValid@CWindowDC@@UBEXXZ 004759e7 f   nafxcwd:wingdi.obj
 0001:00074a34       ?Dump@CWindowDC@@UBEXAAVCDumpContext@@@Z 00475a34 f   nafxcwd:wingdi.obj
 0001:00074a75       ??0CWindowDC@@QAE@PAVCWnd@@@Z 00475a75 f   nafxcwd:wingdi.obj
 0001:00074b27       ??1CWindowDC@@UAE@XZ       00475b27 f   nafxcwd:wingdi.obj
 0001:00074baf       ?AssertValid@CPaintDC@@UBEXXZ 00475baf f   nafxcwd:wingdi.obj
 0001:00074bf3       ?Dump@CPaintDC@@UBEXAAVCDumpContext@@@Z 00475bf3 f   nafxcwd:wingdi.obj
 0001:00074c8f       ??0CPaintDC@@QAE@PAVCWnd@@@Z 00475c8f f   nafxcwd:wingdi.obj
 0001:00074d53       ??1CPaintDC@@UAE@XZ        00475d53 f   nafxcwd:wingdi.obj
 0001:00074e0c       ?Dump@CGdiObject@@UBEXAAVCDumpContext@@@Z 00475e0c f   nafxcwd:wingdi.obj
 0001:00074e4d       ?AssertValid@CGdiObject@@UBEXXZ 00475e4d f   nafxcwd:wingdi.obj
 0001:00074ea3       ?afxMapHGDIOBJ@@YGPAVCHandleMap@@H@Z 00475ea3 f   nafxcwd:wingdi.obj
 0001:00074f61       ?FromHandle@CGdiObject@@SGPAV1@PAX@Z 00475f61 f   nafxcwd:wingdi.obj
 0001:00074fda       ?Attach@CGdiObject@@QAEHPAX@Z 00475fda f   nafxcwd:wingdi.obj
 0001:00075064       ?Detach@CGdiObject@@QAEPAXXZ 00476064 f   nafxcwd:wingdi.obj
 0001:000750ac       ?DeleteObject@CGdiObject@@QAEHXZ 004760ac f   nafxcwd:wingdi.obj
 0001:000750d3       ??0CPen@@QAE@HHK@Z         004760d3 f   nafxcwd:wingdi.obj
 0001:00075145       ??0CPen@@QAE@HHPBUtagLOGBRUSH@@HPBK@Z 00476145 f   nafxcwd:wingdi.obj
 0001:000751bf       ?Dump@CPen@@UBEXAAVCDumpContext@@@Z 004761bf f   nafxcwd:wingdi.obj
 0001:0007529c       ??0CBrush@@QAE@K@Z         0047629c f   nafxcwd:wingdi.obj
 0001:00075306       ??0CBrush@@QAE@HK@Z        00476306 f   nafxcwd:wingdi.obj
 0001:00075374       ??0CBrush@@QAE@PAVCBitmap@@@Z 00476374 f   nafxcwd:wingdi.obj
 0001:000753f4       ?CreateDIBPatternBrush@CBrush@@QAEHPAXI@Z 004763f4 f   nafxcwd:wingdi.obj
 0001:0007547d       ?Dump@CBrush@@UBEXAAVCDumpContext@@@Z 0047647d f   nafxcwd:wingdi.obj
 0001:0007555a       ?Dump@CFont@@UBEXAAVCDumpContext@@@Z 0047655a f   nafxcwd:wingdi.obj
 0001:0007576c       ?Dump@CBitmap@@UBEXAAVCDumpContext@@@Z 0047676c f   nafxcwd:wingdi.obj
 0001:00075893       ?AfxThrowResourceException@@YGXXZ 00476893 f   nafxcwd:wingdi.obj
 0001:000758b0       ?AfxThrowUserException@@YGXXZ 004768b0 f   nafxcwd:wingdi.obj
 0001:000758d0       ??_GCDC@@UAEPAXI@Z         004768d0 f i nafxcwd:wingdi.obj
 0001:000758d0       ??_ECDC@@UAEPAXI@Z         004768d0 f i nafxcwd:wingdi.obj
 0001:00075900       ??_ECClientDC@@UAEPAXI@Z   00476900 f i nafxcwd:wingdi.obj
 0001:00075900       ??_GCClientDC@@UAEPAXI@Z   00476900 f i nafxcwd:wingdi.obj
 0001:00075930       ??_GCWindowDC@@UAEPAXI@Z   00476930 f i nafxcwd:wingdi.obj
 0001:00075930       ??_ECWindowDC@@UAEPAXI@Z   00476930 f i nafxcwd:wingdi.obj
 0001:00075960       ??_ECPaintDC@@UAEPAXI@Z    00476960 f i nafxcwd:wingdi.obj
 0001:00075960       ??_GCPaintDC@@UAEPAXI@Z    00476960 f i nafxcwd:wingdi.obj
 0001:00075990       ?OnAppExit@CWinApp@@IAEXXZ 00476990 f   nafxcwd:appui.obj
 0001:000759e0       ?AfxCustomLogFont@@YGHIPAUtagLOGFONTA@@@Z 004769e0 f   nafxcwd:winutil.obj
 0001:00075ac1       ?_AfxIsComboBoxControl@@YGHPAUHWND__@@I@Z 00476ac1 f   nafxcwd:winutil.obj
 0001:00075b13       ?_AfxCompareClassName@@YGHPAUHWND__@@PBD@Z 00476b13 f   nafxcwd:winutil.obj
 0001:00075b6d       ?_AfxChildWindowFromPoint@@YGPAUHWND__@@PAU1@UtagPOINT@@@Z 00476b6d f   nafxcwd:winutil.obj
 0001:00075c33       ?AfxSetWindowText@@YGXPAUHWND__@@PBD@Z 00476c33 f   nafxcwd:winutil.obj
 0001:00075c96       ?AfxDeleteObject@@YGXPAPAX@Z 00476c96 f   nafxcwd:winutil.obj
 0001:00075cdd       ?AfxCancelModes@@YGXPAUHWND__@@@Z 00476cdd f   nafxcwd:winutil.obj
 0001:00075d84       ?AfxGlobalFree@@YGXPAX@Z   00476d84 f   nafxcwd:winutil.obj
 0001:00075dff       ?AfxCriticalNewHandler@@YAHI@Z 00476dff f   nafxcwd:winutil.obj
 0001:00075f00       ??6@YGAAVCArchive@@AAV0@ABVCString@@@Z 00476f00 f   nafxcwd:arccore.obj
 0001:00075fae       ?_AfxReadStringLength@@YGIAAVCArchive@@@Z 00476fae f   nafxcwd:arccore.obj
 0001:0007602b       ??5@YGAAVCArchive@@AAV0@AAVCString@@@Z 0047702b f   nafxcwd:arccore.obj
 0001:0007615b       ?SerializeElements@@YGXAAVCArchive@@PAVCString@@H@Z 0047715b f   nafxcwd:arccore.obj
 0001:00076200       ?Load@CRuntimeClass@@SGPAU1@AAVCArchive@@PAI@Z 00477200 f   nafxcwd:arccore.obj
 0001:000762df       ?Store@CRuntimeClass@@QBEXAAVCArchive@@@Z 004772df f   nafxcwd:arccore.obj
 0001:00076332       ??0CArchive@@QAE@PAVCFile@@IHPAX@Z 00477332 f   nafxcwd:arccore.obj
 0001:00076580       ??1CArchive@@QAE@XZ        00477580 f   nafxcwd:arccore.obj
 0001:000765e9       ?Abort@CArchive@@QAEXXZ    004775e9 f   nafxcwd:arccore.obj
 0001:00076797       ?Close@CArchive@@QAEXXZ    00477797 f   nafxcwd:arccore.obj
 0001:000767ca       ?Read@CArchive@@QAEIPAXI@Z 004777ca f   nafxcwd:arccore.obj
 0001:00076c20       ?Write@CArchive@@QAEXPBXI@Z 00477c20 f   nafxcwd:arccore.obj
 0001:00076f5f       ?Flush@CArchive@@QAEXXZ    00477f5f f   nafxcwd:arccore.obj
 0001:000771b4       ?FillBuffer@CArchive@@QAEXI@Z 004781b4 f   nafxcwd:arccore.obj
 0001:00077525       ?WriteCount@CArchive@@QAEXK@Z 00478525 f   nafxcwd:arccore.obj
 0001:00077563       ?ReadCount@CArchive@@QAEKXZ 00478563 f   nafxcwd:arccore.obj
 0001:000775a6       ?WriteString@CArchive@@QAEXPBD@Z 004785a6 f   nafxcwd:arccore.obj
 0001:000775f9       ?ReadString@CArchive@@QAEPADPADI@Z 004785f9 f   nafxcwd:arccore.obj
 0001:00077788       ?ReadString@CArchive@@QAEHAAVCString@@@Z 00478788 f   nafxcwd:arccore.obj
 0001:00077870       ?GetErrorMessage@CArchiveException@@UAEHPADIPAI@Z 00478870 f   nafxcwd:arcex.obj
 0001:0007797f       ?Dump@CArchiveException@@UBEXAAVCDumpContext@@@Z 0047897f f   nafxcwd:arcex.obj
 0001:000779e9       ?AfxThrowArchiveException@@YGXHPBD@Z 004789e9 f   nafxcwd:arcex.obj
 0001:00077ab0       ?CheckCount@CArchive@@QAEXXZ 00478ab0 f   nafxcwd:arcobj.obj
 0001:00077ada       ?WriteObject@CArchive@@QAEXPBVCObject@@@Z 00478ada f   nafxcwd:arcobj.obj
 0001:00077c08       ?ReadObject@CArchive@@QAEPAVCObject@@PBUCRuntimeClass@@@Z 00478c08 f   nafxcwd:arcobj.obj
 0001:00077da6       ?GetObjectSchema@CArchive@@QAEIXZ 00478da6 f   nafxcwd:arcobj.obj
 0001:00077dc9       ?MapObject@CArchive@@QAEXPBVCObject@@@Z 00478dc9 f   nafxcwd:arcobj.obj
 0001:00077f9b       ?WriteClass@CArchive@@QAEXPBUCRuntimeClass@@@Z 00478f9b f   nafxcwd:arcobj.obj
 0001:000780bf       ?ReadClass@CArchive@@QAEPAUCRuntimeClass@@PBU2@PAIPAK@Z 004790bf f   nafxcwd:arcobj.obj
 0001:00078437       ?SerializeClass@CArchive@@QAEXPBUCRuntimeClass@@@Z 00479437 f   nafxcwd:arcobj.obj
 0001:00078470       ??0CDocTemplate@@IAE@IPAUCRuntimeClass@@00@Z 00479470 f   nafxcwd:doctempl.obj
 0001:000786f2       ?LoadTemplate@CDocTemplate@@UAEXXZ 004796f2 f   nafxcwd:doctempl.obj
 0001:00078822       ?SetServerInfo@CDocTemplate@@QAEXIIPAUCRuntimeClass@@0@Z 00479822 f   nafxcwd:doctempl.obj
 0001:0007891b       ?SetContainerInfo@CDocTemplate@@QAEXI@Z 0047991b f   nafxcwd:doctempl.obj
 0001:0007896b       ??1CDocTemplate@@UAE@XZ    0047996b f   nafxcwd:doctempl.obj
 0001:00078a43       ?GetDocString@CDocTemplate@@UBEHAAVCString@@W4DocStringIndex@1@@Z 00479a43 f   nafxcwd:doctempl.obj
 0001:00078a6b       ?AddDocument@CDocTemplate@@UAEXPAVCDocument@@@Z 00479a6b f   nafxcwd:doctempl.obj
 0001:00078abd       ?RemoveDocument@CDocTemplate@@UAEXPAVCDocument@@@Z 00479abd f   nafxcwd:doctempl.obj
 0001:00078b12       ?MatchDocType@CDocTemplate@@UAE?AW4Confidence@1@PBDAAPAVCDocument@@@Z 00479b12 f   nafxcwd:doctempl.obj
 0001:00078c88       ?CreateNewDocument@CDocTemplate@@UAEPAVCDocument@@XZ 00479c88 f   nafxcwd:doctempl.obj
 0001:00078d48       ?CreateNewFrame@CDocTemplate@@UAEPAVCFrameWnd@@PAVCDocument@@PAV2@@Z 00479d48 f   nafxcwd:doctempl.obj
 0001:00078eb2       ?CreateOleFrame@CDocTemplate@@QAEPAVCFrameWnd@@PAVCWnd@@PAVCDocument@@H@Z 00479eb2 f   nafxcwd:doctempl.obj
 0001:00078fb2       ?InitialUpdateFrame@CDocTemplate@@UAEXPAVCFrameWnd@@PAVCDocument@@H@Z 00479fb2 f   nafxcwd:doctempl.obj
 0001:00078fcf       ?SaveAllModified@CDocTemplate@@UAEHXZ 00479fcf f   nafxcwd:doctempl.obj
 0001:0007901f       ?CloseAllDocuments@CDocTemplate@@UAEXH@Z 0047a01f f   nafxcwd:doctempl.obj
 0001:00079064       ?OnIdle@CDocTemplate@@UAEXXZ 0047a064 f   nafxcwd:doctempl.obj
 0001:000790eb       ?OnCmdMsg@CDocTemplate@@UAEHIHPAXPAUAFX_CMDHANDLERINFO@@@Z 0047a0eb f   nafxcwd:doctempl.obj
 0001:0007915b       ?Dump@CDocTemplate@@UBEXAAVCDumpContext@@@Z 0047a15b f   nafxcwd:doctempl.obj
 0001:00079253       ?AssertValid@CDocTemplate@@UBEXXZ 0047a253 f   nafxcwd:doctempl.obj
 0001:000792b0       ??_ECDocTemplate@@UAEPAXI@Z 0047a2b0 f i nafxcwd:doctempl.obj
 0001:000792b0       ??_GCDocTemplate@@UAEPAXI@Z 0047a2b0 f i nafxcwd:doctempl.obj
 0001:000792e0       ?GetMessageMap@CView@@MBEPBUAFX_MSGMAP@@XZ 0047a2e0 f   nafxcwd:viewcore.obj
 0001:000792f0       ??0CView@@IAE@XZ           0047a2f0 f   nafxcwd:viewcore.obj
 0001:00079319       ??1CView@@UAE@XZ           0047a319 f   nafxcwd:viewcore.obj
 0001:0007937a       ?PreCreateWindow@CView@@MAEHAAUtagCREATESTRUCTA@@@Z 0047a37a f   nafxcwd:viewcore.obj
 0001:00079427       ?OnCreate@CView@@IAEHPAUtagCREATESTRUCTA@@@Z 0047a427 f   nafxcwd:viewcore.obj
 0001:000794ce       ?OnDestroy@CView@@IAEXXZ   0047a4ce f   nafxcwd:viewcore.obj
 0001:0007950d       ?PostNcDestroy@CView@@MAEXXZ 0047a50d f   nafxcwd:viewcore.obj
 0001:00079545       ?CalcWindowRect@CView@@UAEXPAUtagRECT@@I@Z 0047a545 f   nafxcwd:viewcore.obj
 0001:00079606       ?OnCmdMsg@CView@@UAEHIHPAXPAUAFX_CMDHANDLERINFO@@@Z 0047a606 f   nafxcwd:viewcore.obj
 0001:000796ad       ?OnPaint@CView@@IAEXXZ     0047a6ad f   nafxcwd:viewcore.obj
 0001:00079721       ?OnInitialUpdate@CView@@UAEXXZ 0047a721 f   nafxcwd:viewcore.obj
 0001:00079740       ?OnUpdate@CView@@MAEXPAV1@JPAVCObject@@@Z 0047a740 f   nafxcwd:viewcore.obj
 0001:0007977f       ?OnPrint@CView@@MAEXPAVCDC@@PAUCPrintInfo@@@Z 0047a77f f   nafxcwd:viewcore.obj
 0001:000797b1       ?OnDraw@CView@@MAEXPAVCDC@@@Z 0047a7b1 f   nafxcwd:viewcore.obj
 0001:000797be       ?IsSelected@CView@@UBEHPBVCObject@@@Z 0047a7be f   nafxcwd:viewcore.obj
 0001:000797e0       ?OnActivateView@CView@@MAEXHPAV1@0@Z 0047a7e0 f   nafxcwd:viewcore.obj
 0001:0007982f       ?OnActivateFrame@CView@@MAEXIPAVCFrameWnd@@@Z 0047a82f f   nafxcwd:viewcore.obj
 0001:0007983c       ?OnMouseActivate@CView@@IAEHPAVCWnd@@II@Z 0047a83c f   nafxcwd:viewcore.obj
 0001:0007992a       ?OnScroll@CView@@UAEHIIH@Z 0047a92a f   nafxcwd:viewcore.obj
 0001:00079939       ?OnScrollBy@CView@@UAEHVCSize@@H@Z 0047a939 f   nafxcwd:viewcore.obj
 0001:00079948       ?OnDragScroll@CView@@UAEKKVCPoint@@@Z 0047a948 f   nafxcwd:viewcore.obj
 0001:0007995a       ?OnDragEnter@CView@@UAEKPAVCOleDataObject@@KVCPoint@@@Z 0047a95a f   nafxcwd:viewcore.obj
 0001:00079969       ?OnDragOver@CView@@UAEKPAVCOleDataObject@@KVCPoint@@@Z 0047a969 f   nafxcwd:viewcore.obj
 0001:00079978       ?OnDrop@CView@@UAEHPAVCOleDataObject@@KVCPoint@@@Z 0047a978 f   nafxcwd:viewcore.obj
 0001:00079987       ?OnDropEx@CView@@UAEKPAVCOleDataObject@@KKVCPoint@@@Z 0047a987 f   nafxcwd:viewcore.obj
 0001:00079997       ?OnDragLeave@CView@@UAEXXZ 0047a997 f   nafxcwd:viewcore.obj
 0001:000799a2       ?GetParentSplitter@CView@@SGPAVCSplitterWnd@@PBVCWnd@@H@Z 0047a9a2 f   nafxcwd:viewcore.obj
 0001:000799f8       ?GetScrollBarCtrl@CView@@UBEPAVCScrollBar@@H@Z 0047a9f8 f   nafxcwd:viewcore.obj
 0001:00079ae1       ?OnUpdateSplitCmd@CView@@IAEXPAVCCmdUI@@@Z 0047aae1 f   nafxcwd:viewcore.obj
 0001:00079b2e       ?OnSplitCmd@CView@@IAEHI@Z 0047ab2e f   nafxcwd:viewcore.obj
 0001:00079b94       ?OnUpdateNextPaneMenu@CView@@IAEXPAVCCmdUI@@@Z 0047ab94 f   nafxcwd:viewcore.obj
 0001:00079c2f       ?OnNextPaneCmd@CView@@IAEHI@Z 0047ac2f f   nafxcwd:viewcore.obj
 0001:00079ca8       ?OnPrepareDC@CView@@UAEXPAVCDC@@PAUCPrintInfo@@@Z 0047aca8 f   nafxcwd:viewcore.obj
 0001:00079d01       ?OnPreparePrinting@CView@@MAEHPAUCPrintInfo@@@Z 0047ad01 f   nafxcwd:viewcore.obj
 0001:00079d13       ?OnBeginPrinting@CView@@MAEXPAVCDC@@PAUCPrintInfo@@@Z 0047ad13 f   nafxcwd:viewcore.obj
 0001:00079d33       ?OnEndPrinting@CView@@MAEXPAVCDC@@PAUCPrintInfo@@@Z 0047ad33 f   nafxcwd:viewcore.obj
 0001:00079d53       ?OnEndPrintPreview@CView@@MAEXPAVCDC@@PAUCPrintInfo@@UtagPOINT@@PAVCPreviewView@@@Z 0047ad53 f   nafxcwd:viewcore.obj
 0001:00079e63       ?Dump@CView@@UBEXAAVCDumpContext@@@Z 0047ae63 f   nafxcwd:viewcore.obj
 0001:00079eaf       ?AssertValid@CView@@UBEXXZ 0047aeaf f   nafxcwd:viewcore.obj
 0001:00079ec2       ?GetMessageMap@CCtrlView@@MBEPBUAFX_MSGMAP@@XZ 0047aec2 f   nafxcwd:viewcore.obj
 0001:00079ed2       ??0CCtrlView@@QAE@PBDK@Z   0047aed2 f   nafxcwd:viewcore.obj
 0001:00079f47       ?PreCreateWindow@CCtrlView@@MAEHAAUtagCREATESTRUCTA@@@Z 0047af47 f   nafxcwd:viewcore.obj
 0001:00079ff7       ?OnDraw@CCtrlView@@MAEXPAVCDC@@@Z 0047aff7 f   nafxcwd:viewcore.obj
 0001:0007a02d       ?OnPaint@CCtrlView@@IAEXXZ 0047b02d f   nafxcwd:viewcore.obj
 0001:0007a040       ?Dump@CCtrlView@@UBEXAAVCDumpContext@@@Z 0047b040 f   nafxcwd:viewcore.obj
 0001:0007a08e       ?AssertValid@CCtrlView@@UBEXXZ 0047b08e f   nafxcwd:viewcore.obj
 0001:0007a0d0       ??_GCView@@UAEPAXI@Z       0047b0d0 f i nafxcwd:viewcore.obj
 0001:0007a0d0       ??_ECView@@UAEPAXI@Z       0047b0d0 f i nafxcwd:viewcore.obj
 0001:0007a100       ??_GCCtrlView@@UAEPAXI@Z   0047b100 f i nafxcwd:viewcore.obj
 0001:0007a100       ??_ECCtrlView@@UAEPAXI@Z   0047b100 f i nafxcwd:viewcore.obj
 0001:0007a130       ??1CCtrlView@@UAE@XZ       0047b130 f i nafxcwd:viewcore.obj
 0001:0007a180       ?GetMessageMap@CScrollView@@MBEPBUAFX_MSGMAP@@XZ 0047b180 f   nafxcwd:viewscrl.obj
 0001:0007a190       ?_AfxGetMouseScrollLines@@YGIXZ 0047b190 f   nafxcwd:viewscrl.obj
 0001:0007a2f4       ??0CScrollView@@IAE@XZ     0047b2f4 f   nafxcwd:viewscrl.obj
 0001:0007a389       ??1CScrollView@@UAE@XZ     0047b389 f   nafxcwd:viewscrl.obj
 0001:0007a3a5       ?OnPrepareDC@CScrollView@@UAEXPAVCDC@@PAUCPrintInfo@@@Z 0047b3a5 f   nafxcwd:viewscrl.obj
 0001:0007a631       ?SetScaleToFitSize@CScrollView@@QAEXUtagSIZE@@@Z 0047b631 f   nafxcwd:viewscrl.obj
 0001:0007a74d       ?SetScrollSizes@CScrollView@@QAEXHUtagSIZE@@ABU2@1@Z 0047b74d f   nafxcwd:viewscrl.obj
 0001:0007aa02       ?GetScrollPosition@CScrollView@@QBE?AVCPoint@@XZ 0047ba02 f   nafxcwd:viewscrl.obj
 0001:0007aaf1       ?ScrollToPosition@CScrollView@@QAEXUtagPOINT@@@Z 0047baf1 f   nafxcwd:viewscrl.obj
 0001:0007abf2       ?GetDeviceScrollPosition@CScrollView@@QBE?AVCPoint@@XZ 0047bbf2 f   nafxcwd:viewscrl.obj
 0001:0007acc9       ?GetDeviceScrollSizes@CScrollView@@QBEXAAHAAUtagSIZE@@11@Z 0047bcc9 f   nafxcwd:viewscrl.obj
 0001:0007ad2f       ?ScrollToDevicePosition@CScrollView@@IAEXUtagPOINT@@@Z 0047bd2f f   nafxcwd:viewscrl.obj
 0001:0007add8       ?FillOutsideRect@CScrollView@@QAEXPAVCDC@@PAVCBrush@@@Z 0047bdd8 f   nafxcwd:viewscrl.obj
 0001:0007aeb6       ?ResizeParentToFit@CScrollView@@QAEXH@Z 0047beb6 f   nafxcwd:viewscrl.obj
 0001:0007b0e3       ?OnSize@CScrollView@@QAEXIHH@Z 0047c0e3 f   nafxcwd:viewscrl.obj
 0001:0007b138       ?CenterOnPoint@CScrollView@@IAEXVCPoint@@@Z 0047c138 f   nafxcwd:viewscrl.obj
 0001:0007b262       ?GetScrollBarSizes@CScrollView@@IAEXAAVCSize@@@Z 0047c262 f   nafxcwd:viewscrl.obj
 0001:0007b2fd       ?GetTrueClientSize@CScrollView@@IAEHAAVCSize@@0@Z 0047c2fd f   nafxcwd:viewscrl.obj
 0001:0007b3ed       ?GetScrollBarState@CScrollView@@IAEXVCSize@@AAV2@1AAVCPoint@@H@Z 0047c3ed f   nafxcwd:viewscrl.obj
 0001:0007b563       ?UpdateBars@CScrollView@@IAEXXZ 0047c563 f   nafxcwd:viewscrl.obj
 0001:0007b79f       ?CalcWindowRect@CScrollView@@UAEXPAUtagRECT@@I@Z 0047c79f f   nafxcwd:viewscrl.obj
 0001:0007b88c       ?OnHScroll@CScrollView@@QAEXIIPAVCScrollBar@@@Z 0047c88c f   nafxcwd:viewscrl.obj
 0001:0007b8ea       ?OnVScroll@CScrollView@@QAEXIIPAVCScrollBar@@@Z 0047c8ea f   nafxcwd:viewscrl.obj
 0001:0007b94b       ?OnMouseWheel@CScrollView@@QAEHIFVCPoint@@@Z 0047c94b f   nafxcwd:viewscrl.obj
 0001:0007b992       ?DoMouseWheel@CScrollView@@QAEHIFVCPoint@@@Z 0047c992 f   nafxcwd:viewscrl.obj
 0001:0007bba9       ?OnScroll@CScrollView@@UAEHIIH@Z 0047cba9 f   nafxcwd:viewscrl.obj
 0001:0007bd4e       ?OnScrollBy@CScrollView@@UAEHVCSize@@H@Z 0047cd4e f   nafxcwd:viewscrl.obj
 0001:0007bed7       ?Dump@CScrollView@@UBEXAAVCDumpContext@@@Z 0047ced7 f   nafxcwd:viewscrl.obj
 0001:0007c0b5       ?AssertValid@CScrollView@@UBEXXZ 0047d0b5 f   nafxcwd:viewscrl.obj
 0001:0007c160       ??_ECScrollView@@UAEPAXI@Z 0047d160 f i nafxcwd:viewscrl.obj
 0001:0007c160       ??_GCScrollView@@UAEPAXI@Z 0047d160 f i nafxcwd:viewscrl.obj
 0001:0007c190       ?OpenDocumentFile@CDocManager@@UAEPAVCDocument@@PBD@Z 0047d190 f   nafxcwd:docmgr.obj
 0001:0007c4ce       ?GetOpenDocumentCount@CDocManager@@UAEHXZ 0047d4ce f   nafxcwd:docmgr.obj
 0001:0007c550       ?GetMessageMap@CDocument@@MBEPBUAFX_MSGMAP@@XZ 0047d550 f   nafxcwd:doccore.obj
 0001:0007c560       ??0CDocument@@QAE@XZ       0047d560 f   nafxcwd:doccore.obj
 0001:0007c62f       ??1CDocument@@UAE@XZ       0047d62f f   nafxcwd:doccore.obj
 0001:0007c735       ?OnFinalRelease@CDocument@@UAEXXZ 0047d735 f   nafxcwd:doccore.obj
 0001:0007c75e       ?DisconnectViews@CDocument@@QAEXXZ 0047d75e f   nafxcwd:doccore.obj
 0001:0007c7d2       ?SetTitle@CDocument@@UAEXPBD@Z 0047d7d2 f   nafxcwd:doccore.obj
 0001:0007c7fc       ?DeleteContents@CDocument@@UAEXXZ 0047d7fc f   nafxcwd:doccore.obj
 0001:0007c807       ?OnChangedViewList@CDocument@@UAEXXZ 0047d807 f   nafxcwd:doccore.obj
 0001:0007c848       ?UpdateFrameCounts@CDocument@@UAEXXZ 0047d848 f   nafxcwd:doccore.obj
 0001:0007ca9e       ?CanCloseFrame@CDocument@@UAEHPAVCFrameWnd@@@Z 0047da9e f   nafxcwd:doccore.obj
 0001:0007cb3d       ?PreCloseFrame@CDocument@@UAEXPAVCFrameWnd@@@Z 0047db3d f   nafxcwd:doccore.obj
 0001:0007cb4a       ?SetPathName@CDocument@@UAEXPBDH@Z 0047db4a f   nafxcwd:doccore.obj
 0001:0007cc57       ?OnFileClose@CDocument@@IAEXXZ 0047dc57 f   nafxcwd:doccore.obj
 0001:0007cc84       ?OnFileSave@CDocument@@IAEXXZ 0047dc84 f   nafxcwd:doccore.obj
 0001:0007cc9d       ?OnFileSaveAs@CDocument@@IAEXXZ 0047dc9d f   nafxcwd:doccore.obj
 0001:0007ccd0       ?DoFileSave@CDocument@@UAEHXZ 0047dcd0 f   nafxcwd:doccore.obj
 0001:0007cd65       ?DoSave@CDocument@@UAEHPBDH@Z 0047dd65 f   nafxcwd:doccore.obj
 0001:0007d00f       ?SaveModified@CDocument@@UAEHXZ 0047e00f f   nafxcwd:doccore.obj
 0001:0007d204       ?GetDefaultMenu@CDocument@@UAEPAUHMENU__@@XZ 0047e204 f   nafxcwd:doccore.obj
 0001:0007d211       ?GetDefaultAccelerator@CDocument@@UAEPAUHACCEL__@@XZ 0047e211 f   nafxcwd:doccore.obj
 0001:0007d21e       ?ReportSaveLoadException@CDocument@@UAEXPBDPAVCException@@HI@Z 0047e21e f   nafxcwd:doccore.obj
 0001:0007d490       ?GetTempName@CMirrorFile@@SA?AVCString@@PBDH@Z 0047e490 f   nafxcwd:doccore.obj
 0001:0007d564       ?Open@CMirrorFile@@UAEHPBDIPAVCFileException@@@Z 0047e564 f   nafxcwd:doccore.obj
 0001:0007d87e       ?Abort@CMirrorFile@@UAEXXZ 0047e87e f   nafxcwd:doccore.obj
 0001:0007d8b1       ?Close@CMirrorFile@@UAEXXZ 0047e8b1 f   nafxcwd:doccore.obj
 0001:0007db89       ?GetFile@CDocument@@UAEPAVCFile@@PBDIPAVCFileException@@@Z 0047eb89 f   nafxcwd:doccore.obj
 0001:0007dc6b       ?ReleaseFile@CDocument@@UAEXPAVCFile@@H@Z 0047ec6b f   nafxcwd:doccore.obj
 0001:0007dcf4       ?OnNewDocument@CDocument@@UAEHXZ 0047ecf4 f   nafxcwd:doccore.obj
 0001:0007dd48       ?OnOpenDocument@CDocument@@UAEHPBD@Z 0047ed48 f   nafxcwd:doccore.obj
 0001:0007e037       ?OnSaveDocument@CDocument@@UAEHPBD@Z 0047f037 f   nafxcwd:doccore.obj
 0001:0007e2ba       ?OnCloseDocument@CDocument@@UAEXXZ 0047f2ba f   nafxcwd:doccore.obj
 0001:0007e391       ?OnIdle@CDocument@@UAEXXZ  0047f391 f   nafxcwd:doccore.obj
 0001:0007e39c       ?AddView@CDocument@@QAEXPAVCView@@@Z 0047f39c f   nafxcwd:doccore.obj
 0001:0007e45a       ?RemoveView@CDocument@@QAEXPAVCView@@@Z 0047f45a f   nafxcwd:doccore.obj
 0001:0007e4d7       ?GetFirstViewPosition@CDocument@@UBEPAU__POSITION@@XZ 0047f4d7 f   nafxcwd:doccore.obj
 0001:0007e4ed       ?GetNextView@CDocument@@UBEPAVCView@@AAPAU__POSITION@@@Z 0047f4ed f   nafxcwd:doccore.obj
 0001:0007e570       ?UpdateAllViews@CDocument@@QAEXPAVCView@@JPAVCObject@@@Z 0047f570 f   nafxcwd:doccore.obj
 0001:0007e611       ?SendInitialUpdate@CDocument@@QAEXXZ 0047f611 f   nafxcwd:doccore.obj
 0001:0007e667       ?OnCmdMsg@CDocument@@UAEHIHPAXPAUAFX_CMDHANDLERINFO@@@Z 0047f667 f   nafxcwd:doccore.obj
 0001:0007e6ce       ?Dump@CDocument@@UBEXAAVCDumpContext@@@Z 0047f6ce f   nafxcwd:doccore.obj
 0001:0007e7ac       ?AssertValid@CDocument@@UBEXXZ 0047f7ac f   nafxcwd:doccore.obj
 0001:0007e800       ??_GCDocument@@UAEPAXI@Z   0047f800 f i nafxcwd:doccore.obj
 0001:0007e800       ??_ECDocument@@UAEPAXI@Z   0047f800 f i nafxcwd:doccore.obj
 0001:0007e830       ??0CFileStatus@@QAE@XZ     0047f830 f i nafxcwd:doccore.obj
 0001:0007e860       ??0CMirrorFile@@QAE@XZ     0047f860 f i nafxcwd:doccore.obj
 0001:0007e8c0       ??_GCMirrorFile@@UAEPAXI@Z 0047f8c0 f i nafxcwd:doccore.obj
 0001:0007e8c0       ??_ECMirrorFile@@UAEPAXI@Z 0047f8c0 f i nafxcwd:doccore.obj
 0001:0007e8f0       ??1CMirrorFile@@UAE@XZ     0047f8f0 f i nafxcwd:doccore.obj
 0001:00082c00       ?OnHelp@CWinApp@@IAEXXZ    00483c00 f   nafxcwd:apphelpx.obj
 0001:00082c80       ?OnHelpIndex@CWinApp@@IAEXXZ 00483c80 f   nafxcwd:apphelpx.obj
 0001:00082c9d       ?OnHelpFinder@CWinApp@@IAEXXZ 00483c9d f   nafxcwd:apphelpx.obj
 0001:00082cba       ?OnHelpUsing@CWinApp@@IAEXXZ 00483cba f   nafxcwd:apphelpx.obj
 0001:00082cd7       ?OnContextHelp@CWinApp@@IAEXXZ 00483cd7 f   nafxcwd:apphelpx.obj
 0001:00082d60       ?HideApplication@CWinApp@@QAEXXZ 00483d60 f   nafxcwd:appui.obj
 0001:00082db2       ?DoWaitCursor@CWinApp@@UAEXH@Z 00483db2 f   nafxcwd:appui.obj
 0001:00082e8b       ?SaveAllModified@CWinApp@@UAEHXZ 00483e8b f   nafxcwd:appui.obj
 0001:00082ec0       ?AddToRecentFileList@CWinApp@@UAEXPBD@Z 00483ec0 f   nafxcwd:appui.obj
 0001:00082f4d       ?OpenDocumentFile@CWinApp@@UAEPAVCDocument@@PBD@Z 00483f4d f   nafxcwd:appui.obj
 0001:00082f9e       ?CloseAllDocuments@CWinApp@@QAEXH@Z 00483f9e f   nafxcwd:appui.obj
 0001:00082fd2       ?OnUpdateRecentFileMenu@CWinApp@@IAEXPAVCCmdUI@@@Z 00483fd2 f   nafxcwd:appui.obj
 0001:00083024       ?OnDDECommand@CWinApp@@UAEHPAD@Z 00484024 f   nafxcwd:appui.obj
 0001:0008305c       ?OnOpenRecentFile@CWinApp@@IAEHI@Z 0048405c f   nafxcwd:appui.obj
 0001:000831c0       ?EnableModeless@CWinApp@@QAEXH@Z 004841c0 f   nafxcwd:appui1.obj
 0001:00083243       ?DoMessageBox@CWinApp@@UAEHPBDII@Z 00484243 f   nafxcwd:appui1.obj
 0001:00083421       ?AfxMessageBox@@YGHPBDII@Z 00484421 f   nafxcwd:appui1.obj
 0001:00083469       ?AfxMessageBox@@YGHIII@Z   00484469 f   nafxcwd:appui1.obj
 0001:00083524       ?GetSafeOwner_@CWnd@@SGPAUHWND__@@PAU2@PAPAU2@@Z 00484524 f   nafxcwd:appui1.obj
 0001:00083616       ?GetRoutingView_@CCmdTarget@@KGPAVCView@@XZ 00484616 f   nafxcwd:appui1.obj
 0001:00083648       ?GetRoutingFrame_@CCmdTarget@@KGPAVCFrameWnd@@XZ 00484648 f   nafxcwd:appui1.obj
 0001:00083680       ?GetMessageMap@CSplitterWnd@@MBEPBUAFX_MSGMAP@@XZ 00484680 f   nafxcwd:winsplit.obj
 0001:00083690       ??0CSplitterWnd@@QAE@XZ    00484690 f   nafxcwd:winsplit.obj
 0001:0008381c       ??1CSplitterWnd@@UAE@XZ    0048481c f   nafxcwd:winsplit.obj
 0001:00083891       ?Create@CSplitterWnd@@QAEHPAVCWnd@@HHUtagSIZE@@PAUCCreateContext@@KI@Z 00484891 f   nafxcwd:winsplit.obj
 0001:00083afa       ?CreateStatic@CSplitterWnd@@QAEHPAVCWnd@@HHKI@Z 00484afa f   nafxcwd:winsplit.obj
 0001:00083c7c       ?CreateCommon@CSplitterWnd@@IAEHPAVCWnd@@UtagSIZE@@KI@Z 00484c7c f   nafxcwd:winsplit.obj
 0001:00083f74       ?OnNcCreate@CSplitterWnd@@IAEHPAUtagCREATESTRUCTA@@@Z 00484f74 f   nafxcwd:winsplit.obj
 0001:00083fcb       ?CreateView@CSplitterWnd@@UAEHHHPAUCRuntimeClass@@UtagSIZE@@PAUCCreateContext@@@Z 00484fcb f   nafxcwd:winsplit.obj
 0001:000843b3       ?CreateScrollBarCtrl@CSplitterWnd@@UAEHKI@Z 004853b3 f   nafxcwd:winsplit.obj
 0001:0008445c       ?IdFromRowCol@CSplitterWnd@@QBEHHH@Z 0048545c f   nafxcwd:winsplit.obj
 0001:0008451c       ?GetPane@CSplitterWnd@@QBEPAVCWnd@@HH@Z 0048551c f   nafxcwd:winsplit.obj
 0001:00084583       ?IsChildPane@CSplitterWnd@@QAEHPAVCWnd@@PAH1@Z 00485583 f   nafxcwd:winsplit.obj
 0001:000846b5       ?GetRowInfo@CSplitterWnd@@QBEXHAAH0@Z 004856b5 f   nafxcwd:winsplit.obj
 0001:0008472f       ?SetRowInfo@CSplitterWnd@@QAEXHHH@Z 0048572f f   nafxcwd:winsplit.obj
 0001:000847e5       ?GetColumnInfo@CSplitterWnd@@QBEXHAAH0@Z 004857e5 f   nafxcwd:winsplit.obj
 0001:0008485f       ?SetColumnInfo@CSplitterWnd@@QAEXHHH@Z 0048585f f   nafxcwd:winsplit.obj
 0001:00084915       ?GetScrollStyle@CSplitterWnd@@QBEKXZ 00485915 f   nafxcwd:winsplit.obj
 0001:00084955       ?SetScrollStyle@CSplitterWnd@@QAEXK@Z 00485955 f   nafxcwd:winsplit.obj
 0001:00084b3d       ?DeleteView@CSplitterWnd@@UAEXHH@Z 00485b3d f   nafxcwd:winsplit.obj
 0001:00084bd5       ?OnDrawSplitter@CSplitterWnd@@MAEXPAVCDC@@W4ESplitType@1@ABVCRect@@@Z 00485bd5 f   nafxcwd:winsplit.obj
 0001:00084dd0       ?_AfxCanSplitRowCol@@YGHPAUCRowColInfo@CSplitterWnd@@HH@Z 00485dd0 f   nafxcwd:winsplit.obj
 0001:00084ec0       ?SplitRow@CSplitterWnd@@UAEHH@Z 00485ec0 f   nafxcwd:winsplit.obj
 0001:00085145       ?SplitColumn@CSplitterWnd@@UAEHH@Z 00486145 f   nafxcwd:winsplit.obj
 0001:000853ca       ?DeleteRow@CSplitterWnd@@UAEXH@Z 004863ca f   nafxcwd:winsplit.obj
 0001:0008560a       ?DeleteColumn@CSplitterWnd@@UAEXH@Z 0048660a f   nafxcwd:winsplit.obj
 0001:0008584a       ?GetInsideRect@CSplitterWnd@@MBEXAAVCRect@@@Z 0048684a f   nafxcwd:winsplit.obj
 0001:00085905       ?StartTracking@CSplitterWnd@@MAEXH@Z 00486905 f   nafxcwd:winsplit.obj
 0001:00085bb4       ?TrackRowSize@CSplitterWnd@@MAEXHH@Z 00486bb4 f   nafxcwd:winsplit.obj
 0001:00085cf0       ?TrackColumnSize@CSplitterWnd@@MAEXHH@Z 00486cf0 f   nafxcwd:winsplit.obj
 0001:00085e2c       ?StopTracking@CSplitterWnd@@MAEXH@Z 00486e2c f   nafxcwd:winsplit.obj
 0001:0008610b       ?GetHitRect@CSplitterWnd@@MAEXHAAVCRect@@@Z 0048710b f   nafxcwd:winsplit.obj
 0001:00086471       ?HitTest@CSplitterWnd@@MBEHVCPoint@@@Z 00487471 f   nafxcwd:winsplit.obj
 0001:00086703       ?OnInvertTracker@CSplitterWnd@@MAEXABVCRect@@@Z 00487703 f   nafxcwd:winsplit.obj
 0001:00086802       ?DoKeyboardSplit@CSplitterWnd@@UAEHXZ 00487802 f   nafxcwd:winsplit.obj
 0001:0008697c       ?OnDisplayChange@CSplitterWnd@@IAEXXZ 0048797c f   nafxcwd:winsplit.obj
 0001:000869ad       ?OnSize@CSplitterWnd@@IAEXIHH@Z 004879ad f   nafxcwd:winsplit.obj
 0001:000869ee       ?_AfxLayoutRowCol@@YGXPAUCRowColInfo@CSplitterWnd@@HHH@Z 004879ee f   nafxcwd:winsplit.obj
 0001:00086cd9       ?_AfxDeferClientPos@@YGXPAUAFX_SIZEPARENTPARAMS@@PAVCWnd@@HHHHH@Z 00487cd9 f   nafxcwd:winsplit.obj
 0001:00086e5b       ?GetSizingParent@CSplitterWnd@@IAEPAVCWnd@@XZ 00487e5b f   nafxcwd:winsplit.obj
 0001:00086f5d       ?RecalcLayout@CSplitterWnd@@UAEXXZ 00487f5d f   nafxcwd:winsplit.obj
 0001:00087511       ?DrawAllSplitBars@CSplitterWnd@@MAEXPAVCDC@@HH@Z 00488511 f   nafxcwd:winsplit.obj
 0001:000877cd       ?OnPaint@CSplitterWnd@@IAEXXZ 004887cd f   nafxcwd:winsplit.obj
 0001:00087b09       ?OnSetCursor@CSplitterWnd@@IAEHPAVCWnd@@II@Z 00488b09 f   nafxcwd:winsplit.obj
 0001:00087b4b       ?SetSplitCursor@CSplitterWnd@@MAEXH@Z 00488b4b f   nafxcwd:winsplit.obj
 0001:00087d2d       ?OnMouseMove@CSplitterWnd@@IAEXIVCPoint@@@Z 00488d2d f   nafxcwd:winsplit.obj
 0001:00088019       ?OnLButtonDown@CSplitterWnd@@IAEXIVCPoint@@@Z 00489019 f   nafxcwd:winsplit.obj
 0001:00088059       ?OnLButtonDblClk@CSplitterWnd@@IAEXIVCPoint@@@Z 00489059 f   nafxcwd:winsplit.obj
 0001:0008824f       ?OnLButtonUp@CSplitterWnd@@IAEXIVCPoint@@@Z 0048924f f   nafxcwd:winsplit.obj
 0001:0008826c       ?OnCancelMode@CSplitterWnd@@IAEXXZ 0048926c f   nafxcwd:winsplit.obj
 0001:00088287       ?OnKeyDown@CSplitterWnd@@IAEXIII@Z 00489287 f   nafxcwd:winsplit.obj
 0001:00088498       ?OnSysCommand@CSplitterWnd@@IAEXIJ@Z 00489498 f   nafxcwd:winsplit.obj
 0001:000884ee       ?OnCommand@CSplitterWnd@@MAEHIJ@Z 004894ee f   nafxcwd:winsplit.obj
 0001:00088532       ?OnNotify@CSplitterWnd@@MAEHIJPAJ@Z 00489532 f   nafxcwd:winsplit.obj
 0001:00088581       ?OnMouseWheel@CSplitterWnd@@IAEHIFVCPoint@@@Z 00489581 f   nafxcwd:winsplit.obj
 0001:0008868e       ?OnHScroll@CSplitterWnd@@IAEXIIPAVCScrollBar@@@Z 0048968e f   nafxcwd:winsplit.obj
 0001:000887e3       ?OnVScroll@CSplitterWnd@@IAEXIIPAVCScrollBar@@@Z 004897e3 f   nafxcwd:winsplit.obj
 0001:00088938       ?DoScroll@CSplitterWnd@@UAEHPAVCView@@IH@Z 00489938 f   nafxcwd:winsplit.obj
 0001:00088c11       ?DoScrollBy@CSplitterWnd@@UAEHPAVCView@@VCSize@@H@Z 00489c11 f   nafxcwd:winsplit.obj
 0001:00088ecc       ?CanActivateNext@CSplitterWnd@@UAEHH@Z 00489ecc f   nafxcwd:winsplit.obj
 0001:00088f8b       ?ActivateNext@CSplitterWnd@@UAEXH@Z 00489f8b f   nafxcwd:winsplit.obj
 0001:000890c6       ?SetActivePane@CSplitterWnd@@UAEXHHPAVCWnd@@@Z 0048a0c6 f   nafxcwd:winsplit.obj
 0001:00089155       ?GetActivePane@CSplitterWnd@@UAEPAVCWnd@@PAH0@Z 0048a155 f   nafxcwd:winsplit.obj
 0001:000891dd       ?AssertValid@CSplitterWnd@@UBEXXZ 0048a1dd f   nafxcwd:winsplit.obj
 0001:000892fe       ?Dump@CSplitterWnd@@UBEXAAVCDumpContext@@@Z 0048a2fe f   nafxcwd:winsplit.obj
 0001:000894f0       ??_GCSplitterWnd@@UAEPAXI@Z 0048a4f0 f i nafxcwd:winsplit.obj
 0001:000894f0       ??_ECSplitterWnd@@UAEPAXI@Z 0048a4f0 f i nafxcwd:winsplit.obj
 0001:00089520       ?GetMessageMap@CControlBar@@MBEPBUAFX_MSGMAP@@XZ 0048a520 f   nafxcwd:barcore.obj
 0001:00089530       ??1CControlBar@@UAE@XZ     0048a530 f   nafxcwd:barcore.obj
 0001:0008965a       ?PostNcDestroy@CControlBar@@UAEXXZ 0048a65a f   nafxcwd:barcore.obj
 0001:0008969b       ?CalcFixedLayout@CControlBar@@UAE?AVCSize@@HH@Z 0048a69b f   nafxcwd:barcore.obj
 0001:00089707       ?CalcDynamicLayout@CControlBar@@UAE?AVCSize@@HK@Z 0048a707 f   nafxcwd:barcore.obj
 0001:00089746       ?IsDockBar@CControlBar@@UBEHXZ 0048a746 f   nafxcwd:barcore.obj
 0001:00089753       ?ResetTimer@CControlBar@@QAEXII@Z 0048a753 f   nafxcwd:barcore.obj
 0001:000897b0       ?OnTimer@CControlBar@@QAEXI@Z 0048a7b0 f   nafxcwd:barcore.obj
 0001:0008996b       ?SetStatusText@CControlBar@@UAEHH@Z 0048a96b f   nafxcwd:barcore.obj
 0001:00089a4a       ?PreTranslateMessage@CControlBar@@UAEHPAUtagMSG@@@Z 0048aa4a f   nafxcwd:barcore.obj
 0001:00089cef       ?WindowProc@CControlBar@@UAEJIIJ@Z 0048acef f   nafxcwd:barcore.obj
 0001:00089f26       ?OnHelpHitTest@CControlBar@@QAEJIJ@Z 0048af26 f   nafxcwd:barcore.obj
 0001:00089fa9       ?OnWindowPosChanging@CControlBar@@QAEXPAUtagWINDOWPOS@@@Z 0048afa9 f   nafxcwd:barcore.obj
 0001:0008a0f3       ?OnCreate@CControlBar@@QAEHPAUtagCREATESTRUCTA@@@Z 0048b0f3 f   nafxcwd:barcore.obj
 0001:0008a166       ?OnDestroy@CControlBar@@QAEXXZ 0048b166 f   nafxcwd:barcore.obj
 0001:0008a1ef       ?DestroyWindow@CControlBar@@UAEHXZ 0048b1ef f   nafxcwd:barcore.obj
 0001:0008a231       ?OnMouseActivate@CControlBar@@QAEHPAVCWnd@@II@Z 0048b231 f   nafxcwd:barcore.obj
 0001:0008a26d       ?OnPaint@CControlBar@@QAEXXZ 0048b26d f   nafxcwd:barcore.obj
 0001:0008a2df       ?EraseNonClient@CControlBar@@QAEXXZ 0048b2df f   nafxcwd:barcore.obj
 0001:0008a3ea       ?OnCtlColor@CControlBar@@QAEPAUHBRUSH__@@PAVCDC@@PAVCWnd@@I@Z 0048b3ea f   nafxcwd:barcore.obj
 0001:0008a448       ?OnLButtonDown@CControlBar@@QAEXIVCPoint@@@Z 0048b448 f   nafxcwd:barcore.obj
 0001:0008a4db       ?OnLButtonDblClk@CControlBar@@QAEXIVCPoint@@@Z 0048b4db f   nafxcwd:barcore.obj
 0001:0008a55b       ?OnIdleUpdateCmdUI@CControlBar@@QAEJIJ@Z 0048b55b f   nafxcwd:barcore.obj
 0001:0008a668       ?OnInitialUpdate@CControlBar@@QAEXXZ 0048b668 f   nafxcwd:barcore.obj
 0001:0008a67f       ?RecalcDelayShow@CControlBar@@UAEKPAUAFX_SIZEPARENTPARAMS@@@Z 0048b67f f   nafxcwd:barcore.obj
 0001:0008a7dc       ?OnSizeParent@CControlBar@@QAEJIJ@Z 0048b7dc f   nafxcwd:barcore.obj
 0001:0008aa6c       ?DelayShow@CControlBar@@UAEXH@Z 0048ba6c f   nafxcwd:barcore.obj
 0001:0008aad6       ?IsVisible@CControlBar@@UBEHXZ 0048bad6 f   nafxcwd:barcore.obj
 0001:0008ab19       ?DoPaint@CControlBar@@UAEXPAVCDC@@@Z 0048bb19 f   nafxcwd:barcore.obj
 0001:0008ab87       ?DrawBorders@CControlBar@@QAEXPAVCDC@@AAVCRect@@@Z 0048bb87 f   nafxcwd:barcore.obj
 0001:0008ae9a       ?DrawGripper@CControlBar@@QAEXPAVCDC@@ABVCRect@@@Z 0048be9a f   nafxcwd:barcore.obj
 0001:0008af55       ?CalcInsideRect@CControlBar@@QBEXAAVCRect@@H@Z 0048bf55 f   nafxcwd:barcore.obj
 0001:0008b0cc       ?AssertValid@CControlBar@@UBEXXZ 0048c0cc f   nafxcwd:barcore.obj
 0001:0008b13f       ?Dump@CControlBar@@UBEXAAVCDumpContext@@@Z 0048c13f f   nafxcwd:barcore.obj
 0001:0008b230       ??_GCDockContext@@QAEPAXI@Z 0048c230 f i nafxcwd:barcore.obj
 0001:0008b260       ?AfxLoadSysColorBitmap@@YGPAUHBITMAP__@@PAUHINSTANCE__@@PAUHRSRC__@@H@Z 0048c260 f   nafxcwd:bartool.obj
 0001:0008b4bf       ?_GetButton@CToolBar@@IBEXHPAU_TBBUTTON@@@Z 0048c4bf f   nafxcwd:bartool.obj
 0001:0008b522       ?_SetButton@CToolBar@@IAEXHPAU_TBBUTTON@@@Z 0048c522 f   nafxcwd:bartool.obj
 0001:0008b6c9       ?CommandToIndex@CToolBar@@QBEHI@Z 0048c6c9 f   nafxcwd:bartool.obj
 0001:0008b73b       ?GetItemID@CToolBar@@QBEIH@Z 0048c73b f   nafxcwd:bartool.obj
 0001:0008b7a1       ?GetItemRect@CToolBar@@UBEXHPAUtagRECT@@@Z 0048c7a1 f   nafxcwd:bartool.obj
 0001:0008b837       ?Layout@CToolBar@@IAEXXZ   0048c837 f   nafxcwd:bartool.obj
 0001:0008b8f8       ?GetButtonStyle@CToolBar@@QBEIH@Z 0048c8f8 f   nafxcwd:bartool.obj
 0001:0008b971       ?SetButtonStyle@CToolBar@@QAEXHI@Z 0048c971 f   nafxcwd:bartool.obj
 0001:0008ba38       ?CalcSize@CToolBar@@IAE?AVCSize@@PAU_TBBUTTON@@H@Z 0048ca38 f   nafxcwd:bartool.obj
 0001:0008bd1b       ?WrapToolBar@CToolBar@@IAEHPAU_TBBUTTON@@HH@Z 0048cd1b f   nafxcwd:bartool.obj
 0001:0008bf95       ?SizeToolBar@CToolBar@@IAEXPAU_TBBUTTON@@HHH@Z 0048cf95 f   nafxcwd:bartool.obj
 0001:0008c1eb       ?CalcLayout@CToolBar@@IAE?AVCSize@@KH@Z 0048d1eb f   nafxcwd:bartool.obj
 0001:0008c9d7       ?CalcFixedLayout@CToolBar@@UAE?AVCSize@@HH@Z 0048d9d7 f   nafxcwd:bartool.obj
 0001:0008ca26       ?CalcDynamicLayout@CToolBar@@UAE?AVCSize@@HK@Z 0048da26 f   nafxcwd:bartool.obj
 0001:0008cab9       ?GetButtonInfo@CToolBar@@QBEXHAAI0AAH@Z 0048dab9 f   nafxcwd:bartool.obj
 0001:0008cb47       ?SetButtonInfo@CToolBar@@QAEXHIIH@Z 0048db47 f   nafxcwd:bartool.obj
 0001:0008cbdf       ?OnToolHitTest@CToolBar@@UBEHVCPoint@@PAUtagTOOLINFOA@@@Z 0048dbdf f   nafxcwd:bartool.obj
 0001:0008cda3       ?SetButtonText@CToolBar@@QAEHHPBD@Z 0048dda3 f   nafxcwd:bartool.obj
 0001:0008cf5a       ?GetButtonText@CToolBar@@QBE?AVCString@@H@Z 0048df5a f   nafxcwd:bartool.obj
 0001:0008cfd1       ?GetButtonText@CToolBar@@QBEXHAAVCString@@@Z 0048dfd1 f   nafxcwd:bartool.obj
 0001:0008d09d       ?GetMessageMap@CToolBar@@MBEPBUAFX_MSGMAP@@XZ 0048e09d f   nafxcwd:bartool.obj
 0001:0008d0ad       ?OnEraseBkgnd@CToolBar@@IAEHPAVCDC@@@Z 0048e0ad f   nafxcwd:bartool.obj
 0001:0008d0c2       ?OnNcHitTest@CToolBar@@IAEIVCPoint@@@Z 0048e0c2 f   nafxcwd:bartool.obj
 0001:0008d0d4       ?OnNcCalcSize@CToolBar@@IAEXHPAUtagNCCALCSIZE_PARAMS@@@Z 0048e0d4 f   nafxcwd:bartool.obj
 0001:0008d1c2       ?OnBarStyleChange@CToolBar@@UAEXKK@Z 0048e1c2 f   nafxcwd:bartool.obj
 0001:0008d2a1       ?OnNcPaint@CToolBar@@IAEXXZ 0048e2a1 f   nafxcwd:bartool.obj
 0001:0008d2b4       ?OnWindowPosChanging@CToolBar@@IAEXPAUtagWINDOWPOS@@@Z 0048e2b4 f   nafxcwd:bartool.obj
 0001:0008d313       ?OnPaint@CToolBar@@IAEXXZ  0048e313 f   nafxcwd:bartool.obj
 0001:0008d33a       ?OnSetButtonSize@CToolBar@@IAEJIJ@Z 0048e33a f   nafxcwd:bartool.obj
 0001:0008d35d       ?OnSetBitmapSize@CToolBar@@IAEJIJ@Z 0048e35d f   nafxcwd:bartool.obj
 0001:0008d380       ?OnSetSizeHelper@CToolBar@@IAEJAAVCSize@@J@Z 0048e380 f   nafxcwd:bartool.obj
 0001:0008d438       ?OnPreserveZeroBorderHelper@CToolBar@@IAEJIJ@Z 0048e438 f   nafxcwd:bartool.obj
 0001:0008d4d0       ?OnSysColorChange@CToolBar@@IAEXXZ 0048e4d0 f   nafxcwd:bartool.obj
 0001:0008d51c       ?Enable@CToolCmdUI@@UAEXH@Z 0048e51c f   nafxcwd:bartool.obj
 0001:0008d622       ?SetCheck@CToolCmdUI@@UAEXH@Z 0048e622 f   nafxcwd:bartool.obj
 0001:0008d74e       ?SetText@CToolCmdUI@@UAEXPBD@Z 0048e74e f   nafxcwd:bartool.obj
 0001:0008d75b       ?OnUpdateCmdUI@CToolBar@@UAEXPAVCFrameWnd@@H@Z 0048e75b f   nafxcwd:bartool.obj
 0001:0008d829       ?AssertValid@CToolBar@@UBEXXZ 0048e829 f   nafxcwd:bartool.obj
 0001:0008d8b6       ?Dump@CToolBar@@UBEXAAVCDumpContext@@@Z 0048e8b6 f   nafxcwd:bartool.obj
 0001:0008dab0       ??0_AFX_CONTROLPOS@@QAE@XZ 0048eab0 f i nafxcwd:bartool.obj
 0001:0008dad0       ??_H@YGXPAXIHP6EX0@Z@Z     0048ead0 f i nafxcwd:bartool.obj
 0001:0008db00       ??0CToolCmdUI@@QAE@XZ      0048eb00 f i nafxcwd:bartool.obj
 0001:0008db20       ??0CDialogBar@@QAE@XZ      0048eb20 f   nafxcwd:bardlg.obj
 0001:0008db91       ??1CDialogBar@@UAE@XZ      0048eb91 f   nafxcwd:bardlg.obj
 0001:0008dbe2       ?Create@CDialogBar@@QAEHPAVCWnd@@PBDII@Z 0048ebe2 f   nafxcwd:bardlg.obj
 0001:0008ddb4       ?CalcFixedLayout@CDialogBar@@UAE?AVCSize@@HH@Z 0048edb4 f   nafxcwd:bardlg.obj
 0001:0008de2f       ?OnUpdateCmdUI@CDialogBar@@UAEXPAVCFrameWnd@@H@Z 0048ee2f f   nafxcwd:bardlg.obj
 0001:0008de4c       ?GetMessageMap@CDialogBar@@MBEPBUAFX_MSGMAP@@XZ 0048ee4c f   nafxcwd:bardlg.obj
 0001:0008de5c       ?HandleInitDialog@CDialogBar@@IAEJIJ@Z 0048ee5c f   nafxcwd:bardlg.obj
 0001:0008ded5       ?SetOccDialogInfo@CDialogBar@@MAEHPAU_AFX_OCC_DIALOG_INFO@@@Z 0048eed5 f   nafxcwd:bardlg.obj
 0001:0008df00       ??_ECDialogBar@@UAEPAXI@Z  0048ef00 f i nafxcwd:bardlg.obj
 0001:0008df00       ??_GCDialogBar@@UAEPAXI@Z  0048ef00 f i nafxcwd:bardlg.obj
 0001:0008df30       ?OnHelp@CWnd@@QAEXXZ       0048ef30 f   nafxcwd:winfrmx.obj
 0001:0008e00a       ?OnHelp@CFrameWnd@@IAEXXZ  0048f00a f   nafxcwd:winfrmx.obj
 0001:0008e055       ?OnHelpIndex@CWnd@@QAEXXZ  0048f055 f   nafxcwd:winfrmx.obj
 0001:0008e07c       ?OnHelpFinder@CWnd@@QAEXXZ 0048f07c f   nafxcwd:winfrmx.obj
 0001:0008e0a3       ?OnHelpUsing@CWnd@@QAEXXZ  0048f0a3 f   nafxcwd:winfrmx.obj
 0001:0008e0ca       ?CanEnterHelpMode@CFrameWnd@@QAEHXZ 0048f0ca f   nafxcwd:winfrmx.obj
 0001:0008e162       ?OnContextHelp@CFrameWnd@@QAEXXZ 0048f162 f   nafxcwd:winfrmx.obj
 0001:0008e413       ?SetHelpCapture@CFrameWnd@@IAEPAUHWND__@@UtagPOINT@@PAH@Z 0048f413 f   nafxcwd:winfrmx.obj
 0001:0008e570       ?_AfxMapClientArea@@YGKPAUHWND__@@UtagPOINT@@@Z 0048f570 f   nafxcwd:winfrmx.obj
 0001:0008e63e       ?_AfxMapNonClientArea@@YGKH@Z 0048f63e f   nafxcwd:winfrmx.obj
 0001:0008e684       ?ProcessHelpMsg@CFrameWnd@@IAEHAAUtagMSG@@PAK@Z 0048f684 f   nafxcwd:winfrmx.obj
 0001:0008ea70       ?WriteProfileInt@CWinApp@@QAEHPBD0H@Z 0048fa70 f   nafxcwd:appui3.obj
 0001:0008eb75       ?WriteProfileStringA@CWinApp@@QAEHPBD00@Z 0048fb75 f   nafxcwd:appui3.obj
 0001:0008ed02       ?WriteProfileBinary@CWinApp@@QAEHPBD0PAEI@Z 0048fd02 f   nafxcwd:appui3.obj
 0001:0008ee60       ?AfxFormatStrings@@YGXAAVCString@@IPBQBDH@Z 0048fe60 f   nafxcwd:apphelp.obj
 0001:0008eede       ?AfxFormatStrings@@YGXAAVCString@@PBDPBQBDH@Z 0048fede f   nafxcwd:apphelp.obj
 0001:0008f14f       ?AfxFormatString1@@YGXAAVCString@@IPBD@Z 0049014f f   nafxcwd:apphelp.obj
 0001:0008f169       ?AfxFormatString2@@YGXAAVCString@@IPBD1@Z 00490169 f   nafxcwd:apphelp.obj
 0001:0008f1a0       ?_AfxAdjustRectangle@@YGXAAVCRect@@VCPoint@@@Z 004901a0 f   nafxcwd:dockcont.obj
 0001:0008f244       ??0CDockContext@@QAE@PAVCControlBar@@@Z 00490244 f   nafxcwd:dockcont.obj
 0001:0008f3ec       ??1CDockContext@@QAE@XZ    004903ec f   nafxcwd:dockcont.obj
 0001:0008f44b       ?StartDrag@CDockContext@@UAEXVCPoint@@@Z 0049044b f   nafxcwd:dockcont.obj
 0001:0008fd3b       ?Move@CDockContext@@QAEXVCPoint@@@Z 00490d3b f   nafxcwd:dockcont.obj
 0001:0008fe46       ?OnKey@CDockContext@@QAEXHH@Z 00490e46 f   nafxcwd:dockcont.obj
 0001:0008fe88       ?EndDrag@CDockContext@@QAEXXZ 00490e88 f   nafxcwd:dockcont.obj
 0001:000900c1       ?StartResize@CDockContext@@UAEXHVCPoint@@@Z 004910c1 f   nafxcwd:dockcont.obj
 0001:00090405       ?Stretch@CDockContext@@QAEXVCPoint@@@Z 00491405 f   nafxcwd:dockcont.obj
 0001:000906b7       ?EndResize@CDockContext@@QAEXXZ 004916b7 f   nafxcwd:dockcont.obj
 0001:00090726       ?ToggleDocking@CDockContext@@UAEXXZ 00491726 f   nafxcwd:dockcont.obj
 0001:000908a3       ?InitLoop@CDockContext@@QAEXXZ 004918a3 f   nafxcwd:dockcont.obj
 0001:00090a06       ?CancelLoop@CDockContext@@QAEXXZ 00491a06 f   nafxcwd:dockcont.obj
 0001:00090a5e       ?DrawFocusRect@CDockContext@@QAEXH@Z 00491a5e f   nafxcwd:dockcont.obj
 0001:00090ca6       ?UpdateState@CDockContext@@QAEXPAHH@Z 00491ca6 f   nafxcwd:dockcont.obj
 0001:00090d3c       ?CanDock@CDockContext@@QAEKXZ 00491d3c f   nafxcwd:dockcont.obj
 0001:00090fa8       ?GetDockBar@CDockContext@@QAEPAVCDockBar@@K@Z 00491fa8 f   nafxcwd:dockcont.obj
 0001:000910e4       ?Track@CDockContext@@QAEHXZ 004920e4 f   nafxcwd:dockcont.obj
 0001:000912a0       ?_AfxAppendFilterSuffix@@YGXAAVCString@@AAUtagOFNA@@PAVCDocTemplate@@PAV1@@Z 004922a0 f   nafxcwd:docmgr.obj
 0001:00091465       ?GetMessageMap@CNewTypeDlg@@MBEPBUAFX_MSGMAP@@XZ 00492465 f   nafxcwd:docmgr.obj
 0001:00091475       ?OnInitDialog@CNewTypeDlg@@MAEHXZ 00492475 f   nafxcwd:docmgr.obj
 0001:00091670       ?OnOK@CNewTypeDlg@@MAEXXZ  00492670 f   nafxcwd:docmgr.obj
 0001:0009172b       ?AddDocTemplate@CDocManager@@UAEXPAVCDocTemplate@@@Z 0049272b f   nafxcwd:docmgr.obj
 0001:0009182b       ?GetFirstDocTemplatePosition@CDocManager@@UBEPAU__POSITION@@XZ 0049282b f   nafxcwd:docmgr.obj
 0001:00091841       ?GetNextDocTemplate@CDocManager@@UBEPAVCDocTemplate@@AAPAU__POSITION@@@Z 00492841 f   nafxcwd:docmgr.obj
 0001:0009185d       ?SaveAllModified@CDocManager@@UAEHXZ 0049285d f   nafxcwd:docmgr.obj
 0001:000918e0       ?CloseAllDocuments@CDocManager@@UAEXH@Z 004928e0 f   nafxcwd:docmgr.obj
 0001:0009195c       ?DoPromptFileName@CDocManager@@UAEHAAVCString@@IKHPAVCDocTemplate@@@Z 0049295c f   nafxcwd:docmgr.obj
 0001:00091c07       ?GetDocumentCount@CDocManager@@IAEHXZ 00492c07 f   nafxcwd:docmgr.obj
 0001:00091c76       ?OnDDECommand@CDocManager@@UAEHPAD@Z 00492c76 f   nafxcwd:docmgr.obj
 0001:000925e9       ?OnFileNew@CDocManager@@UAEXXZ 004935e9 f   nafxcwd:docmgr.obj
 0001:0009271b       ?OnFileOpen@CDocManager@@UAEXXZ 0049371b f   nafxcwd:docmgr.obj
 0001:000927b6       ?AssertValid@CDocManager@@UBEXXZ 004937b6 f   nafxcwd:docmgr.obj
 0001:00092806       ?Dump@CDocManager@@UBEXAAVCDumpContext@@@Z 00493806 f   nafxcwd:docmgr.obj
 0001:000928a0       ??0CNewTypeDlg@@QAE@PAVCPtrList@@@Z 004938a0 f i nafxcwd:docmgr.obj
 0001:000928e0       ??1CNewTypeDlg@@UAE@XZ     004938e0 f i nafxcwd:docmgr.obj
 0001:00092900       ??_GCNewTypeDlg@@UAEPAXI@Z 00493900 f i nafxcwd:docmgr.obj
 0001:00092900       ??_ECNewTypeDlg@@UAEPAXI@Z 00493900 f i nafxcwd:docmgr.obj
 0001:00092930       ?GetMessageMap@CDockBar@@MBEPBUAFX_MSGMAP@@XZ 00493930 f   nafxcwd:bardock.obj
 0001:00092940       ??0CDockBar@@QAE@H@Z       00493940 f   nafxcwd:bardock.obj
 0001:00092a0e       ??1CDockBar@@UAE@XZ        00493a0e f   nafxcwd:bardock.obj
 0001:00092ab6       ?Create@CDockBar@@QAEHPAVCWnd@@KI@Z 00493ab6 f   nafxcwd:bardock.obj
 0001:00092b72       ?IsDockBar@CDockBar@@UBEHXZ 00493b72 f   nafxcwd:bardock.obj
 0001:00092b82       ?GetDockedCount@CDockBar@@QBEHXZ 00493b82 f   nafxcwd:bardock.obj
 0001:00092bd6       ?GetDockedVisibleCount@CDockBar@@UBEHXZ 00493bd6 f   nafxcwd:bardock.obj
 0001:00092c4f       ?DockControlBar@CDockBar@@QAEXPAVCControlBar@@PBUtagRECT@@@Z 00493c4f f   nafxcwd:bardock.obj
 0001:0009305e       ?ReDockControlBar@CDockBar@@QAEXPAVCControlBar@@PBUtagRECT@@@Z 0049405e f   nafxcwd:bardock.obj
 0001:00093401       ?RemovePlaceHolder@CDockBar@@QAEXPAVCControlBar@@@Z 00494401 f   nafxcwd:bardock.obj
 0001:0009349d       ?RemoveControlBar@CDockBar@@QAEHPAVCControlBar@@HH@Z 0049449d f   nafxcwd:bardock.obj
 0001:000936b2       ?CalcFixedLayout@CDockBar@@UAE?AVCSize@@HH@Z 004946b2 f   nafxcwd:bardock.obj
 0001:00093f0f       ?OnSizeParent@CDockBar@@IAEJIJ@Z 00494f0f f   nafxcwd:bardock.obj
 0001:00093fba       ?OnNcCalcSize@CDockBar@@IAEXHPAUtagNCCALCSIZE_PARAMS@@@Z 00494fba f   nafxcwd:bardock.obj
 0001:0009402c       ?OnNcPaint@CDockBar@@IAEXXZ 0049502c f   nafxcwd:bardock.obj
 0001:0009403f       ?DoPaint@CDockBar@@UAEXPAVCDC@@@Z 0049503f f   nafxcwd:bardock.obj
 0001:0009404c       ?OnPaint@CDockBar@@IAEXXZ  0049504c f   nafxcwd:bardock.obj
 0001:000940d0       ?OnWindowPosChanging@CDockBar@@IAEXPAUtagWINDOWPOS@@@Z 004950d0 f   nafxcwd:bardock.obj
 0001:0009410c       ?FindBar@CDockBar@@QAEHPAVCControlBar@@H@Z 0049510c f   nafxcwd:bardock.obj
 0001:00094165       ?ShowAll@CDockBar@@QAEXH@Z 00495165 f   nafxcwd:bardock.obj
 0001:000941ca       ?GetDockedControlBar@CDockBar@@IBEPAVCControlBar@@H@Z 004951ca f   nafxcwd:bardock.obj
 0001:00094208       ?Insert@CDockBar@@IAEHPAVCControlBar@@VCRect@@VCPoint@@@Z 00495208 f   nafxcwd:bardock.obj
 0001:00094448       ?OnUpdateCmdUI@CDockBar@@MAEXPAVCFrameWnd@@H@Z 00495448 f   nafxcwd:bardock.obj
 0001:00094455       ?AssertValid@CDockBar@@UBEXXZ 00495455 f   nafxcwd:bardock.obj
 0001:000944f7       ?Dump@CDockBar@@UBEXAAVCDumpContext@@@Z 004954f7 f   nafxcwd:bardock.obj
 0001:00094553       ?EnableDocking@CControlBar@@QAEXK@Z 00495553 f   nafxcwd:bardock.obj
 0001:00094661       ?GetMessageMap@CMiniDockFrameWnd@@MBEPBUAFX_MSGMAP@@XZ 00495661 f   nafxcwd:bardock.obj
 0001:00094671       ?OnMouseActivate@CMiniDockFrameWnd@@QAEHPAVCWnd@@II@Z 00495671 f   nafxcwd:bardock.obj
 0001:000946a5       ??0CMiniDockFrameWnd@@QAE@XZ 004956a5 f   nafxcwd:bardock.obj
 0001:0009470e       ?Create@CMiniDockFrameWnd@@UAEHPAVCWnd@@K@Z 0049570e f   nafxcwd:bardock.obj
 0001:000948e3       ?RecalcLayout@CMiniDockFrameWnd@@UAEXH@Z 004958e3 f   nafxcwd:bardock.obj
 0001:00094949       ?OnClose@CMiniDockFrameWnd@@QAEXXZ 00495949 f   nafxcwd:bardock.obj
 0001:00094964       ?OnNcLButtonDown@CMiniDockFrameWnd@@QAEXIVCPoint@@@Z 00495964 f   nafxcwd:bardock.obj
 0001:00094bb0       ?OnNcLButtonDblClk@CMiniDockFrameWnd@@QAEXIVCPoint@@@Z 00495bb0 f   nafxcwd:bardock.obj
 0001:00094cd0       ??_ECDockBar@@UAEPAXI@Z    00495cd0 f i nafxcwd:bardock.obj
 0001:00094cd0       ??_GCDockBar@@UAEPAXI@Z    00495cd0 f i nafxcwd:bardock.obj
 0001:00094d00       ??_ECMiniDockFrameWnd@@UAEPAXI@Z 00495d00 f i nafxcwd:bardock.obj
 0001:00094d00       ??_GCMiniDockFrameWnd@@UAEPAXI@Z 00495d00 f i nafxcwd:bardock.obj
 0001:00094d30       ??1CMiniDockFrameWnd@@UAE@XZ 00495d30 f i nafxcwd:bardock.obj
 0001:00094d80       ?OnFileNew@CWinApp@@IAEXXZ 00495d80 f   nafxcwd:appdlg.obj
 0001:00094dae       ?OnFileOpen@CWinApp@@IAEXXZ 00495dae f   nafxcwd:appdlg.obj
 0001:00094df9       ?DoPromptFileName@CWinApp@@QAEHAAVCString@@IKHPAVCDocTemplate@@@Z 00495df9 f   nafxcwd:appdlg.obj
 0001:0009a6f0       ?AfxWingdixTerm@@YAXXZ     0049b6f0 f   nafxcwd:wingdix.obj
 0001:0009a720       ?DPtoHIMETRIC@CDC@@QBEXPAUtagSIZE@@@Z 0049b720 f   nafxcwd:wingdix.obj
 0001:0009a863       ?HIMETRICtoDP@CDC@@QBEXPAUtagSIZE@@@Z 0049b863 f   nafxcwd:wingdix.obj
 0001:0009a9a6       ?LPtoHIMETRIC@CDC@@QBEXPAUtagSIZE@@@Z 0049b9a6 f   nafxcwd:wingdix.obj
 0001:0009a9f9       ?HIMETRICtoLP@CDC@@QBEXPAUtagSIZE@@@Z 0049b9f9 f   nafxcwd:wingdix.obj
 0001:0009aa4c       ?GetHalftoneBrush@CDC@@SGPAVCBrush@@XZ 0049ba4c f   nafxcwd:wingdix.obj
 0001:0009aadc       ?DrawDragRect@CDC@@QAEXPBUtagRECT@@UtagSIZE@@01PAVCBrush@@2@Z 0049badc f   nafxcwd:wingdix.obj
 0001:0009ae26       ?FillSolidRect@CDC@@QAEXPBUtagRECT@@K@Z 0049be26 f   nafxcwd:wingdix.obj
 0001:0009ae9d       ?FillSolidRect@CDC@@QAEXHHHHK@Z 0049be9d f   nafxcwd:wingdix.obj
 0001:0009af34       ?Draw3dRect@CDC@@QAEXPBUtagRECT@@KK@Z 0049bf34 f   nafxcwd:wingdix.obj
 0001:0009af77       ?Draw3dRect@CDC@@QAEXHHHHKK@Z 0049bf77 f   nafxcwd:wingdix.obj
 0001:0009aff8       ?CreatePointFont@CFont@@QAEHHPBDPAVCDC@@@Z 0049bff8 f   nafxcwd:wingdix.obj
 0001:0009b070       ?CreatePointFontIndirect@CFont@@QAEHPBUtagLOGFONTA@@PAVCDC@@@Z 0049c070 f   nafxcwd:wingdix.obj
 0001:0009b190       ?NormalizeRect@CRect@@QAEXXZ 0049c190 f   nafxcwd:wingdix.obj
 0001:0009b1f2       ?InflateRect@CRect@@QAEXPBUtagRECT@@@Z 0049c1f2 f   nafxcwd:wingdix.obj
 0001:0009b244       ?InflateRect@CRect@@QAEXHHHH@Z 0049c244 f   nafxcwd:wingdix.obj
 0001:0009b28b       ?DeflateRect@CRect@@QAEXPBUtagRECT@@@Z 0049c28b f   nafxcwd:wingdix.obj
 0001:0009b2dd       ?DeflateRect@CRect@@QAEXHHHH@Z 0049c2dd f   nafxcwd:wingdix.obj
 0001:0009b324       ?MulDiv@CRect@@QBE?AV1@HH@Z 0049c324 f   nafxcwd:wingdix.obj
 0001:0009b3b0       ?AfxOleOnReleaseAllObjects@@YGXXZ 0049c3b0 f   nafxcwd:olelock.obj
 0001:0009b418       ?AfxOleCanExitApp@@YGHXZ   0049c418 f   nafxcwd:olelock.obj
 0001:0009b436       ?AfxOleLockApp@@YGXXZ      0049c436 f   nafxcwd:olelock.obj
 0001:0009b453       ?AfxOleUnlockApp@@YGXXZ    0049c453 f   nafxcwd:olelock.obj
 0001:0009b49f       ?AfxOleSetUserCtrl@@YGXH@Z 0049c49f f   nafxcwd:olelock.obj
 0001:0009b503       ?AfxOleGetUserCtrl@@YGHXZ  0049c503 f   nafxcwd:olelock.obj
 0001:0009b520       ?Create@CStatic@@QAEHPBDKABUtagRECT@@PAVCWnd@@I@Z 0049c520 f   nafxcwd:winctrl1.obj
 0001:0009b55b       ??1CStatic@@UAE@XZ         0049c55b f   nafxcwd:winctrl1.obj
 0001:0009b5ac       ?Create@CButton@@QAEHPBDKABUtagRECT@@PAVCWnd@@I@Z 0049c5ac f   nafxcwd:winctrl1.obj
 0001:0009b5e7       ??1CButton@@UAE@XZ         0049c5e7 f   nafxcwd:winctrl1.obj
 0001:0009b638       ?GetCheckedRadioButton@CWnd@@QAEHHH@Z 0049c638 f   nafxcwd:winctrl1.obj
 0001:0009b679       ?DrawItem@CButton@@UAEXPAUtagDRAWITEMSTRUCT@@@Z 0049c679 f   nafxcwd:winctrl1.obj
 0001:0009b6ac       ?OnChildNotify@CButton@@MAEHIIJPAJ@Z 0049c6ac f   nafxcwd:winctrl1.obj
 0001:0009b713       ?Create@CListBox@@QAEHKABUtagRECT@@PAVCWnd@@I@Z 0049c713 f   nafxcwd:winctrl1.obj
 0001:0009b74c       ??1CListBox@@UAE@XZ        0049c74c f   nafxcwd:winctrl1.obj
 0001:0009b79d       ?DrawItem@CListBox@@UAEXPAUtagDRAWITEMSTRUCT@@@Z 0049c79d f   nafxcwd:winctrl1.obj
 0001:0009b7d0       ?MeasureItem@CListBox@@UAEXPAUtagMEASUREITEMSTRUCT@@@Z 0049c7d0 f   nafxcwd:winctrl1.obj
 0001:0009b803       ?CompareItem@CListBox@@UAEHPAUtagCOMPAREITEMSTRUCT@@@Z 0049c803 f   nafxcwd:winctrl1.obj
 0001:0009b838       ?DeleteItem@CListBox@@UAEXPAUtagDELETEITEMSTRUCT@@@Z 0049c838 f   nafxcwd:winctrl1.obj
 0001:0009b845       ?VKeyToItem@CListBox@@UAEHII@Z 0049c845 f   nafxcwd:winctrl1.obj
 0001:0009b85a       ?CharToItem@CListBox@@UAEHII@Z 0049c85a f   nafxcwd:winctrl1.obj
 0001:0009b86f       ?OnChildNotify@CListBox@@MAEHIIJPAJ@Z 0049c86f f   nafxcwd:winctrl1.obj
 0001:0009ba32       ?GetText@CListBox@@QBEXHAAVCString@@@Z 0049ca32 f   nafxcwd:winctrl1.obj
 0001:0009ba9c       ?ItemFromPoint@CListBox@@QBEIVCPoint@@AAH@Z 0049ca9c f   nafxcwd:winctrl1.obj
 0001:0009bb2f       ?Create@CComboBox@@QAEHKABUtagRECT@@PAVCWnd@@I@Z 0049cb2f f   nafxcwd:winctrl1.obj
 0001:0009bb68       ??1CComboBox@@UAE@XZ       0049cb68 f   nafxcwd:winctrl1.obj
 0001:0009bbb9       ?DrawItem@CComboBox@@UAEXPAUtagDRAWITEMSTRUCT@@@Z 0049cbb9 f   nafxcwd:winctrl1.obj
 0001:0009bbef       ?MeasureItem@CComboBox@@UAEXPAUtagMEASUREITEMSTRUCT@@@Z 0049cbef f   nafxcwd:winctrl1.obj
 0001:0009bc25       ?CompareItem@CComboBox@@UAEHPAUtagCOMPAREITEMSTRUCT@@@Z 0049cc25 f   nafxcwd:winctrl1.obj
 0001:0009bc5d       ?DeleteItem@CComboBox@@UAEXPAUtagDELETEITEMSTRUCT@@@Z 0049cc5d f   nafxcwd:winctrl1.obj
 0001:0009bc6a       ?OnChildNotify@CComboBox@@MAEHIIJPAJ@Z 0049cc6a f   nafxcwd:winctrl1.obj
 0001:0009bdc7       ?GetLBText@CComboBox@@QBEXHAAVCString@@@Z 0049cdc7 f   nafxcwd:winctrl1.obj
 0001:0009be31       ?Create@CEdit@@QAEHKABUtagRECT@@PAVCWnd@@I@Z 0049ce31 f   nafxcwd:winctrl1.obj
 0001:0009be6a       ??1CEdit@@UAE@XZ           0049ce6a f   nafxcwd:winctrl1.obj
 0001:0009bebb       ?Create@CScrollBar@@QAEHKABUtagRECT@@PAVCWnd@@I@Z 0049cebb f   nafxcwd:winctrl1.obj
 0001:0009bef4       ??1CScrollBar@@UAE@XZ      0049cef4 f   nafxcwd:winctrl1.obj
 0001:0009bf50       ??0_AFX_CHECKLIST_STATE@@QAE@XZ 0049cf50 f   nafxcwd:winctrl3.obj
 0001:0009c063       ??1_AFX_CHECKLIST_STATE@@UAE@XZ 0049d063 f   nafxcwd:winctrl3.obj
 0001:0009c095       ?GetMessageMap@CCheckListBox@@MBEPBUAFX_MSGMAP@@XZ 0049d095 f   nafxcwd:winctrl3.obj
 0001:0009c0a5       ?Create@CCheckListBox@@QAEHKABUtagRECT@@PAVCWnd@@I@Z 0049d0a5 f   nafxcwd:winctrl3.obj
 0001:0009c0dd       ?SetCheckStyle@CCheckListBox@@QAEXI@Z 0049d0dd f   nafxcwd:winctrl3.obj
 0001:0009c12e       ?SetCheck@CCheckListBox@@QAEXHH@Z 0049d12e f   nafxcwd:winctrl3.obj
 0001:0009c272       ?GetCheck@CCheckListBox@@QAEHH@Z 0049d272 f   nafxcwd:winctrl3.obj
 0001:0009c2e9       ?Enable@CCheckListBox@@QAEXHH@Z 0049d2e9 f   nafxcwd:winctrl3.obj
 0001:0009c414       ?IsEnabled@CCheckListBox@@QAEHH@Z 0049d414 f   nafxcwd:winctrl3.obj
 0001:0009c48f       ?OnGetCheckPosition@CCheckListBox@@UAE?AVCRect@@V2@0@Z 0049d48f f   nafxcwd:winctrl3.obj
 0001:0009c4b9       ?DrawItem@CCheckListBox@@UAEXPAUtagDRAWITEMSTRUCT@@@Z 0049d4b9 f   nafxcwd:winctrl3.obj
 0001:0009c726       ?MeasureItem@CCheckListBox@@UAEXPAUtagMEASUREITEMSTRUCT@@@Z 0049d726 f   nafxcwd:winctrl3.obj
 0001:0009c763       ?PreDrawItem@CCheckListBox@@IAEXPAUtagDRAWITEMSTRUCT@@@Z 0049d763 f   nafxcwd:winctrl3.obj
 0001:0009cb5e       ?PreMeasureItem@CCheckListBox@@IAEXPAUtagMEASUREITEMSTRUCT@@@Z 0049db5e f   nafxcwd:winctrl3.obj
 0001:0009cc2c       ?PreCompareItem@CCheckListBox@@IAEHPAUtagCOMPAREITEMSTRUCT@@@Z 0049dc2c f   nafxcwd:winctrl3.obj
 0001:0009cc95       ?PreDeleteItem@CCheckListBox@@IAEXPAUtagDELETEITEMSTRUCT@@@Z 0049dc95 f   nafxcwd:winctrl3.obj
 0001:0009cd23       ?OnChildNotify@CCheckListBox@@MAEHIIJPAJ@Z 0049dd23 f   nafxcwd:winctrl3.obj
 0001:0009ce65       ?PreSubclassWindow@CCheckListBox@@MAEXXZ 0049de65 f   nafxcwd:winctrl3.obj
 0001:0009cea7       ?CalcMinimumItemHeight@CCheckListBox@@IAEHXZ 0049dea7 f   nafxcwd:winctrl3.obj
 0001:0009cfae       ?InvalidateCheck@CCheckListBox@@IAEXH@Z 0049dfae f   nafxcwd:winctrl3.obj
 0001:0009d00a       ?InvalidateItem@CCheckListBox@@IAEXH@Z 0049e00a f   nafxcwd:winctrl3.obj
 0001:0009d049       ?CheckFromPoint@CCheckListBox@@IAEHVCPoint@@AAH@Z 0049e049 f   nafxcwd:winctrl3.obj
 0001:0009d164       ?SetSelectionCheck@CCheckListBox@@IAEXH@Z 0049e164 f   nafxcwd:winctrl3.obj
 0001:0009d20e       ?OnLButtonDown@CCheckListBox@@IAEXIVCPoint@@@Z 0049e20e f   nafxcwd:winctrl3.obj
 0001:0009d37c       ?OnLButtonDblClk@CCheckListBox@@IAEXIVCPoint@@@Z 0049e37c f   nafxcwd:winctrl3.obj
 0001:0009d3cf       ?OnKeyDown@CCheckListBox@@IAEXIII@Z 0049e3cf f   nafxcwd:winctrl3.obj
 0001:0009d601       ?OnCreate@CCheckListBox@@IAEHPAUtagCREATESTRUCTA@@@Z 0049e601 f   nafxcwd:winctrl3.obj
 0001:0009d649       ?OnSetFont@CCheckListBox@@IAEJIJ@Z 0049e649 f   nafxcwd:winctrl3.obj
 0001:0009d683       ?OnLBAddString@CCheckListBox@@IAEJIJ@Z 0049e683 f   nafxcwd:winctrl3.obj
 0001:0009d760       ?OnLBFindString@CCheckListBox@@IAEJIJ@Z 0049e760 f   nafxcwd:winctrl3.obj
 0001:0009d7e1       ?OnLBFindStringExact@CCheckListBox@@IAEJIJ@Z 0049e7e1 f   nafxcwd:winctrl3.obj
 0001:0009d862       ?OnLBGetItemData@CCheckListBox@@IAEJIJ@Z 0049e862 f   nafxcwd:winctrl3.obj
 0001:0009d8b1       ?OnLBGetText@CCheckListBox@@IAEJIJ@Z 0049e8b1 f   nafxcwd:winctrl3.obj
 0001:0009d910       ?OnLBInsertString@CCheckListBox@@IAEJIJ@Z 0049e910 f   nafxcwd:winctrl3.obj
 0001:0009d9ed       ?OnLBSelectString@CCheckListBox@@IAEJIJ@Z 0049e9ed f   nafxcwd:winctrl3.obj
 0001:0009da7a       ?OnLBSetItemData@CCheckListBox@@IAEJIJ@Z 0049ea7a f   nafxcwd:winctrl3.obj
 0001:0009db67       ?OnLBSetItemHeight@CCheckListBox@@IAEJIJ@Z 0049eb67 f   nafxcwd:winctrl3.obj
 0001:0009dbd0       ??_G_AFX_CHECKLIST_STATE@@UAEPAXI@Z 0049ebd0 f i nafxcwd:winctrl3.obj
 0001:0009dbd0       ??_E_AFX_CHECKLIST_STATE@@UAEPAXI@Z 0049ebd0 f i nafxcwd:winctrl3.obj
 0001:0009dc00       ??0AFX_CHECK_DATA@@QAE@XZ  0049ec00 f i nafxcwd:winctrl3.obj
 0001:0009dc30       ?AfxPropPageCallback@@YGIPAUHWND__@@IPAU_PROPSHEETPAGEA@@@Z 0049ec30 f   nafxcwd:dlgprop.obj
 0001:0009dd5c       ?GetMessageMap@CPropertyPage@@MBEPBUAFX_MSGMAP@@XZ 0049ed5c f   nafxcwd:dlgprop.obj
 0001:0009dd6c       ??0CPropertyPage@@QAE@II@Z 0049ed6c f   nafxcwd:dlgprop.obj
 0001:0009de04       ??0CPropertyPage@@QAE@PBDI@Z 0049ee04 f   nafxcwd:dlgprop.obj
 0001:0009dea0       ?Construct@CPropertyPage@@QAEXII@Z 0049eea0 f   nafxcwd:dlgprop.obj
 0001:0009dee6       ?Construct@CPropertyPage@@QAEXPBDI@Z 0049eee6 f   nafxcwd:dlgprop.obj
 0001:0009df43       ??0CPropertyPage@@QAE@XZ   0049ef43 f   nafxcwd:dlgprop.obj
 0001:0009dfad       ?CommonConstruct@CPropertyPage@@IAEXPBDI@Z 0049efad f   nafxcwd:dlgprop.obj
 0001:0009e0c7       ??1CPropertyPage@@UAE@XZ   0049f0c7 f   nafxcwd:dlgprop.obj
 0001:0009e140       ?Cleanup@CPropertyPage@@IAEXXZ 0049f140 f   nafxcwd:dlgprop.obj
 0001:0009e195       ?_AfxChangePropPageFont@@YGPAUDLGTEMPLATE@@PBU1@H@Z 0049f195 f   nafxcwd:dlgprop.obj
 0001:0009e2d3       ?InitDialogInfo@CPropertyPage@@IAEPBUDLGTEMPLATE@@PBU2@@Z 0049f2d3 f   nafxcwd:dlgprop.obj
 0001:0009e31e       ?PreProcessPageTemplate@CPropertyPage@@IAEXAAU_PROPSHEETPAGEA@@H@Z 0049f31e f   nafxcwd:dlgprop.obj
 0001:0009e4f4       ?CancelToClose@CPropertyPage@@QAEXXZ 0049f4f4 f   nafxcwd:dlgprop.obj
 0001:0009e56e       ?SetModified@CPropertyPage@@QAEXH@Z 0049f56e f   nafxcwd:dlgprop.obj
 0001:0009e621       ?QuerySiblings@CPropertyPage@@QAEJIJ@Z 0049f621 f   nafxcwd:dlgprop.obj
 0001:0009e6a1       ?OnApply@CPropertyPage@@UAEHXZ 0049f6a1 f   nafxcwd:dlgprop.obj
 0001:0009e6d2       ?OnReset@CPropertyPage@@UAEXXZ 0049f6d2 f   nafxcwd:dlgprop.obj
 0001:0009e6fe       ?OnOK@CPropertyPage@@UAEXXZ 0049f6fe f   nafxcwd:dlgprop.obj
 0001:0009e71c       ?OnCancel@CPropertyPage@@UAEXXZ 0049f71c f   nafxcwd:dlgprop.obj
 0001:0009e73a       ?OnSetActive@CPropertyPage@@UAEHXZ 0049f73a f   nafxcwd:dlgprop.obj
 0001:0009e782       ?OnKillActive@CPropertyPage@@UAEHXZ 0049f782 f   nafxcwd:dlgprop.obj
 0001:0009e7c9       ?OnQueryCancel@CPropertyPage@@UAEHXZ 0049f7c9 f   nafxcwd:dlgprop.obj
 0001:0009e7d9       ?OnWizardBack@CPropertyPage@@UAEJXZ 0049f7d9 f   nafxcwd:dlgprop.obj
 0001:0009e7e6       ?OnWizardNext@CPropertyPage@@UAEJXZ 0049f7e6 f   nafxcwd:dlgprop.obj
 0001:0009e7f3       ?OnWizardFinish@CPropertyPage@@UAEHXZ 0049f7f3 f   nafxcwd:dlgprop.obj
 0001:0009e803       ?MapWizardResult@CPropertyPage@@IAEJJ@Z 0049f803 f   nafxcwd:dlgprop.obj
 0001:0009e8d4       ?IsButtonEnabled@CPropertyPage@@IAEHH@Z 0049f8d4 f   nafxcwd:dlgprop.obj
 0001:0009e912       ?OnNotify@CPropertyPage@@MAEHIJPAJ@Z 0049f912 f   nafxcwd:dlgprop.obj
 0001:0009eb4f       ?PreTranslateMessage@CPropertyPage@@MAEHPAUtagMSG@@@Z 0049fb4f f   nafxcwd:dlgprop.obj
 0001:0009eb8e       ?OnCtlColor@CPropertyPage@@IAEPAUHBRUSH__@@PAVCDC@@PAVCWnd@@I@Z 0049fb8e f   nafxcwd:dlgprop.obj
 0001:0009ec0b       ?AssertValid@CPropertyPage@@UBEXXZ 0049fc0b f   nafxcwd:dlgprop.obj
 0001:0009ecbb       ?Dump@CPropertyPage@@UBEXAAVCDumpContext@@@Z 0049fcbb f   nafxcwd:dlgprop.obj
 0001:0009ed24       ?EndDialog@CPropertyPage@@QAEXH@Z 0049fd24 f   nafxcwd:dlgprop.obj
 0001:0009ed5e       ?GetMessageMap@CPropertySheet@@MBEPBUAFX_MSGMAP@@XZ 0049fd5e f   nafxcwd:dlgprop.obj
 0001:0009ed6e       ?GetPropSheetHeader@CPropertySheet@@QAEPAU_AFX_OLDPROPSHEETHEADER@@XZ 0049fd6e f   nafxcwd:dlgprop.obj
 0001:0009eda5       ?OnSetDefID@CPropertySheet@@IAEJIJ@Z 0049fda5 f   nafxcwd:dlgprop.obj
 0001:0009eeb1       ??0CPropertySheet@@QAE@XZ  0049feb1 f   nafxcwd:dlgprop.obj
 0001:0009ef27       ??0CPropertySheet@@QAE@IPAVCWnd@@I@Z 0049ff27 f   nafxcwd:dlgprop.obj
 0001:0009eff6       ??0CPropertySheet@@QAE@PBDPAVCWnd@@I@Z 0049fff6 f   nafxcwd:dlgprop.obj
 0001:0009f0a7       ?Construct@CPropertySheet@@QAEXIPAVCWnd@@I@Z 004a00a7 f   nafxcwd:dlgprop.obj
 0001:0009f117       ?Construct@CPropertySheet@@QAEXPBDPAVCWnd@@I@Z 004a0117 f   nafxcwd:dlgprop.obj
 0001:0009f169       ?CommonConstruct@CPropertySheet@@QAEXPAVCWnd@@I@Z 004a0169 f   nafxcwd:dlgprop.obj
 0001:0009f1f2       ?EnableStackedTabs@CPropertySheet@@QAEXH@Z 004a01f2 f   nafxcwd:dlgprop.obj
 0001:0009f20b       ?SetTitle@CPropertySheet@@QAEXPBDI@Z 004a020b f   nafxcwd:dlgprop.obj
 0001:0009f2da       ??1CPropertySheet@@UAE@XZ  004a02da f   nafxcwd:dlgprop.obj
 0001:0009f358       ?PreTranslateMessage@CPropertySheet@@UAEHPAUtagMSG@@@Z 004a0358 f   nafxcwd:dlgprop.obj
 0001:0009f3ef       ?OnCmdMsg@CPropertySheet@@UAEHIHPAXPAUAFX_CMDHANDLERINFO@@@Z 004a03ef f   nafxcwd:dlgprop.obj
 0001:0009f547       ?GetActivePage@CPropertySheet@@QBEPAVCPropertyPage@@XZ 004a0547 f   nafxcwd:dlgprop.obj
 0001:0009f5b6       ?ContinueModal@CPropertySheet@@UAEHXZ 004a05b6 f   nafxcwd:dlgprop.obj
 0001:0009f61b       ?DoModal@CPropertySheet@@UAEHXZ 004a061b f   nafxcwd:dlgprop.obj
 0001:0009f88d       ?AfxPropSheetCallback@@YGHPAUHWND__@@IJ@Z 004a088d f   nafxcwd:dlgprop.obj
 0001:0009f928       ?Create@CPropertySheet@@QAEHPAVCWnd@@KK@Z 004a0928 f   nafxcwd:dlgprop.obj
 0001:0009faba       ?BuildPropPageArray@CPropertySheet@@UAEXXZ 004a0aba f   nafxcwd:dlgprop.obj
 0001:0009fba1       ?GetPageCount@CPropertySheet@@QBEHXZ 004a0ba1 f   nafxcwd:dlgprop.obj
 0001:0009fbfd       ?GetActiveIndex@CPropertySheet@@QBEHXZ 004a0bfd f   nafxcwd:dlgprop.obj
 0001:0009fc46       ?SetActivePage@CPropertySheet@@QAEHH@Z 004a0c46 f   nafxcwd:dlgprop.obj
 0001:0009fc84       ?GetPageIndex@CPropertySheet@@QAEHPAVCPropertyPage@@@Z 004a0c84 f   nafxcwd:dlgprop.obj
 0001:0009fccd       ?SetActivePage@CPropertySheet@@QAEHPAVCPropertyPage@@@Z 004a0ccd f   nafxcwd:dlgprop.obj
 0001:0009fd7b       ?AddPage@CPropertySheet@@QAEXPAVCPropertyPage@@@Z 004a0d7b f   nafxcwd:dlgprop.obj
 0001:0009ff0b       ?RemovePage@CPropertySheet@@QAEXPAVCPropertyPage@@@Z 004a0f0b f   nafxcwd:dlgprop.obj
 0001:0009ffb9       ?RemovePage@CPropertySheet@@QAEXH@Z 004a0fb9 f   nafxcwd:dlgprop.obj
 0001:000a0006       ?EndDialog@CPropertySheet@@QAEXH@Z 004a1006 f   nafxcwd:dlgprop.obj
 0001:000a005c       ?OnClose@CPropertySheet@@IAEXXZ 004a105c f   nafxcwd:dlgprop.obj
 0001:000a0092       ?OnSysCommand@CPropertySheet@@IAEXIJ@Z 004a1092 f   nafxcwd:dlgprop.obj
 0001:000a00e6       ?OnInitDialog@CPropertySheet@@UAEHXZ 004a10e6 f   nafxcwd:dlgprop.obj
 0001:000a03bd       ?OnNcCreate@CPropertySheet@@IAEHPAUtagCREATESTRUCTA@@@Z 004a13bd f   nafxcwd:dlgprop.obj
 0001:000a03e3       ?HandleInitDialog@CPropertySheet@@IAEJIJ@Z 004a13e3 f   nafxcwd:dlgprop.obj
 0001:000a0406       ?OnCommand@CPropertySheet@@UAEHIJ@Z 004a1406 f   nafxcwd:dlgprop.obj
 0001:000a04b7       ?OnCommandHelp@CPropertySheet@@IAEJIJ@Z 004a14b7 f   nafxcwd:dlgprop.obj
 0001:000a0514       ?OnCtlColor@CPropertySheet@@IAEPAUHBRUSH__@@PAVCDC@@PAVCWnd@@I@Z 004a1514 f   nafxcwd:dlgprop.obj
 0001:000a0591       ?AssertValid@CPropertySheet@@UBEXXZ 004a1591 f   nafxcwd:dlgprop.obj
 0001:000a0604       ?Dump@CPropertySheet@@UBEXAAVCDumpContext@@@Z 004a1604 f   nafxcwd:dlgprop.obj
 0001:000a06c3       ??0CPropertyPageEx@@QAE@IIII@Z 004a16c3 f   nafxcwd:dlgprop.obj
 0001:000a0779       ??0CPropertyPageEx@@QAE@PBDIII@Z 004a1779 f   nafxcwd:dlgprop.obj
 0001:000a0832       ?Construct@CPropertyPageEx@@QAEXIIII@Z 004a1832 f   nafxcwd:dlgprop.obj
 0001:000a0883       ?Construct@CPropertyPageEx@@QAEXPBDIII@Z 004a1883 f   nafxcwd:dlgprop.obj
 0001:000a08eb       ??0CPropertyPageEx@@QAE@XZ 004a18eb f   nafxcwd:dlgprop.obj
 0001:000a096b       ?CommonConstruct@CPropertyPageEx@@IAEXPBDIII@Z 004a196b f   nafxcwd:dlgprop.obj
 0001:000a0af4       ?AssertValid@CPropertyPageEx@@UBEXXZ 004a1af4 f   nafxcwd:dlgprop.obj
 0001:000a0ba4       ?Dump@CPropertyPageEx@@UBEXAAVCDumpContext@@@Z 004a1ba4 f   nafxcwd:dlgprop.obj
 0001:000a0c5f       ??0CPropertySheetEx@@QAE@XZ 004a1c5f f   nafxcwd:dlgprop.obj
 0001:000a0cbd       ??0CPropertySheetEx@@QAE@IPAVCWnd@@IPAUHBITMAP__@@PAUHPALETTE__@@1@Z 004a1cbd f   nafxcwd:dlgprop.obj
 0001:000a0d7a       ??0CPropertySheetEx@@QAE@PBDPAVCWnd@@IPAUHBITMAP__@@PAUHPALETTE__@@2@Z 004a1d7a f   nafxcwd:dlgprop.obj
 0001:000a0e19       ?Construct@CPropertySheetEx@@QAEXIPAVCWnd@@IPAUHBITMAP__@@PAUHPALETTE__@@1@Z 004a1e19 f   nafxcwd:dlgprop.obj
 0001:000a0e95       ?Construct@CPropertySheetEx@@QAEXPBDPAVCWnd@@IPAUHBITMAP__@@PAUHPALETTE__@@2@Z 004a1e95 f   nafxcwd:dlgprop.obj
 0001:000a0ef3       ?CommonConstruct@CPropertySheetEx@@QAEXPAVCWnd@@IPAUHBITMAP__@@PAUHPALETTE__@@1@Z 004a1ef3 f   nafxcwd:dlgprop.obj
 0001:000a100d       ?BuildPropPageArray@CPropertySheetEx@@UAEXXZ 004a200d f   nafxcwd:dlgprop.obj
 0001:000a11c9       ??1CPropertySheetEx@@UAE@XZ 004a21c9 f   nafxcwd:dlgprop.obj
 0001:000a122c       ?AddPage@CPropertySheetEx@@QAEXPAVCPropertyPageEx@@@Z 004a222c f   nafxcwd:dlgprop.obj
 0001:000a142f       ?AssertValid@CPropertySheetEx@@UBEXXZ 004a242f f   nafxcwd:dlgprop.obj
 0001:000a14a8       ?Dump@CPropertySheetEx@@UBEXAAVCDumpContext@@@Z 004a24a8 f   nafxcwd:dlgprop.obj
 0001:000a1570       ??_ECPropertyPage@@UAEPAXI@Z 004a2570 f i nafxcwd:dlgprop.obj
 0001:000a1570       ??_GCPropertyPage@@UAEPAXI@Z 004a2570 f i nafxcwd:dlgprop.obj
 0001:000a15a0       ??_GCPropertySheet@@UAEPAXI@Z 004a25a0 f i nafxcwd:dlgprop.obj
 0001:000a15a0       ??_ECPropertySheet@@UAEPAXI@Z 004a25a0 f i nafxcwd:dlgprop.obj
 0001:000a15d0       ??_GCPropertyPageEx@@UAEPAXI@Z 004a25d0 f i nafxcwd:dlgprop.obj
 0001:000a15d0       ??_ECPropertyPageEx@@UAEPAXI@Z 004a25d0 f i nafxcwd:dlgprop.obj
 0001:000a1600       ??1CPropertyPageEx@@UAE@XZ 004a2600 f i nafxcwd:dlgprop.obj
 0001:000a1660       ??_GCPropertySheetEx@@UAEPAXI@Z 004a2660 f i nafxcwd:dlgprop.obj
 0001:000a1660       ??_ECPropertySheetEx@@UAEPAXI@Z 004a2660 f i nafxcwd:dlgprop.obj
 0001:000a1690       ?AfxTrackerTerm@@YAXXZ     004a2690 f   nafxcwd:trckrect.obj
 0001:000a16ca       ??0CRectTracker@@QAE@PBUtagRECT@@I@Z 004a26ca f   nafxcwd:trckrect.obj
 0001:000a175d       ?Construct@CRectTracker@@IAEXXZ 004a275d f   nafxcwd:trckrect.obj
 0001:000a19c5       ??1CRectTracker@@UAE@XZ    004a29c5 f   nafxcwd:trckrect.obj
 0001:000a19d9       ?Draw@CRectTracker@@QBEXPAVCDC@@@Z 004a29d9 f   nafxcwd:trckrect.obj
 0001:000a1d5c       ?SetCursor@CRectTracker@@QBEHPAVCWnd@@I@Z 004a2d5c f   nafxcwd:trckrect.obj
 0001:000a1e3e       ?HitTest@CRectTracker@@QBEHVCPoint@@@Z 004a2e3e f   nafxcwd:trckrect.obj
 0001:000a1efe       ?NormalizeHit@CRectTracker@@QBEHH@Z 004a2efe f   nafxcwd:trckrect.obj
 0001:000a1f9b       ?Track@CRectTracker@@QAEHPAVCWnd@@VCPoint@@H0@Z 004a2f9b f   nafxcwd:trckrect.obj
 0001:000a1fec       ?TrackRubberBand@CRectTracker@@QAEHPAVCWnd@@VCPoint@@H@Z 004a2fec f   nafxcwd:trckrect.obj
 0001:000a2035       ?DrawTrackerRect@CRectTracker@@UAEXPBUtagRECT@@PAVCWnd@@PAVCDC@@1@Z 004a3035 f   nafxcwd:trckrect.obj
 0001:000a219d       ?AdjustRect@CRectTracker@@UAEXHPAUtagRECT@@@Z 004a319d f   nafxcwd:trckrect.obj
 0001:000a2387       ?GetTrueRect@CRectTracker@@QBEXPAUtagRECT@@@Z 004a3387 f   nafxcwd:trckrect.obj
 0001:000a2457       ?OnChangedRect@CRectTracker@@UAEXABVCRect@@@Z 004a3457 f   nafxcwd:trckrect.obj
 0001:000a2464       ?GetHandleRect@CRectTracker@@IBEXHPAVCRect@@@Z 004a3464 f   nafxcwd:trckrect.obj
 0001:000a25e7       ?GetHandleSize@CRectTracker@@MBEHPBUtagRECT@@@Z 004a35e7 f   nafxcwd:trckrect.obj
 0001:000a269b       ?HitTestHandles@CRectTracker@@IBEHVCPoint@@@Z 004a369b f   nafxcwd:trckrect.obj
 0001:000a27ce       ?TrackHandle@CRectTracker@@IAEHHPAVCWnd@@VCPoint@@0@Z 004a37ce f   nafxcwd:trckrect.obj
 0001:000a2bff       ?GetModifyPointers@CRectTracker@@IAEXHPAPAH0PAH1@Z 004a3bff f   nafxcwd:trckrect.obj
 0001:000a2d3b       ?GetHandleMask@CRectTracker@@UBEIXZ 004a3d3b f   nafxcwd:trckrect.obj
 0001:000a2e60       ?GetMessageMap@CFrameWnd@@MBEPBUAFX_MSGMAP@@XZ 004a3e60 f   nafxcwd:winfrm.obj
 0001:000a2e70       ??0CFrameWnd@@QAE@XZ       004a3e70 f   nafxcwd:winfrm.obj
 0001:000a300f       ??1CFrameWnd@@UAE@XZ       004a400f f   nafxcwd:winfrm.obj
 0001:000a30a7       ?AddFrameWnd@CFrameWnd@@IAEXXZ 004a40a7 f   nafxcwd:winfrm.obj
 0001:000a30d8       ?RemoveFrameWnd@CFrameWnd@@IAEXXZ 004a40d8 f   nafxcwd:winfrm.obj
 0001:000a3109       ?LoadAccelTable@CFrameWnd@@QAEHPBD@Z 004a4109 f   nafxcwd:winfrm.obj
 0001:000a318b       ?GetDefaultAccelerator@CFrameWnd@@UAEPAUHACCEL__@@XZ 004a418b f   nafxcwd:winfrm.obj
 0001:000a31d8       ?PreTranslateMessage@CFrameWnd@@UAEHPAUtagMSG@@@Z 004a41d8 f   nafxcwd:winfrm.obj
 0001:000a32ac       ?PostNcDestroy@CFrameWnd@@MAEXXZ 004a42ac f   nafxcwd:winfrm.obj
 0001:000a32e4       ?OnPaletteChanged@CFrameWnd@@IAEXPAVCWnd@@@Z 004a42e4 f   nafxcwd:winfrm.obj
 0001:000a331b       ?OnQueryNewPalette@CFrameWnd@@IAEHXZ 004a431b f   nafxcwd:winfrm.obj
 0001:000a3353       ?ExitHelpMode@CFrameWnd@@UAEXXZ 004a4353 f   nafxcwd:winfrm.obj
 0001:000a3420       ?OnSetCursor@CFrameWnd@@IAEHPAVCWnd@@II@Z 004a4420 f   nafxcwd:winfrm.obj
 0001:000a347e       ?OnCommandHelp@CFrameWnd@@IAEJIJ@Z 004a447e f   nafxcwd:winfrm.obj
 0001:000a34f5       ?OnHelpHitTest@CFrameWnd@@IAEJIJ@Z 004a44f5 f   nafxcwd:winfrm.obj
 0001:000a3520       ?OnCommand@CFrameWnd@@MAEHIJ@Z 004a4520 f   nafxcwd:winfrm.obj
 0001:000a35d1       ?AfxIsDescendant@@YGHPAUHWND__@@0@Z 004a45d1 f   nafxcwd:winfrm.obj
 0001:000a3651       ?BeginModalState@CFrameWnd@@UAEXXZ 004a4651 f   nafxcwd:winfrm.obj
 0001:000a389b       ?EndModalState@CFrameWnd@@UAEXXZ 004a489b f   nafxcwd:winfrm.obj
 0001:000a39b9       ?ShowOwnedWindows@CFrameWnd@@QAEXH@Z 004a49b9 f   nafxcwd:winfrm.obj
 0001:000a3aae       ?OnEnable@CFrameWnd@@IAEXH@Z 004a4aae f   nafxcwd:winfrm.obj
 0001:000a3bde       ?NotifyFloatingWindows@CFrameWnd@@QAEXK@Z 004a4bde f   nafxcwd:winfrm.obj
 0001:000a3d3e       ?PreCreateWindow@CFrameWnd@@MAEHAAUtagCREATESTRUCTA@@@Z 004a4d3e f   nafxcwd:winfrm.obj
 0001:000a3dce       ?Create@CFrameWnd@@QAEHPBD0KABUtagRECT@@PAVCWnd@@0KPAUCCreateContext@@@Z 004a4dce f   nafxcwd:winfrm.obj
 0001:000a3ec0       ?CreateView@CFrameWnd@@QAEPAVCWnd@@PAUCCreateContext@@I@Z 004a4ec0 f   nafxcwd:winfrm.obj
 0001:000a4038       ?OnCreateClient@CFrameWnd@@MAEHPAUtagCREATESTRUCTA@@PAUCCreateContext@@@Z 004a5038 f   nafxcwd:winfrm.obj
 0001:000a4071       ?OnCreate@CFrameWnd@@IAEHPAUtagCREATESTRUCTA@@@Z 004a5071 f   nafxcwd:winfrm.obj
 0001:000a4098       ?OnCreateHelper@CFrameWnd@@IAEHPAUtagCREATESTRUCTA@@PAUCCreateContext@@@Z 004a5098 f   nafxcwd:winfrm.obj
 0001:000a4112       ?GetIconWndClass@CFrameWnd@@IAEPBDKI@Z 004a5112 f   nafxcwd:winfrm.obj
 0001:000a41d9       ?LoadFrame@CFrameWnd@@UAEHIKPAVCWnd@@PAUCCreateContext@@@Z 004a51d9 f   nafxcwd:winfrm.obj
 0001:000a43c2       ?OnUpdateFrameMenu@CFrameWnd@@UAEXPAUHMENU__@@@Z 004a53c2 f   nafxcwd:winfrm.obj
 0001:000a441f       ?InitialUpdateFrame@CFrameWnd@@QAEXPAVCDocument@@H@Z 004a541f f   nafxcwd:winfrm.obj
 0001:000a453e       ?OnClose@CFrameWnd@@IAEXXZ 004a553e f   nafxcwd:winfrm.obj
 0001:000a46c1       ?OnDestroy@CFrameWnd@@IAEXXZ 004a56c1 f   nafxcwd:winfrm.obj
 0001:000a4771       ?RemoveControlBar@CFrameWnd@@QAEXPAVCControlBar@@@Z 004a5771 f   nafxcwd:winfrm.obj
 0001:000a47a9       ?OnCmdMsg@CFrameWnd@@UAEHIHPAXPAUAFX_CMDHANDLERINFO@@@Z 004a57a9 f   nafxcwd:winfrm.obj
 0001:000a48d0       ?OnHScroll@CFrameWnd@@IAEXIIPAVCScrollBar@@@Z 004a58d0 f   nafxcwd:winfrm.obj
 0001:000a4913       ?OnVScroll@CFrameWnd@@IAEXIIPAVCScrollBar@@@Z 004a5913 f   nafxcwd:winfrm.obj
 0001:000a4956       ?OnActivateTopLevel@CFrameWnd@@IAEJIJ@Z 004a5956 f   nafxcwd:winfrm.obj
 0001:000a4a39       ?OnActivate@CFrameWnd@@IAEXIPAVCWnd@@H@Z 004a5a39 f   nafxcwd:winfrm.obj
 0001:000a4bb0       ?OnNcActivate@CFrameWnd@@IAEHH@Z 004a5bb0 f   nafxcwd:winfrm.obj
 0001:000a4bfd       ?OnSysCommand@CFrameWnd@@IAEXIJ@Z 004a5bfd f   nafxcwd:winfrm.obj
 0001:000a4e14       ?OnDropFiles@CFrameWnd@@IAEXPAUHDROP__@@@Z 004a5e14 f   nafxcwd:winfrm.obj
 0001:000a4eca       ?OnQueryEndSession@CFrameWnd@@IAEHXZ 004a5eca f   nafxcwd:winfrm.obj
 0001:000a4f05       ?OnEndSession@CFrameWnd@@IAEXH@Z 004a5f05 f   nafxcwd:winfrm.obj
 0001:000a4f51       ?OnDDEInitiate@CFrameWnd@@IAEJIJ@Z 004a5f51 f   nafxcwd:winfrm.obj
 0001:000a5112       ?OnDDEExecute@CFrameWnd@@IAEJIJ@Z 004a6112 f   nafxcwd:winfrm.obj
 0001:000a523a       ?OnDDETerminate@CFrameWnd@@IAEJIJ@Z 004a623a f   nafxcwd:winfrm.obj
 0001:000a5263       ?GetActiveView@CFrameWnd@@QBEPAVCView@@XZ 004a6263 f   nafxcwd:winfrm.obj
 0001:000a52ba       ?SetActiveView@CFrameWnd@@QAEXPAVCView@@H@Z 004a62ba f   nafxcwd:winfrm.obj
 0001:000a53a9       ?OnSetFocus@CFrameWnd@@IAEXPAVCWnd@@@Z 004a63a9 f   nafxcwd:winfrm.obj
 0001:000a53de       ?GetActiveDocument@CFrameWnd@@UAEPAVCDocument@@XZ 004a63de f   nafxcwd:winfrm.obj
 0001:000a541b       ?ShowControlBar@CFrameWnd@@QAEXPAVCControlBar@@HH@Z 004a641b f   nafxcwd:winfrm.obj
 0001:000a55fe       ?OnInitMenu@CFrameWnd@@IAEXPAVCMenu@@@Z 004a65fe f   nafxcwd:winfrm.obj
 0001:000a5634       ?OnInitMenuPopup@CFrameWnd@@IAEXPAVCMenu@@IH@Z 004a6634 f   nafxcwd:winfrm.obj
 0001:000a58f4       ?OnMenuSelect@CFrameWnd@@IAEXIIPAUHMENU__@@@Z 004a68f4 f   nafxcwd:winfrm.obj
 0001:000a5af4       ?GetMessageString@CFrameWnd@@UBEXIAAVCString@@@Z 004a6af4 f   nafxcwd:winfrm.obj
 0001:000a5b63       ?OnPopMessageString@CFrameWnd@@IAEJIJ@Z 004a6b63 f   nafxcwd:winfrm.obj
 0001:000a5b96       ?OnSetMessageString@CFrameWnd@@IAEJIJ@Z 004a6b96 f   nafxcwd:winfrm.obj
 0001:000a5ce5       ?OnHelpPromptAddr@CFrameWnd@@IAEJIJ@Z 004a6ce5 f   nafxcwd:winfrm.obj
 0001:000a5cf8       ?GetMessageBar@CFrameWnd@@UAEPAVCWnd@@XZ 004a6cf8 f   nafxcwd:winfrm.obj
 0001:000a5d12       ?OnEnterIdle@CFrameWnd@@IAEXIPAVCWnd@@@Z 004a6d12 f   nafxcwd:winfrm.obj
 0001:000a5d91       ?SetMessageText@CFrameWnd@@QAEXPBD@Z 004a6d91 f   nafxcwd:winfrm.obj
 0001:000a5db1       ?SetMessageText@CFrameWnd@@QAEXI@Z 004a6db1 f   nafxcwd:winfrm.obj
 0001:000a5dd1       ?DestroyDockBars@CFrameWnd@@QAEXXZ 004a6dd1 f   nafxcwd:winfrm.obj
 0001:000a5eee       ?GetControlBar@CFrameWnd@@QAEPAVCControlBar@@I@Z 004a6eee f   nafxcwd:winfrm.obj
 0001:000a5faa       ?OnUpdateControlBarMenu@CFrameWnd@@QAEXPAVCCmdUI@@@Z 004a6faa f   nafxcwd:winfrm.obj
 0001:000a6027       ?OnBarCheck@CFrameWnd@@QAEHI@Z 004a7027 f   nafxcwd:winfrm.obj
 0001:000a60a2       ?OnToolTipText@CFrameWnd@@IAEHIPAUtagNMHDR@@PAJ@Z 004a70a2 f   nafxcwd:winfrm.obj
 0001:000a626e       ?OnUpdateKeyIndicator@CFrameWnd@@IAEXPAVCCmdUI@@@Z 004a726e f   nafxcwd:winfrm.obj
 0001:000a6357       ?OnUpdateContextHelp@CFrameWnd@@IAEXPAVCCmdUI@@@Z 004a7357 f   nafxcwd:winfrm.obj
 0001:000a6390       ?OnUpdateFrameTitle@CFrameWnd@@UAEXH@Z 004a7390 f   nafxcwd:winfrm.obj
 0001:000a6413       ?UpdateFrameTitleForDocument@CFrameWnd@@QAEXPBD@Z 004a7413 f   nafxcwd:winfrm.obj
 0001:000a6564       ?OnSetPreviewMode@CFrameWnd@@UAEXHPAUCPrintPreviewState@@@Z 004a7564 f   nafxcwd:winfrm.obj
 0001:000a690f       ?DelayUpdateFrameMenu@CFrameWnd@@UAEXPAUHMENU__@@@Z 004a790f f   nafxcwd:winfrm.obj
 0001:000a693c       ?OnIdleUpdateCmdUI@CFrameWnd@@IAEXXZ 004a793c f   nafxcwd:winfrm.obj
 0001:000a6a29       ?GetActiveFrame@CFrameWnd@@UAEPAV1@XZ 004a7a29 f   nafxcwd:winfrm.obj
 0001:000a6a37       ?RecalcLayout@CFrameWnd@@UAEXH@Z 004a7a37 f   nafxcwd:winfrm.obj
 0001:000a6b81       ?NegotiateBorderSpace@CFrameWnd@@UAEHIPAUtagRECT@@@Z 004a7b81 f   nafxcwd:winfrm.obj
 0001:000a6c97       ?OnSize@CFrameWnd@@IAEXIHH@Z 004a7c97 f   nafxcwd:winfrm.obj
 0001:000a6cce       ?OnEraseBkgnd@CFrameWnd@@IAEHPAVCDC@@@Z 004a7cce f   nafxcwd:winfrm.obj
 0001:000a6cfa       ?OnRegisteredMouseWheel@CFrameWnd@@IAEJIJ@Z 004a7cfa f   nafxcwd:winfrm.obj
 0001:000a6ddd       ?ActivateFrame@CFrameWnd@@UAEXH@Z 004a7ddd f   nafxcwd:winfrm.obj
 0001:000a6e42       ?BringToTop@CFrameWnd@@IAEXH@Z 004a7e42 f   nafxcwd:winfrm.obj
 0001:000a6e89       ?AssertValid@CFrameWnd@@UBEXXZ 004a7e89 f   nafxcwd:winfrm.obj
 0001:000a6ec1       ?Dump@CFrameWnd@@UBEXAAVCDumpContext@@@Z 004a7ec1 f   nafxcwd:winfrm.obj
 0001:000a6fb0       ?GetDockingFrame@CControlBar@@QBEPAVCFrameWnd@@XZ 004a7fb0 f   nafxcwd:winfrm.obj
 0001:000a702b       ?IsFloating@CControlBar@@QBEHXZ 004a802b f   nafxcwd:winfrm.obj
 0001:000a7080       ??_GCFrameWnd@@UAEPAXI@Z   004a8080 f i nafxcwd:winfrm.obj
 0001:000a7080       ??_ECFrameWnd@@UAEPAXI@Z   004a8080 f i nafxcwd:winfrm.obj
 0001:000a70b0       ?_AfxWinminiTerm@@YAXXZ    004a80b0 f   nafxcwd:winmini.obj
 0001:000a70ea       ?GetMessageMap@CMiniFrameWnd@@MBEPBUAFX_MSGMAP@@XZ 004a80ea f   nafxcwd:winmini.obj
 0001:000a70fa       ??0CMiniFrameWnd@@QAE@XZ   004a80fa f   nafxcwd:winmini.obj
 0001:000a716a       ?Initialize@CMiniFrameWnd@@SAXXZ 004a816a f   nafxcwd:winmini.obj
 0001:000a7343       ??1CMiniFrameWnd@@UAE@XZ   004a8343 f   nafxcwd:winmini.obj
 0001:000a73a6       ?Create@CMiniFrameWnd@@QAEHPBD0KABUtagRECT@@PAVCWnd@@I@Z 004a83a6 f   nafxcwd:winmini.obj
 0001:000a73d5       ?CreateEx@CMiniFrameWnd@@QAEHKPBD0KABUtagRECT@@PAVCWnd@@I@Z 004a83d5 f   nafxcwd:winmini.obj
 0001:000a746d       ?OnNcCreate@CMiniFrameWnd@@QAEHPAUtagCREATESTRUCTA@@@Z 004a846d f   nafxcwd:winmini.obj
 0001:000a7543       ?PreCreateWindow@CMiniFrameWnd@@MAEHAAUtagCREATESTRUCTA@@@Z 004a8543 f   nafxcwd:winmini.obj
 0001:000a75dc       ?OnGetMinMaxInfo@CMiniFrameWnd@@QAEXPAUtagMINMAXINFO@@@Z 004a85dc f   nafxcwd:winmini.obj
 0001:000a764b       ?OnNcActivate@CMiniFrameWnd@@QAEHH@Z 004a864b f   nafxcwd:winmini.obj
 0001:000a76c2       ?OnNcCalcSize@CMiniFrameWnd@@QAEXHPAUtagNCCALCSIZE_PARAMS@@@Z 004a86c2 f   nafxcwd:winmini.obj
 0001:000a775b       ?OnNcHitTest@CMiniFrameWnd@@QAEIVCPoint@@@Z 004a875b f   nafxcwd:winmini.obj
 0001:000a7c08       ?OnNcLButtonDown@CMiniFrameWnd@@QAEXIVCPoint@@@Z 004a8c08 f   nafxcwd:winmini.obj
 0001:000a7c64       ?OnMouseMove@CMiniFrameWnd@@QAEXIVCPoint@@@Z 004a8c64 f   nafxcwd:winmini.obj
 0001:000a7d00       ?OnLButtonUp@CMiniFrameWnd@@QAEXIVCPoint@@@Z 004a8d00 f   nafxcwd:winmini.obj
 0001:000a7d6d       ?InvertSysMenu@CMiniFrameWnd@@IAEXXZ 004a8d6d f   nafxcwd:winmini.obj
 0001:000a7e1d       ?_AfxDrawFrame@@YGXPAVCDC@@PBUtagRECT@@HHAAVCBrush@@@Z 004a8e1d f   nafxcwd:winmini.obj
 0001:000a7ee5       ?OnNcPaint@CMiniFrameWnd@@QAEXXZ 004a8ee5 f   nafxcwd:winmini.obj
 0001:000a858a       ?OnSysCommand@CMiniFrameWnd@@QAEXIJ@Z 004a958a f   nafxcwd:winmini.obj
 0001:000a8612       ?CalcWindowRect@CMiniFrameWnd@@UAEXPAUtagRECT@@I@Z 004a9612 f   nafxcwd:winmini.obj
 0001:000a86ad       ?CalcBorders@CMiniFrameWnd@@SGXPAUtagRECT@@KK@Z 004a96ad f   nafxcwd:winmini.obj
 0001:000a873f       ?OnGetText@CMiniFrameWnd@@QAEJIJ@Z 004a973f f   nafxcwd:winmini.obj
 0001:000a87a3       ?OnGetTextLength@CMiniFrameWnd@@QAEJIJ@Z 004a97a3 f   nafxcwd:winmini.obj
 0001:000a87d1       ?OnSetText@CMiniFrameWnd@@QAEJIJ@Z 004a97d1 f   nafxcwd:winmini.obj
 0001:000a88c2       ?OnFloatStatus@CMiniFrameWnd@@QAEJIJ@Z 004a98c2 f   nafxcwd:winmini.obj
 0001:000a8a41       ?OnQueryCenterWnd@CMiniFrameWnd@@QAEJIJ@Z 004a9a41 f   nafxcwd:winmini.obj
 0001:000a8a90       ??_ECMiniFrameWnd@@UAEPAXI@Z 004a9a90 f i nafxcwd:winmini.obj
 0001:000a8a90       ??_GCMiniFrameWnd@@UAEPAXI@Z 004a9a90 f i nafxcwd:winmini.obj
 0001:000a8ac0       ?CreateFloatingFrame@CFrameWnd@@QAEPAVCMiniDockFrameWnd@@K@Z 004a9ac0 f   nafxcwd:winfrm2.obj
 0001:000a8b65       ?EnableDocking@CFrameWnd@@QAEXK@Z 004a9b65 f   nafxcwd:winfrm2.obj
 0001:000a8c9c       ?DockControlBar@CFrameWnd@@QAEXPAVCControlBar@@IPBUtagRECT@@@Z 004a9c9c f   nafxcwd:winfrm2.obj
 0001:000a8ce3       ?DockControlBar@CFrameWnd@@QAEXPAVCControlBar@@PAVCDockBar@@PBUtagRECT@@@Z 004a9ce3 f   nafxcwd:winfrm2.obj
 0001:000a8e25       ?ReDockControlBar@CFrameWnd@@QAEXPAVCControlBar@@PAVCDockBar@@PBUtagRECT@@@Z 004a9e25 f   nafxcwd:winfrm2.obj
 0001:000a8fd3       ?FloatControlBar@CFrameWnd@@QAEXPAVCControlBar@@VCPoint@@K@Z 004a9fd3 f   nafxcwd:winfrm2.obj
 0001:000a926e       ?CanDock@CFrameWnd@@QAEKVCRect@@KPAPAVCDockBar@@@Z 004aa26e f   nafxcwd:winfrm2.obj
 0001:000adec0       ??0CObject@@IAE@XZ         004aeec0 f   nafxcwd:afxinl1.obj
 0001:000aded7       ??1CObject@@UAE@XZ         004aeed7 f   nafxcwd:afxinl1.obj
 0001:000adeeb       ?Serialize@CObject@@UAEXAAVCArchive@@@Z 004aeeeb f   nafxcwd:afxinl1.obj
 0001:000adef8       ??2CObject@@SGPAXIPAX@Z    004aeef8 f   nafxcwd:afxinl1.obj
 0001:000adf02       ?AfxDynamicDownCast@@YAPBVCObject@@PAUCRuntimeClass@@PBV1@@Z 004aef02 f   nafxcwd:afxinl1.obj
 0001:000adf17       ?AfxStaticDownCast@@YAPBVCObject@@PAUCRuntimeClass@@PBV1@@Z 004aef17 f   nafxcwd:afxinl1.obj
 0001:000adf2c       ??1CException@@UAE@XZ      004aef2c f   nafxcwd:afxinl1.obj
 0001:000adf48       ??0CSimpleException@@QAE@XZ 004aef48 f   nafxcwd:afxinl1.obj
 0001:000adf7b       ??0CSimpleException@@QAE@H@Z 004aef7b f   nafxcwd:afxinl1.obj
 0001:000adfb4       ??1CSimpleException@@UAE@XZ 004aefb4 f   nafxcwd:afxinl1.obj
 0001:000adfd0       ??0CMemoryException@@QAE@XZ 004aefd0 f   nafxcwd:afxinl1.obj
 0001:000adfef       ??0CMemoryException@@QAE@HI@Z 004aefef f   nafxcwd:afxinl1.obj
 0001:000ae020       ??1CMemoryException@@UAE@XZ 004af020 f   nafxcwd:afxinl1.obj
 0001:000ae03c       ??0CNotSupportedException@@QAE@XZ 004af03c f   nafxcwd:afxinl1.obj
 0001:000ae05b       ??0CNotSupportedException@@QAE@HI@Z 004af05b f   nafxcwd:afxinl1.obj
 0001:000ae08c       ??1CNotSupportedException@@UAE@XZ 004af08c f   nafxcwd:afxinl1.obj
 0001:000ae0a8       ??0CArchiveException@@QAE@HPBD@Z 004af0a8 f   nafxcwd:afxinl1.obj
 0001:000ae11d       ??1CArchiveException@@UAE@XZ 004af11d f   nafxcwd:afxinl1.obj
 0001:000ae171       ??0CFileException@@QAE@HJPBD@Z 004af171 f   nafxcwd:afxinl1.obj
 0001:000ae1ef       ??1CFileException@@UAE@XZ  004af1ef f   nafxcwd:afxinl1.obj
 0001:000ae243       ??BCFile@@QBEHXZ           004af243 f   nafxcwd:afxinl1.obj
 0001:000ae254       ?ReadHuge@CFile@@QAEKPAXK@Z 004af254 f   nafxcwd:afxinl1.obj
 0001:000ae274       ?WriteHuge@CFile@@QAEXPBXK@Z 004af274 f   nafxcwd:afxinl1.obj
 0001:000ae294       ?SeekToEnd@CFile@@QAEKXZ   004af294 f   nafxcwd:afxinl1.obj
 0001:000ae2ae       ?SeekToBegin@CFile@@QAEXXZ 004af2ae f   nafxcwd:afxinl1.obj
 0001:000ae2c8       ?SetFilePath@CFile@@UAEXPBD@Z 004af2c8 f   nafxcwd:afxinl1.obj
 0001:000ae320       ?IsReadOnly@CFileFind@@QBEHXZ 004af320 f   nafxcwd:afxinl1.obj
 0001:000ae338       ?IsDirectory@CFileFind@@QBEHXZ 004af338 f   nafxcwd:afxinl1.obj
 0001:000ae350       ?IsCompressed@CFileFind@@QBEHXZ 004af350 f   nafxcwd:afxinl1.obj
 0001:000ae36b       ?IsSystem@CFileFind@@QBEHXZ 004af36b f   nafxcwd:afxinl1.obj
 0001:000ae383       ?IsHidden@CFileFind@@QBEHXZ 004af383 f   nafxcwd:afxinl1.obj
 0001:000ae39b       ?IsTemporary@CFileFind@@QBEHXZ 004af39b f   nafxcwd:afxinl1.obj
 0001:000ae3b6       ?IsNormal@CFileFind@@QBEHXZ 004af3b6 f   nafxcwd:afxinl1.obj
 0001:000ae3d1       ?IsArchived@CFileFind@@QBEHXZ 004af3d1 f   nafxcwd:afxinl1.obj
 0001:000ae3e9       ?GetData@CString@@IBEPAUCStringData@@XZ 004af3e9 f   nafxcwd:afxinl1.obj
 0001:000ae421       ?Init@CString@@IAEXXZ      004af421 f   nafxcwd:afxinl1.obj
 0001:000ae437       ??0CString@@QAE@XZ         004af437 f   nafxcwd:afxinl1.obj
 0001:000ae450       ??0CString@@QAE@PBE@Z      004af450 f   nafxcwd:afxinl1.obj
 0001:000ae474       ??4CString@@QAEABV0@PBE@Z  004af474 f   nafxcwd:afxinl1.obj
 0001:000ae490       ?GetLength@CString@@QBEHXZ 004af490 f   nafxcwd:afxinl1.obj
 0001:000ae4a6       ?GetAllocLength@CString@@QBEHXZ 004af4a6 f   nafxcwd:afxinl1.obj
 0001:000ae4bc       ?IsEmpty@CString@@QBEHXZ   004af4bc f   nafxcwd:afxinl1.obj
 0001:000ae4da       ??BCString@@QBEPBDXZ       004af4da f   nafxcwd:afxinl1.obj
 0001:000ae4ea       ?SafeStrlen@CString@@KGHPBD@Z 004af4ea f   nafxcwd:afxinl1.obj
 0001:000ae513       ?Compare@CString@@QBEHPBD@Z 004af513 f   nafxcwd:afxinl1.obj
 0001:000ae561       ?CompareNoCase@CString@@QBEHPBD@Z 004af561 f   nafxcwd:afxinl1.obj
 0001:000ae5af       ?Collate@CString@@QBEHPBD@Z 004af5af f   nafxcwd:afxinl1.obj
 0001:000ae5fd       ?CollateNoCase@CString@@QBEHPBD@Z 004af5fd f   nafxcwd:afxinl1.obj
 0001:000ae64b       ?GetAt@CString@@QBEDH@Z    004af64b f   nafxcwd:afxinl1.obj
 0001:000ae6b3       ??ACString@@QBEDH@Z        004af6b3 f   nafxcwd:afxinl1.obj
 0001:000ae71b       ??8@YG_NABVCString@@0@Z    004af71b f   nafxcwd:afxinl1.obj
 0001:000ae738       ??8@YG_NABVCString@@PBD@Z  004af738 f   nafxcwd:afxinl1.obj
 0001:000ae750       ??8@YG_NPBDABVCString@@@Z  004af750 f   nafxcwd:afxinl1.obj
 0001:000ae768       ??9@YG_NABVCString@@0@Z    004af768 f   nafxcwd:afxinl1.obj
 0001:000ae786       ??9@YG_NABVCString@@PBD@Z  004af786 f   nafxcwd:afxinl1.obj
 0001:000ae79f       ??9@YG_NPBDABVCString@@@Z  004af79f f   nafxcwd:afxinl1.obj
 0001:000ae7b8       ??M@YG_NABVCString@@0@Z    004af7b8 f   nafxcwd:afxinl1.obj
 0001:000ae7d9       ??M@YG_NABVCString@@PBD@Z  004af7d9 f   nafxcwd:afxinl1.obj
 0001:000ae7f5       ??M@YG_NPBDABVCString@@@Z  004af7f5 f   nafxcwd:afxinl1.obj
 0001:000ae811       ??O@YG_NABVCString@@0@Z    004af811 f   nafxcwd:afxinl1.obj
 0001:000ae832       ??O@YG_NABVCString@@PBD@Z  004af832 f   nafxcwd:afxinl1.obj
 0001:000ae84e       ??O@YG_NPBDABVCString@@@Z  004af84e f   nafxcwd:afxinl1.obj
 0001:000ae86a       ??N@YG_NABVCString@@0@Z    004af86a f   nafxcwd:afxinl1.obj
 0001:000ae88b       ??N@YG_NABVCString@@PBD@Z  004af88b f   nafxcwd:afxinl1.obj
 0001:000ae8a7       ??N@YG_NPBDABVCString@@@Z  004af8a7 f   nafxcwd:afxinl1.obj
 0001:000ae8c3       ??P@YG_NABVCString@@0@Z    004af8c3 f   nafxcwd:afxinl1.obj
 0001:000ae8e4       ??P@YG_NABVCString@@PBD@Z  004af8e4 f   nafxcwd:afxinl1.obj
 0001:000ae900       ??P@YG_NPBDABVCString@@@Z  004af900 f   nafxcwd:afxinl1.obj
 0001:000ae91c       ??0CTimeSpan@@QAE@XZ       004af91c f   nafxcwd:afxinl1.obj
 0001:000ae92a       ??0CTimeSpan@@QAE@J@Z      004af92a f   nafxcwd:afxinl1.obj
 0001:000ae942       ??0CTimeSpan@@QAE@JHHH@Z   004af942 f   nafxcwd:afxinl1.obj
 0001:000ae972       ??0CTimeSpan@@QAE@ABV0@@Z  004af972 f   nafxcwd:afxinl1.obj
 0001:000ae98c       ??4CTimeSpan@@QAEABV0@ABV0@@Z 004af98c f   nafxcwd:afxinl1.obj
 0001:000ae9a6       ?GetDays@CTimeSpan@@QBEJXZ 004af9a6 f   nafxcwd:afxinl1.obj
 0001:000ae9be       ?GetTotalHours@CTimeSpan@@QBEJXZ 004af9be f   nafxcwd:afxinl1.obj
 0001:000ae9d6       ?GetHours@CTimeSpan@@QBEHXZ 004af9d6 f   nafxcwd:afxinl1.obj
 0001:000ae9fc       ?GetTotalMinutes@CTimeSpan@@QBEJXZ 004af9fc f   nafxcwd:afxinl1.obj
 0001:000aea14       ?GetMinutes@CTimeSpan@@QBEHXZ 004afa14 f   nafxcwd:afxinl1.obj
 0001:000aea3a       ?GetTotalSeconds@CTimeSpan@@QBEJXZ 004afa3a f   nafxcwd:afxinl1.obj
 0001:000aea4a       ?GetSeconds@CTimeSpan@@QBEHXZ 004afa4a f   nafxcwd:afxinl1.obj
 0001:000aea70       ??GCTimeSpan@@QBE?AV0@V0@@Z 004afa70 f   nafxcwd:afxinl1.obj
 0001:000aea9c       ??HCTimeSpan@@QBE?AV0@V0@@Z 004afa9c f   nafxcwd:afxinl1.obj
 0001:000aeac8       ??YCTimeSpan@@QAEABV0@V0@@Z 004afac8 f   nafxcwd:afxinl1.obj
 0001:000aeae5       ??ZCTimeSpan@@QAEABV0@V0@@Z 004afae5 f   nafxcwd:afxinl1.obj
 0001:000aeb02       ??8CTimeSpan@@QBEHV0@@Z    004afb02 f   nafxcwd:afxinl1.obj
 0001:000aeb1c       ??9CTimeSpan@@QBEHV0@@Z    004afb1c f   nafxcwd:afxinl1.obj
 0001:000aeb36       ??MCTimeSpan@@QBEHV0@@Z    004afb36 f   nafxcwd:afxinl1.obj
 0001:000aeb50       ??OCTimeSpan@@QBEHV0@@Z    004afb50 f   nafxcwd:afxinl1.obj
 0001:000aeb6a       ??NCTimeSpan@@QBEHV0@@Z    004afb6a f   nafxcwd:afxinl1.obj
 0001:000aeb84       ??PCTimeSpan@@QBEHV0@@Z    004afb84 f   nafxcwd:afxinl1.obj
 0001:000aeb9e       ??0CTime@@QAE@XZ           004afb9e f   nafxcwd:afxinl1.obj
 0001:000aebac       ??0CTime@@QAE@J@Z          004afbac f   nafxcwd:afxinl1.obj
 0001:000aebc4       ??0CTime@@QAE@ABV0@@Z      004afbc4 f   nafxcwd:afxinl1.obj
 0001:000aebde       ??4CTime@@QAEABV0@ABV0@@Z  004afbde f   nafxcwd:afxinl1.obj
 0001:000aebf8       ??4CTime@@QAEABV0@J@Z      004afbf8 f   nafxcwd:afxinl1.obj
 0001:000aec10       ?GetTime@CTime@@QBEJXZ     004afc10 f   nafxcwd:afxinl1.obj
 0001:000aec20       ?GetYear@CTime@@QBEHXZ     004afc20 f   nafxcwd:afxinl1.obj
 0001:000aec3d       ?GetMonth@CTime@@QBEHXZ    004afc3d f   nafxcwd:afxinl1.obj
 0001:000aec58       ?GetDay@CTime@@QBEHXZ      004afc58 f   nafxcwd:afxinl1.obj
 0001:000aec70       ?GetHour@CTime@@QBEHXZ     004afc70 f   nafxcwd:afxinl1.obj
 0001:000aec88       ?GetMinute@CTime@@QBEHXZ   004afc88 f   nafxcwd:afxinl1.obj
 0001:000aeca0       ?GetSecond@CTime@@QBEHXZ   004afca0 f   nafxcwd:afxinl1.obj
 0001:000aecb7       ?GetDayOfWeek@CTime@@QBEHXZ 004afcb7 f   nafxcwd:afxinl1.obj
 0001:000aecd2       ??GCTime@@QBE?AVCTimeSpan@@V0@@Z 004afcd2 f   nafxcwd:afxinl1.obj
 0001:000aecfe       ??GCTime@@QBE?AV0@VCTimeSpan@@@Z 004afcfe f   nafxcwd:afxinl1.obj
 0001:000aed2a       ??HCTime@@QBE?AV0@VCTimeSpan@@@Z 004afd2a f   nafxcwd:afxinl1.obj
 0001:000aed56       ??YCTime@@QAEABV0@VCTimeSpan@@@Z 004afd56 f   nafxcwd:afxinl1.obj
 0001:000aed73       ??ZCTime@@QAEABV0@VCTimeSpan@@@Z 004afd73 f   nafxcwd:afxinl1.obj
 0001:000aed90       ??8CTime@@QBEHV0@@Z        004afd90 f   nafxcwd:afxinl1.obj
 0001:000aedaa       ??9CTime@@QBEHV0@@Z        004afdaa f   nafxcwd:afxinl1.obj
 0001:000aedc4       ??MCTime@@QBEHV0@@Z        004afdc4 f   nafxcwd:afxinl1.obj
 0001:000aedde       ??OCTime@@QBEHV0@@Z        004afdde f   nafxcwd:afxinl1.obj
 0001:000aedf8       ??NCTime@@QBEHV0@@Z        004afdf8 f   nafxcwd:afxinl1.obj
 0001:000aee12       ??PCTime@@QBEHV0@@Z        004afe12 f   nafxcwd:afxinl1.obj
 0001:000aee2c       ?IsLoading@CArchive@@QBEHXZ 004afe2c f   nafxcwd:afxinl1.obj
 0001:000aee46       ?IsStoring@CArchive@@QBEHXZ 004afe46 f   nafxcwd:afxinl1.obj
 0001:000aee5f       ?IsByteSwapping@CArchive@@QBEHXZ 004afe5f f   nafxcwd:afxinl1.obj
 0001:000aee78       ?IsBufferEmpty@CArchive@@QBEHXZ 004afe78 f   nafxcwd:afxinl1.obj
 0001:000aee94       ?GetFile@CArchive@@QBEPAVCFile@@XZ 004afe94 f   nafxcwd:afxinl1.obj
 0001:000aeea5       ?SetObjectSchema@CArchive@@QAEXI@Z 004afea5 f   nafxcwd:afxinl1.obj
 0001:000aeebb       ?SetStoreParams@CArchive@@QAEXII@Z 004afebb f   nafxcwd:afxinl1.obj
 0001:000aef29       ?SetLoadParams@CArchive@@QAEXI@Z 004aff29 f   nafxcwd:afxinl1.obj
 0001:000aef8e       ??6CArchive@@QAEAAV0@H@Z   004aff8e f   nafxcwd:afxinl1.obj
 0001:000aefa7       ??6CArchive@@QAEAAV0@I@Z   004affa7 f   nafxcwd:afxinl1.obj
 0001:000aefc0       ??6CArchive@@QAEAAV0@F@Z   004affc0 f   nafxcwd:afxinl1.obj
 0001:000aefda       ??6CArchive@@QAEAAV0@D@Z   004affda f   nafxcwd:afxinl1.obj
 0001:000aeff3       ??6CArchive@@QAEAAV0@E@Z   004afff3 f   nafxcwd:afxinl1.obj
 0001:000af036       ??6CArchive@@QAEAAV0@G@Z   004b0036 f   nafxcwd:afxinl1.obj
 0001:000af07b       ??6CArchive@@QAEAAV0@J@Z   004b007b f   nafxcwd:afxinl1.obj
 0001:000af0be       ??6CArchive@@QAEAAV0@K@Z   004b00be f   nafxcwd:afxinl1.obj
 0001:000af101       ??6CArchive@@QAEAAV0@M@Z   004b0101 f   nafxcwd:afxinl1.obj
 0001:000af144       ??6CArchive@@QAEAAV0@N@Z   004b0144 f   nafxcwd:afxinl1.obj
 0001:000af18d       ??5CArchive@@QAEAAV0@AAH@Z 004b018d f   nafxcwd:afxinl1.obj
 0001:000af1a6       ??5CArchive@@QAEAAV0@AAI@Z 004b01a6 f   nafxcwd:afxinl1.obj
 0001:000af1bf       ??5CArchive@@QAEAAV0@AAF@Z 004b01bf f   nafxcwd:afxinl1.obj
 0001:000af1d8       ??5CArchive@@QAEAAV0@AAD@Z 004b01d8 f   nafxcwd:afxinl1.obj
 0001:000af1f1       ??5CArchive@@QAEAAV0@AAE@Z 004b01f1 f   nafxcwd:afxinl1.obj
 0001:000af24a       ??5CArchive@@QAEAAV0@AAG@Z 004b024a f   nafxcwd:afxinl1.obj
 0001:000af2a5       ??5CArchive@@QAEAAV0@AAK@Z 004b02a5 f   nafxcwd:afxinl1.obj
 0001:000af2fe       ??5CArchive@@QAEAAV0@AAM@Z 004b02fe f   nafxcwd:afxinl1.obj
 0001:000af357       ??5CArchive@@QAEAAV0@AAN@Z 004b0357 f   nafxcwd:afxinl1.obj
 0001:000af3b6       ??5CArchive@@QAEAAV0@AAJ@Z 004b03b6 f   nafxcwd:afxinl1.obj
 0001:000af40f       ??0CArchive@@IAE@ABV0@@Z   004b040f f   nafxcwd:afxinl1.obj
 0001:000af42a       ??4CArchive@@IAEXABV0@@Z   004b042a f   nafxcwd:afxinl1.obj
 0001:000af437       ??6@YGAAVCArchive@@AAV0@PBVCObject@@@Z 004b0437 f   nafxcwd:afxinl1.obj
 0001:000af44d       ??5@YGAAVCArchive@@AAV0@AAPAVCObject@@@Z 004b044d f   nafxcwd:afxinl1.obj
 0001:000af466       ??5@YGAAVCArchive@@AAV0@AAPBVCObject@@@Z 004b0466 f   nafxcwd:afxinl1.obj
 0001:000af47f       ?GetDepth@CDumpContext@@QBEHXZ 004b047f f   nafxcwd:afxinl1.obj
 0001:000af48f       ?SetDepth@CDumpContext@@QAEXH@Z 004b048f f   nafxcwd:afxinl1.obj
 0001:000af4a4       ??0CDumpContext@@IAE@ABV0@@Z 004b04a4 f   nafxcwd:afxinl1.obj
 0001:000af4b4       ??4CDumpContext@@IAEXABV0@@Z 004b04b4 f   nafxcwd:afxinl1.obj
 0001:000af4c1       ?GetSize@CByteArray@@QBEHXZ 004b04c1 f   nafxcwd:afxinl1.obj
 0001:000af4d2       ?GetUpperBound@CByteArray@@QBEHXZ 004b04d2 f   nafxcwd:afxinl1.obj
 0001:000af4e6       ?RemoveAll@CByteArray@@QAEXXZ 004b04e6 f   nafxcwd:afxinl1.obj
 0001:000af4fd       ?GetAt@CByteArray@@QBEEH@Z 004b04fd f   nafxcwd:afxinl1.obj
 0001:000af544       ?SetAt@CByteArray@@QAEXHE@Z 004b0544 f   nafxcwd:afxinl1.obj
 0001:000af58e       ?ElementAt@CByteArray@@QAEAAEH@Z 004b058e f   nafxcwd:afxinl1.obj
 0001:000af5d2       ?GetData@CByteArray@@QBEPBEXZ 004b05d2 f   nafxcwd:afxinl1.obj
 0001:000af5e3       ?GetData@CByteArray@@QAEPAEXZ 004b05e3 f   nafxcwd:afxinl1.obj
 0001:000af5f4       ?Add@CByteArray@@QAEHE@Z   004b05f4 f   nafxcwd:afxinl1.obj
 0001:000af61f       ??ACByteArray@@QBEEH@Z     004b061f f   nafxcwd:afxinl1.obj
 0001:000af638       ??ACByteArray@@QAEAAEH@Z   004b0638 f   nafxcwd:afxinl1.obj
 0001:000af651       ?GetSize@CWordArray@@QBEHXZ 004b0651 f   nafxcwd:afxinl1.obj
 0001:000af662       ?GetUpperBound@CWordArray@@QBEHXZ 004b0662 f   nafxcwd:afxinl1.obj
 0001:000af676       ?RemoveAll@CWordArray@@QAEXXZ 004b0676 f   nafxcwd:afxinl1.obj
 0001:000af68d       ?GetAt@CWordArray@@QBEGH@Z 004b068d f   nafxcwd:afxinl1.obj
 0001:000af6d5       ?SetAt@CWordArray@@QAEXHG@Z 004b06d5 f   nafxcwd:afxinl1.obj
 0001:000af721       ?ElementAt@CWordArray@@QAEAAGH@Z 004b0721 f   nafxcwd:afxinl1.obj
 0001:000af768       ?GetData@CWordArray@@QBEPBGXZ 004b0768 f   nafxcwd:afxinl1.obj
 0001:000af779       ?GetData@CWordArray@@QAEPAGXZ 004b0779 f   nafxcwd:afxinl1.obj
 0001:000af78a       ?Add@CWordArray@@QAEHG@Z   004b078a f   nafxcwd:afxinl1.obj
 0001:000af7b6       ??ACWordArray@@QBEGH@Z     004b07b6 f   nafxcwd:afxinl1.obj
 0001:000af7cf       ??ACWordArray@@QAEAAGH@Z   004b07cf f   nafxcwd:afxinl1.obj
 0001:000af7e8       ?GetSize@CDWordArray@@QBEHXZ 004b07e8 f   nafxcwd:afxinl1.obj
 0001:000af7f9       ?GetUpperBound@CDWordArray@@QBEHXZ 004b07f9 f   nafxcwd:afxinl1.obj
 0001:000af80d       ?RemoveAll@CDWordArray@@QAEXXZ 004b080d f   nafxcwd:afxinl1.obj
 0001:000af824       ?GetAt@CDWordArray@@QBEKH@Z 004b0824 f   nafxcwd:afxinl1.obj
 0001:000af86b       ?SetAt@CDWordArray@@QAEXHK@Z 004b086b f   nafxcwd:afxinl1.obj
 0001:000af8b5       ?ElementAt@CDWordArray@@QAEAAKH@Z 004b08b5 f   nafxcwd:afxinl1.obj
 0001:000af8fc       ?GetData@CDWordArray@@QBEPBKXZ 004b08fc f   nafxcwd:afxinl1.obj
 0001:000af90d       ?GetData@CDWordArray@@QAEPAKXZ 004b090d f   nafxcwd:afxinl1.obj
 0001:000af91e       ?Add@CDWordArray@@QAEHK@Z  004b091e f   nafxcwd:afxinl1.obj
 0001:000af949       ??ACDWordArray@@QBEKH@Z    004b0949 f   nafxcwd:afxinl1.obj
 0001:000af962       ??ACDWordArray@@QAEAAKH@Z  004b0962 f   nafxcwd:afxinl1.obj
 0001:000af97b       ?GetSize@CUIntArray@@QBEHXZ 004b097b f   nafxcwd:afxinl1.obj
 0001:000af98c       ?GetUpperBound@CUIntArray@@QBEHXZ 004b098c f   nafxcwd:afxinl1.obj
 0001:000af9a0       ?RemoveAll@CUIntArray@@QAEXXZ 004b09a0 f   nafxcwd:afxinl1.obj
 0001:000af9b7       ?GetAt@CUIntArray@@QBEIH@Z 004b09b7 f   nafxcwd:afxinl1.obj
 0001:000af9fe       ?SetAt@CUIntArray@@QAEXHI@Z 004b09fe f   nafxcwd:afxinl1.obj
 0001:000afa48       ?ElementAt@CUIntArray@@QAEAAIH@Z 004b0a48 f   nafxcwd:afxinl1.obj
 0001:000afa92       ?GetData@CUIntArray@@QBEPBIXZ 004b0a92 f   nafxcwd:afxinl1.obj
 0001:000afaa3       ?GetData@CUIntArray@@QAEPAIXZ 004b0aa3 f   nafxcwd:afxinl1.obj
 0001:000afab4       ?Add@CUIntArray@@QAEHI@Z   004b0ab4 f   nafxcwd:afxinl1.obj
 0001:000afadf       ??ACUIntArray@@QBEIH@Z     004b0adf f   nafxcwd:afxinl1.obj
 0001:000afaf8       ??ACUIntArray@@QAEAAIH@Z   004b0af8 f   nafxcwd:afxinl1.obj
 0001:000afb11       ?GetSize@CPtrArray@@QBEHXZ 004b0b11 f   nafxcwd:afxinl1.obj
 0001:000afb22       ?GetUpperBound@CPtrArray@@QBEHXZ 004b0b22 f   nafxcwd:afxinl1.obj
 0001:000afb36       ?RemoveAll@CPtrArray@@QAEXXZ 004b0b36 f   nafxcwd:afxinl1.obj
 0001:000afb4d       ?GetAt@CPtrArray@@QBEPAXH@Z 004b0b4d f   nafxcwd:afxinl1.obj
 0001:000afb97       ?SetAt@CPtrArray@@QAEXHPAX@Z 004b0b97 f   nafxcwd:afxinl1.obj
 0001:000afbe4       ?ElementAt@CPtrArray@@QAEAAPAXH@Z 004b0be4 f   nafxcwd:afxinl1.obj
 0001:000afc2e       ?GetData@CPtrArray@@QBEPAPBXXZ 004b0c2e f   nafxcwd:afxinl1.obj
 0001:000afc3f       ?GetData@CPtrArray@@QAEPAPAXXZ 004b0c3f f   nafxcwd:afxinl1.obj
 0001:000afc50       ?Add@CPtrArray@@QAEHPAX@Z  004b0c50 f   nafxcwd:afxinl1.obj
 0001:000afc7b       ??ACPtrArray@@QBEPAXH@Z    004b0c7b f   nafxcwd:afxinl1.obj
 0001:000afc94       ??ACPtrArray@@QAEAAPAXH@Z  004b0c94 f   nafxcwd:afxinl1.obj
 0001:000afcad       ?GetSize@CObArray@@QBEHXZ  004b0cad f   nafxcwd:afxinl1.obj
 0001:000afcbe       ?GetUpperBound@CObArray@@QBEHXZ 004b0cbe f   nafxcwd:afxinl1.obj
 0001:000afcd2       ?RemoveAll@CObArray@@QAEXXZ 004b0cd2 f   nafxcwd:afxinl1.obj
 0001:000afce9       ?GetAt@CObArray@@QBEPAVCObject@@H@Z 004b0ce9 f   nafxcwd:afxinl1.obj
 0001:000afd33       ?SetAt@CObArray@@QAEXHPAVCObject@@@Z 004b0d33 f   nafxcwd:afxinl1.obj
 0001:000afd80       ?ElementAt@CObArray@@QAEAAPAVCObject@@H@Z 004b0d80 f   nafxcwd:afxinl1.obj
 0001:000afdca       ?GetData@CObArray@@QBEPAPBVCObject@@XZ 004b0dca f   nafxcwd:afxinl1.obj
 0001:000afddb       ?GetData@CObArray@@QAEPAPAVCObject@@XZ 004b0ddb f   nafxcwd:afxinl1.obj
 0001:000afdec       ?Add@CObArray@@QAEHPAVCObject@@@Z 004b0dec f   nafxcwd:afxinl1.obj
 0001:000afe17       ??ACObArray@@QBEPAVCObject@@H@Z 004b0e17 f   nafxcwd:afxinl1.obj
 0001:000afe30       ??ACObArray@@QAEAAPAVCObject@@H@Z 004b0e30 f   nafxcwd:afxinl1.obj
 0001:000afe49       ?GetSize@CStringArray@@QBEHXZ 004b0e49 f   nafxcwd:afxinl1.obj
 0001:000afe5a       ?GetUpperBound@CStringArray@@QBEHXZ 004b0e5a f   nafxcwd:afxinl1.obj
 0001:000afe6e       ?RemoveAll@CStringArray@@QAEXXZ 004b0e6e f   nafxcwd:afxinl1.obj
 0001:000afe85       ?GetAt@CStringArray@@QBE?AVCString@@H@Z 004b0e85 f   nafxcwd:afxinl1.obj
 0001:000afeed       ?SetAt@CStringArray@@QAEXHPBD@Z 004b0eed f   nafxcwd:afxinl1.obj
 0001:000aff40       ?SetAt@CStringArray@@QAEXHABVCString@@@Z 004b0f40 f   nafxcwd:afxinl1.obj
 0001:000aff93       ?ElementAt@CStringArray@@QAEAAVCString@@H@Z 004b0f93 f   nafxcwd:afxinl1.obj
 0001:000affdd       ?GetData@CStringArray@@QBEPBVCString@@XZ 004b0fdd f   nafxcwd:afxinl1.obj
 0001:000affee       ?GetData@CStringArray@@QAEPAVCString@@XZ 004b0fee f   nafxcwd:afxinl1.obj
 0001:000affff       ?Add@CStringArray@@QAEHPBD@Z 004b0fff f   nafxcwd:afxinl1.obj
 0001:000b002a       ?Add@CStringArray@@QAEHABVCString@@@Z 004b102a f   nafxcwd:afxinl1.obj
 0001:000b0055       ??ACStringArray@@QBE?AVCString@@H@Z 004b1055 f   nafxcwd:afxinl1.obj
 0001:000b0087       ??ACStringArray@@QAEAAVCString@@H@Z 004b1087 f   nafxcwd:afxinl1.obj
 0001:000b00a0       ?GetCount@CPtrList@@QBEHXZ 004b10a0 f   nafxcwd:afxinl1.obj
 0001:000b00b1       ?IsEmpty@CPtrList@@QBEHXZ  004b10b1 f   nafxcwd:afxinl1.obj
 0001:000b00ca       ?GetHead@CPtrList@@QAEAAPAXXZ 004b10ca f   nafxcwd:afxinl1.obj
 0001:000b0107       ?GetHead@CPtrList@@QBEPAXXZ 004b1107 f   nafxcwd:afxinl1.obj
 0001:000b0144       ?GetTail@CPtrList@@QAEAAPAXXZ 004b1144 f   nafxcwd:afxinl1.obj
 0001:000b0181       ?GetTail@CPtrList@@QBEPAXXZ 004b1181 f   nafxcwd:afxinl1.obj
 0001:000b01be       ?GetHeadPosition@CPtrList@@QBEPAU__POSITION@@XZ 004b11be f   nafxcwd:afxinl1.obj
 0001:000b01cf       ?GetTailPosition@CPtrList@@QBEPAU__POSITION@@XZ 004b11cf f   nafxcwd:afxinl1.obj
 0001:000b01e0       ?GetNext@CPtrList@@QAEAAPAXAAPAU__POSITION@@@Z 004b11e0 f   nafxcwd:afxinl1.obj
 0001:000b0238       ?GetNext@CPtrList@@QBEPAXAAPAU__POSITION@@@Z 004b1238 f   nafxcwd:afxinl1.obj
 0001:000b0290       ?GetPrev@CPtrList@@QAEAAPAXAAPAU__POSITION@@@Z 004b1290 f   nafxcwd:afxinl1.obj
 0001:000b02e9       ?GetPrev@CPtrList@@QBEPAXAAPAU__POSITION@@@Z 004b12e9 f   nafxcwd:afxinl1.obj
 0001:000b0342       ?GetAt@CPtrList@@QAEAAPAXPAU__POSITION@@@Z 004b1342 f   nafxcwd:afxinl1.obj
 0001:000b038e       ?GetAt@CPtrList@@QBEPAXPAU__POSITION@@@Z 004b138e f   nafxcwd:afxinl1.obj
 0001:000b03da       ?SetAt@CPtrList@@QAEXPAU__POSITION@@PAX@Z 004b13da f   nafxcwd:afxinl1.obj
 0001:000b0429       ?GetCount@CObList@@QBEHXZ  004b1429 f   nafxcwd:afxinl1.obj
 0001:000b043a       ?IsEmpty@CObList@@QBEHXZ   004b143a f   nafxcwd:afxinl1.obj
 0001:000b0453       ?GetHead@CObList@@QAEAAPAVCObject@@XZ 004b1453 f   nafxcwd:afxinl1.obj
 0001:000b0490       ?GetHead@CObList@@QBEPAVCObject@@XZ 004b1490 f   nafxcwd:afxinl1.obj
 0001:000b04cd       ?GetTail@CObList@@QAEAAPAVCObject@@XZ 004b14cd f   nafxcwd:afxinl1.obj
 0001:000b050a       ?GetTail@CObList@@QBEPAVCObject@@XZ 004b150a f   nafxcwd:afxinl1.obj
 0001:000b0547       ?GetHeadPosition@CObList@@QBEPAU__POSITION@@XZ 004b1547 f   nafxcwd:afxinl1.obj
 0001:000b0558       ?GetTailPosition@CObList@@QBEPAU__POSITION@@XZ 004b1558 f   nafxcwd:afxinl1.obj
 0001:000b0569       ?GetNext@CObList@@QAEAAPAVCObject@@AAPAU__POSITION@@@Z 004b1569 f   nafxcwd:afxinl1.obj
 0001:000b05c1       ?GetNext@CObList@@QBEPAVCObject@@AAPAU__POSITION@@@Z 004b15c1 f   nafxcwd:afxinl1.obj
 0001:000b0619       ?GetPrev@CObList@@QAEAAPAVCObject@@AAPAU__POSITION@@@Z 004b1619 f   nafxcwd:afxinl1.obj
 0001:000b0672       ?GetPrev@CObList@@QBEPAVCObject@@AAPAU__POSITION@@@Z 004b1672 f   nafxcwd:afxinl1.obj
 0001:000b06cb       ?GetAt@CObList@@QAEAAPAVCObject@@PAU__POSITION@@@Z 004b16cb f   nafxcwd:afxinl1.obj
 0001:000b0717       ?GetAt@CObList@@QBEPAVCObject@@PAU__POSITION@@@Z 004b1717 f   nafxcwd:afxinl1.obj
 0001:000b0763       ?SetAt@CObList@@QAEXPAU__POSITION@@PAVCObject@@@Z 004b1763 f   nafxcwd:afxinl1.obj
 0001:000b07b2       ?GetCount@CStringList@@QBEHXZ 004b17b2 f   nafxcwd:afxinl1.obj
 0001:000b07c3       ?IsEmpty@CStringList@@QBEHXZ 004b17c3 f   nafxcwd:afxinl1.obj
 0001:000b07dc       ?GetHead@CStringList@@QAEAAVCString@@XZ 004b17dc f   nafxcwd:afxinl1.obj
 0001:000b0819       ?GetHead@CStringList@@QBE?AVCString@@XZ 004b1819 f   nafxcwd:afxinl1.obj
 0001:000b0876       ?GetTail@CStringList@@QAEAAVCString@@XZ 004b1876 f   nafxcwd:afxinl1.obj
 0001:000b08b3       ?GetTail@CStringList@@QBE?AVCString@@XZ 004b18b3 f   nafxcwd:afxinl1.obj
 0001:000b0910       ?GetHeadPosition@CStringList@@QBEPAU__POSITION@@XZ 004b1910 f   nafxcwd:afxinl1.obj
 0001:000b0921       ?GetTailPosition@CStringList@@QBEPAU__POSITION@@XZ 004b1921 f   nafxcwd:afxinl1.obj
 0001:000b0932       ?GetNext@CStringList@@QAEAAVCString@@AAPAU__POSITION@@@Z 004b1932 f   nafxcwd:afxinl1.obj
 0001:000b098a       ?GetNext@CStringList@@QBE?AVCString@@AAPAU__POSITION@@@Z 004b198a f   nafxcwd:afxinl1.obj
 0001:000b09fe       ?GetPrev@CStringList@@QAEAAVCString@@AAPAU__POSITION@@@Z 004b19fe f   nafxcwd:afxinl1.obj
 0001:000b0a57       ?GetPrev@CStringList@@QBE?AVCString@@AAPAU__POSITION@@@Z 004b1a57 f   nafxcwd:afxinl1.obj
 0001:000b0acc       ?GetAt@CStringList@@QAEAAVCString@@PAU__POSITION@@@Z 004b1acc f   nafxcwd:afxinl1.obj
 0001:000b0b18       ?GetAt@CStringList@@QBE?AVCString@@PAU__POSITION@@@Z 004b1b18 f   nafxcwd:afxinl1.obj
 0001:000b0b80       ?SetAt@CStringList@@QAEXPAU__POSITION@@PBD@Z 004b1b80 f   nafxcwd:afxinl1.obj
 0001:000b0bd5       ?SetAt@CStringList@@QAEXPAU__POSITION@@ABVCString@@@Z 004b1bd5 f   nafxcwd:afxinl1.obj
 0001:000b0c2a       ?GetCount@CMapWordToPtr@@QBEHXZ 004b1c2a f   nafxcwd:afxinl1.obj
 0001:000b0c3b       ?IsEmpty@CMapWordToPtr@@QBEHXZ 004b1c3b f   nafxcwd:afxinl1.obj
 0001:000b0c54       ?SetAt@CMapWordToPtr@@QAEXGPAX@Z 004b1c54 f   nafxcwd:afxinl1.obj
 0001:000b0c73       ?GetStartPosition@CMapWordToPtr@@QBEPAU__POSITION@@XZ 004b1c73 f   nafxcwd:afxinl1.obj
 0001:000b0c88       ?GetHashTableSize@CMapWordToPtr@@QBEIXZ 004b1c88 f   nafxcwd:afxinl1.obj
 0001:000b0c99       ?GetCount@CMapPtrToWord@@QBEHXZ 004b1c99 f   nafxcwd:afxinl1.obj
 0001:000b0caa       ?IsEmpty@CMapPtrToWord@@QBEHXZ 004b1caa f   nafxcwd:afxinl1.obj
 0001:000b0cc3       ?SetAt@CMapPtrToWord@@QAEXPAXG@Z 004b1cc3 f   nafxcwd:afxinl1.obj
 0001:000b0ce3       ?GetStartPosition@CMapPtrToWord@@QBEPAU__POSITION@@XZ 004b1ce3 f   nafxcwd:afxinl1.obj
 0001:000b0cf8       ?GetHashTableSize@CMapPtrToWord@@QBEIXZ 004b1cf8 f   nafxcwd:afxinl1.obj
 0001:000b0d09       ?GetCount@CMapPtrToPtr@@QBEHXZ 004b1d09 f   nafxcwd:afxinl1.obj
 0001:000b0d1a       ?IsEmpty@CMapPtrToPtr@@QBEHXZ 004b1d1a f   nafxcwd:afxinl1.obj
 0001:000b0d33       ?SetAt@CMapPtrToPtr@@QAEXPAX0@Z 004b1d33 f   nafxcwd:afxinl1.obj
 0001:000b0d51       ?GetStartPosition@CMapPtrToPtr@@QBEPAU__POSITION@@XZ 004b1d51 f   nafxcwd:afxinl1.obj
 0001:000b0d66       ?GetHashTableSize@CMapPtrToPtr@@QBEIXZ 004b1d66 f   nafxcwd:afxinl1.obj
 0001:000b0d77       ?GetCount@CMapWordToOb@@QBEHXZ 004b1d77 f   nafxcwd:afxinl1.obj
 0001:000b0d88       ?IsEmpty@CMapWordToOb@@QBEHXZ 004b1d88 f   nafxcwd:afxinl1.obj
 0001:000b0da1       ?SetAt@CMapWordToOb@@QAEXGPAVCObject@@@Z 004b1da1 f   nafxcwd:afxinl1.obj
 0001:000b0dc0       ?GetStartPosition@CMapWordToOb@@QBEPAU__POSITION@@XZ 004b1dc0 f   nafxcwd:afxinl1.obj
 0001:000b0dd5       ?GetHashTableSize@CMapWordToOb@@QBEIXZ 004b1dd5 f   nafxcwd:afxinl1.obj
 0001:000b0de6       ?GetCount@CMapStringToPtr@@QBEHXZ 004b1de6 f   nafxcwd:afxinl1.obj
 0001:000b0df7       ?IsEmpty@CMapStringToPtr@@QBEHXZ 004b1df7 f   nafxcwd:afxinl1.obj
 0001:000b0e10       ?SetAt@CMapStringToPtr@@QAEXPBDPAX@Z 004b1e10 f   nafxcwd:afxinl1.obj
 0001:000b0e2e       ?GetStartPosition@CMapStringToPtr@@QBEPAU__POSITION@@XZ 004b1e2e f   nafxcwd:afxinl1.obj
 0001:000b0e43       ?GetHashTableSize@CMapStringToPtr@@QBEIXZ 004b1e43 f   nafxcwd:afxinl1.obj
 0001:000b0e54       ?GetCount@CMapStringToOb@@QBEHXZ 004b1e54 f   nafxcwd:afxinl1.obj
 0001:000b0e65       ?IsEmpty@CMapStringToOb@@QBEHXZ 004b1e65 f   nafxcwd:afxinl1.obj
 0001:000b0e7e       ?SetAt@CMapStringToOb@@QAEXPBDPAVCObject@@@Z 004b1e7e f   nafxcwd:afxinl1.obj
 0001:000b0e9c       ?GetStartPosition@CMapStringToOb@@QBEPAU__POSITION@@XZ 004b1e9c f   nafxcwd:afxinl1.obj
 0001:000b0eb1       ?GetHashTableSize@CMapStringToOb@@QBEIXZ 004b1eb1 f   nafxcwd:afxinl1.obj
 0001:000b0ec2       ?GetCount@CMapStringToString@@QBEHXZ 004b1ec2 f   nafxcwd:afxinl1.obj
 0001:000b0ed3       ?IsEmpty@CMapStringToString@@QBEHXZ 004b1ed3 f   nafxcwd:afxinl1.obj
 0001:000b0eec       ?SetAt@CMapStringToString@@QAEXPBD0@Z 004b1eec f   nafxcwd:afxinl1.obj
 0001:000b0f10       ?GetStartPosition@CMapStringToString@@QBEPAU__POSITION@@XZ 004b1f10 f   nafxcwd:afxinl1.obj
 0001:000b0f25       ?GetHashTableSize@CMapStringToString@@QBEIXZ 004b1f25 f   nafxcwd:afxinl1.obj
 0001:000b0f36       ??0CCommonDialog@@QAE@PAVCWnd@@@Z 004b1f36 f   nafxcwd:afxinl1.obj
 0001:000b0f5d       ?GetReadOnlyPref@CFileDialog@@QBEHXZ 004b1f5d f   nafxcwd:afxinl1.obj
 0001:000b0f7a       ?SetTemplate@CFileDialog@@QAEXII@Z 004b1f7a f   nafxcwd:afxinl1.obj
 0001:000b0fa2       ?GetStartPosition@CFileDialog@@QBEPAU__POSITION@@XZ 004b1fa2 f   nafxcwd:afxinl1.obj
 0001:000b0fb3       ?GetFaceName@CFontDialog@@QBE?AVCString@@XZ 004b1fb3 f   nafxcwd:afxinl1.obj
 0001:000b0fe7       ?GetStyleName@CFontDialog@@QBE?AVCString@@XZ 004b1fe7 f   nafxcwd:afxinl1.obj
 0001:000b101b       ?GetSize@CFontDialog@@QBEHXZ 004b201b f   nafxcwd:afxinl1.obj
 0001:000b102c       ?GetWeight@CFontDialog@@QBEHXZ 004b202c f   nafxcwd:afxinl1.obj
 0001:000b1040       ?IsItalic@CFontDialog@@QBEHXZ 004b2040 f   nafxcwd:afxinl1.obj
 0001:000b105e       ?IsStrikeOut@CFontDialog@@QBEHXZ 004b205e f   nafxcwd:afxinl1.obj
 0001:000b107c       ?IsBold@CFontDialog@@QBEHXZ 004b207c f   nafxcwd:afxinl1.obj
 0001:000b1099       ?IsUnderline@CFontDialog@@QBEHXZ 004b2099 f   nafxcwd:afxinl1.obj
 0001:000b10b7       ?GetColor@CFontDialog@@QBEKXZ 004b20b7 f   nafxcwd:afxinl1.obj
 0001:000b10c8       ?GetColor@CColorDialog@@QBEKXZ 004b20c8 f   nafxcwd:afxinl1.obj
 0001:000b10d9       ?PrintSelection@CPrintDialog@@QBEHXZ 004b20d9 f   nafxcwd:afxinl1.obj
 0001:000b10f6       ?PrintRange@CPrintDialog@@QBEHXZ 004b20f6 f   nafxcwd:afxinl1.obj
 0001:000b1113       ?PrintAll@CPrintDialog@@QBEHXZ 004b2113 f   nafxcwd:afxinl1.obj
 0001:000b114b       ?PrintCollate@CPrintDialog@@QBEHXZ 004b214b f   nafxcwd:afxinl1.obj
 0001:000b1168       ?GetFromPage@CPrintDialog@@QBEHXZ 004b2168 f   nafxcwd:afxinl1.obj
 0001:000b119c       ?GetToPage@CPrintDialog@@QBEHXZ 004b219c f   nafxcwd:afxinl1.obj
 0001:000b11d0       ?GetPrinterDC@CPrintDialog@@QBEPAUHDC__@@XZ 004b21d0 f   nafxcwd:afxinl1.obj
 0001:000b1223       ?IsTerminating@CFindReplaceDialog@@QBEHXZ 004b2223 f   nafxcwd:afxinl1.obj
 0001:000b123d       ?GetReplaceString@CFindReplaceDialog@@QBE?AVCString@@XZ 004b223d f   nafxcwd:afxinl1.obj
 0001:000b126e       ?GetFindString@CFindReplaceDialog@@QBE?AVCString@@XZ 004b226e f   nafxcwd:afxinl1.obj
 0001:000b129f       ?SearchDown@CFindReplaceDialog@@QBEHXZ 004b229f f   nafxcwd:afxinl1.obj
 0001:000b12b9       ?FindNext@CFindReplaceDialog@@QBEHXZ 004b22b9 f   nafxcwd:afxinl1.obj
 0001:000b12d3       ?MatchCase@CFindReplaceDialog@@QBEHXZ 004b22d3 f   nafxcwd:afxinl1.obj
 0001:000b12ed       ?MatchWholeWord@CFindReplaceDialog@@QBEHXZ 004b22ed f   nafxcwd:afxinl1.obj
 0001:000b1307       ?ReplaceCurrent@CFindReplaceDialog@@QBEHXZ 004b2307 f   nafxcwd:afxinl1.obj
 0001:000b1321       ?ReplaceAll@CFindReplaceDialog@@QBEHXZ 004b2321 f   nafxcwd:afxinl1.obj
 0001:000b133b       ?GetPage@CPropertySheet@@QBEPAVCPropertyPage@@H@Z 004b233b f   nafxcwd:afxinl1.obj
 0001:000b1365       ?SetWizardMode@CPropertySheet@@QAEXXZ 004b2365 f   nafxcwd:afxinl1.obj
 0001:000b137f       ?SetFinishText@CPropertySheet@@QAEXPBD@Z 004b237f f   nafxcwd:afxinl1.obj
 0001:000b13d2       ?SetWizardButtons@CPropertySheet@@QAEXK@Z 004b23d2 f   nafxcwd:afxinl1.obj
 0001:000b1425       ?GetTabControl@CPropertySheet@@QBEPAVCTabCtrl@@XZ 004b2425 f   nafxcwd:afxinl1.obj
 0001:000b147a       ?PressButton@CPropertySheet@@QAEHH@Z 004b247a f   nafxcwd:afxinl1.obj
 0001:000b14cd       ?IsWizard@CPropertySheet@@QBEHXZ 004b24cd f   nafxcwd:afxinl1.obj
 0001:000b14ee       ?SetWizardMode@CPropertySheetEx@@QAEXXZ 004b24ee f   nafxcwd:afxinl1.obj
 0001:000b150e       ?GetPaperSize@CPageSetupDialog@@QBE?AVCSize@@XZ 004b250e f   nafxcwd:afxinl1.obj
 0001:000b1543       ??0CCreateContext@@QAE@XZ  004b2543 f   nafxcwd:afxinl1.obj
 0001:000b1561       ?Create@CMetaFileDC@@QAEHPBD@Z 004b2561 f   nafxcwd:afxinl1.obj
 0001:000b1581       ?Close@CMetaFileDC@@QAEPAUHMETAFILE__@@XZ 004b2581 f   nafxcwd:afxinl1.obj
 0001:000b159b       ?CreateEnhanced@CMetaFileDC@@QAEHPAVCDC@@PBDPBUtagRECT@@1@Z 004b259b f   nafxcwd:afxinl1.obj
 0001:000b15cc       ?CloseEnhanced@CMetaFileDC@@QAEPAUHENHMETAFILE__@@XZ 004b25cc f   nafxcwd:afxinl1.obj
 0001:000b15e6       ?SetViewportOrg@CMetaFileDC@@QAE?AVCPoint@@UtagPOINT@@@Z 004b25e6 f   nafxcwd:afxinl1.obj
 0001:000b1642       ?SetViewportExt@CMetaFileDC@@QAE?AVCSize@@UtagSIZE@@@Z 004b2642 f   nafxcwd:afxinl1.obj
 0001:000b169e       ?TextOutA@CMetaFileDC@@QAEHHHABVCString@@@Z 004b269e f   nafxcwd:afxinl1.obj
 0001:000b16f6       ?ExtTextOutA@CMetaFileDC@@QAEHHHIPBUtagRECT@@ABVCString@@PAH@Z 004b26f6 f   nafxcwd:afxinl1.obj
 0001:000b175c       ?TabbedTextOutA@CMetaFileDC@@QAE?AVCSize@@HHABVCString@@HPAHH@Z 004b275c f   nafxcwd:afxinl1.obj
 0001:000b17ce       ?DrawTextA@CMetaFileDC@@QAEHABVCString@@PAUtagRECT@@I@Z 004b27ce f   nafxcwd:afxinl1.obj
 0001:000b1826       ?PtVisible@CMetaFileDC@@QBEHUtagPOINT@@@Z 004b2826 f   nafxcwd:afxinl1.obj
 0001:000b186c       ?GetRowCount@CSplitterWnd@@QBEHXZ 004b286c f   nafxcwd:afxinl1.obj
 0001:000b187d       ?GetColumnCount@CSplitterWnd@@QBEHXZ 004b287d f   nafxcwd:afxinl1.obj
 0001:000b188e       ?IsChildPane@CSplitterWnd@@QAEHPAVCWnd@@AAH1@Z 004b288e f   nafxcwd:afxinl1.obj
 0001:000b18af       ?GetActivePane@CSplitterWnd@@IAEPAVCWnd@@AAH0@Z 004b28af f   nafxcwd:afxinl1.obj
 0001:000b18d2       ?IsTracking@CSplitterWnd@@QAEHXZ 004b28d2 f   nafxcwd:afxinl1.obj
 0001:000b18e6       ?GetCount@CControlBar@@QBEHXZ 004b28e6 f   nafxcwd:afxinl1.obj
 0001:000b18f7       ?GetBarStyle@CControlBar@@QAEKXZ 004b28f7 f   nafxcwd:afxinl1.obj
 0001:000b1908       ?SetBorders@CControlBar@@QAEXPBUtagRECT@@@Z 004b2908 f   nafxcwd:afxinl1.obj
 0001:000b1938       ?GetBorders@CControlBar@@QBE?AVCRect@@XZ 004b2938 f   nafxcwd:afxinl1.obj
 0001:000b1987       ?LoadToolBar@CToolBar@@QAEHI@Z 004b2987 f   nafxcwd:afxinl1.obj
 0001:000b19a5       ?LoadBitmapA@CToolBar@@QAEHI@Z 004b29a5 f   nafxcwd:afxinl1.obj
 0001:000b19c3       ?GetToolBarCtrl@CToolBar@@QBEAAVCToolBarCtrl@@XZ 004b29c3 f   nafxcwd:afxinl1.obj
 0001:000b19d1       ?Create@CDialogBar@@QAEHPAVCWnd@@III@Z 004b29d1 f   nafxcwd:afxinl1.obj
 0001:000b19fc       ?GetStatusBarCtrl@CStatusBar@@QBEAAVCStatusBarCtrl@@XZ 004b29fc f   nafxcwd:afxinl1.obj
 0001:000b1a0a       ?SetBorders@CStatusBar@@QAEXPBUtagRECT@@@Z 004b2a0a f   nafxcwd:afxinl1.obj
 0001:000b1a3a       ?SetBorders@CStatusBar@@QAEXHHHH@Z 004b2a3a f   nafxcwd:afxinl1.obj
 0001:000b1a82       ?EnableDocking@CStatusBar@@QAEXK@Z 004b2a82 f   nafxcwd:afxinl1.obj
 0001:000b1ab5       ?GetReBarCtrl@CReBar@@QBEAAVCReBarCtrl@@XZ 004b2ab5 f   nafxcwd:afxinl1.obj
 0001:000b1ac3       ?EnableDocking@CReBar@@QAEXK@Z 004b2ac3 f   nafxcwd:afxinl1.obj
 0001:000b1af6       ??0CRectTracker@@QAE@XZ    004b2af6 f   nafxcwd:afxinl1.obj
 0001:000b1b41       ??0CBitmapButton@@QAE@XZ   004b2b41 f   nafxcwd:afxinl1.obj
 0001:000b1bc5       ?LoadBitmaps@CBitmapButton@@QAEHIIII@Z 004b2bc5 f   nafxcwd:afxinl1.obj
 0001:000b1c00       ?SetMinPage@CPrintInfo@@QAEXI@Z 004b2c00 f   nafxcwd:afxinl1.obj
 0001:000b1c1d       ?SetMaxPage@CPrintInfo@@QAEXI@Z 004b2c1d f   nafxcwd:afxinl1.obj
 0001:000b1c3a       ?GetMinPage@CPrintInfo@@QBEIXZ 004b2c3a f   nafxcwd:afxinl1.obj
 0001:000b1c53       ?GetMaxPage@CPrintInfo@@QBEIXZ 004b2c53 f   nafxcwd:afxinl1.obj
 0001:000b1c6c       ?GetFromPage@CPrintInfo@@QBEIXZ 004b2c6c f   nafxcwd:afxinl1.obj
 0001:000b1c85       ?GetToPage@CPrintInfo@@QBEIXZ 004b2c85 f   nafxcwd:afxinl1.obj
 0001:000b1c9e       ?GetEditCtrl@CEditView@@QBEAAVCEdit@@XZ 004b2c9e f   nafxcwd:afxinl1.obj
 0001:000b1cb0       ??_GCObject@@UAEPAXI@Z     004b2cb0 f i nafxcwd:afxinl1.obj
 0001:000b1cb0       ??_ECObject@@UAEPAXI@Z     004b2cb0 f i nafxcwd:afxinl1.obj
 0001:000b1ce0       ??_GCException@@UAEPAXI@Z  004b2ce0 f i nafxcwd:afxinl1.obj
 0001:000b1ce0       ??_ECException@@UAEPAXI@Z  004b2ce0 f i nafxcwd:afxinl1.obj
 0001:000b1d10       ??_ECSimpleException@@UAEPAXI@Z 004b2d10 f i nafxcwd:afxinl1.obj
 0001:000b1d10       ??_GCSimpleException@@UAEPAXI@Z 004b2d10 f i nafxcwd:afxinl1.obj
 0001:000b1d40       ??_GCMemoryException@@UAEPAXI@Z 004b2d40 f i nafxcwd:afxinl1.obj
 0001:000b1d40       ??_ECMemoryException@@UAEPAXI@Z 004b2d40 f i nafxcwd:afxinl1.obj
 0001:000b1d70       ??_ECNotSupportedException@@UAEPAXI@Z 004b2d70 f i nafxcwd:afxinl1.obj
 0001:000b1d70       ??_GCNotSupportedException@@UAEPAXI@Z 004b2d70 f i nafxcwd:afxinl1.obj
 0001:000b1da0       ??_GCArchiveException@@UAEPAXI@Z 004b2da0 f i nafxcwd:afxinl1.obj
 0001:000b1da0       ??_ECArchiveException@@UAEPAXI@Z 004b2da0 f i nafxcwd:afxinl1.obj
 0001:000b1dd0       ??_GCFileException@@UAEPAXI@Z 004b2dd0 f i nafxcwd:afxinl1.obj
 0001:000b1dd0       ??_ECFileException@@UAEPAXI@Z 004b2dd0 f i nafxcwd:afxinl1.obj
 0001:000b1e00       ??_ECCommonDialog@@UAEPAXI@Z 004b2e00 f i nafxcwd:afxinl1.obj
 0001:000b1e00       ??_GCCommonDialog@@UAEPAXI@Z 004b2e00 f i nafxcwd:afxinl1.obj
 0001:000b1e30       ??1CCommonDialog@@UAE@XZ   004b2e30 f i nafxcwd:afxinl1.obj
 0001:000b1e50       ??_ECRectTracker@@UAEPAXI@Z 004b2e50 f i nafxcwd:afxinl1.obj
 0001:000b1e50       ??_GCRectTracker@@UAEPAXI@Z 004b2e50 f i nafxcwd:afxinl1.obj
 0001:000b1e80       ??_GCBitmapButton@@UAEPAXI@Z 004b2e80 f i nafxcwd:afxinl1.obj
 0001:000b1e80       ??_ECBitmapButton@@UAEPAXI@Z 004b2e80 f i nafxcwd:afxinl1.obj
 0001:000b1eb0       ??1CBitmapButton@@UAE@XZ   004b2eb0 f i nafxcwd:afxinl1.obj
 0001:000b1f30       ?AfxAssertFailedLine@@YGHPBDH@Z 004b2f30 f   nafxcwd:afxasert.obj
 0001:000b1f80       ?_AfxTraceMsg@@YGXPBDPBUtagMSG@@@Z 004b2f80 f   nafxcwd:afxtrace.obj
 0001:000b2400       ?OutputString@CDumpContext@@IAEXPBD@Z 004b3400 f   nafxcwd:dumpcont.obj
 0001:000b246e       ??0CDumpContext@@QAE@PAVCFile@@@Z 004b346e f   nafxcwd:dumpcont.obj
 0001:000b24a6       ?Flush@CDumpContext@@QAEXXZ 004b34a6 f   nafxcwd:dumpcont.obj
 0001:000b24cb       ??6CDumpContext@@QAEAAV0@PBD@Z 004b34cb f   nafxcwd:dumpcont.obj
 0001:000b2609       ??6CDumpContext@@QAEAAV0@E@Z 004b3609 f   nafxcwd:dumpcont.obj
 0001:000b2642       ??6CDumpContext@@QAEAAV0@G@Z 004b3642 f   nafxcwd:dumpcont.obj
 0001:000b267b       ??6CDumpContext@@QAEAAV0@I@Z 004b367b f   nafxcwd:dumpcont.obj
 0001:000b26af       ??6CDumpContext@@QAEAAV0@J@Z 004b36af f   nafxcwd:dumpcont.obj
 0001:000b26e3       ??6CDumpContext@@QAEAAV0@K@Z 004b36e3 f   nafxcwd:dumpcont.obj
 0001:000b2717       ??6CDumpContext@@QAEAAV0@H@Z 004b3717 f   nafxcwd:dumpcont.obj
 0001:000b274b       ??6CDumpContext@@QAEAAV0@PBVCObject@@@Z 004b374b f   nafxcwd:dumpcont.obj
 0001:000b278b       ??6CDumpContext@@QAEAAV0@ABVCObject@@@Z 004b378b f   nafxcwd:dumpcont.obj
 0001:000b27a4       ??6CDumpContext@@QAEAAV0@PBX@Z 004b37a4 f   nafxcwd:dumpcont.obj
 0001:000b27d8       ?HexDump@CDumpContext@@QAEXPBDPAEHH@Z 004b37d8 f   nafxcwd:dumpcont.obj
 0001:000b2945       ??6CDumpContext@@QAEAAV0@PBG@Z 004b3945 f   nafxcwd:dumpcont.obj
 0001:000b4c70       ?AfxGetApp@@YGPAVCWinApp@@XZ 004b5c70 f   nafxcwd:afxinl2.obj
 0001:000b4c7d       ?AfxGetInstanceHandle@@YGPAUHINSTANCE__@@XZ 004b5c7d f   nafxcwd:afxinl2.obj
 0001:000b4cb2       ?AfxGetResourceHandle@@YGPAUHINSTANCE__@@XZ 004b5cb2 f   nafxcwd:afxinl2.obj
 0001:000b4ce7       ?AfxSetResourceHandle@@YGXPAUHINSTANCE__@@@Z 004b5ce7 f   nafxcwd:afxinl2.obj
 0001:000b4d1c       ?AfxGetAppName@@YGPBDXZ    004b5d1c f   nafxcwd:afxinl2.obj
 0001:000b4d51       ?AfxOleGetMessageFilter@@YGPAVCOleMessageFilter@@XZ 004b5d51 f   nafxcwd:afxinl2.obj
 0001:000b4d70       ?AfxGetMainWnd@@YGPAVCWnd@@XZ 004b5d70 f   nafxcwd:afxinl2.obj
 0001:000b4da2       ??0CSize@@QAE@XZ           004b5da2 f   nafxcwd:afxinl2.obj
 0001:000b4db0       ??0CSize@@QAE@HH@Z         004b5db0 f   nafxcwd:afxinl2.obj
 0001:000b4dd1       ??0CSize@@QAE@UtagSIZE@@@Z 004b5dd1 f   nafxcwd:afxinl2.obj
 0001:000b4def       ??0CSize@@QAE@UtagPOINT@@@Z 004b5def f   nafxcwd:afxinl2.obj
 0001:000b4e0d       ??0CSize@@QAE@K@Z          004b5e0d f   nafxcwd:afxinl2.obj
 0001:000b4e3b       ??8CSize@@QBEHUtagSIZE@@@Z 004b5e3b f   nafxcwd:afxinl2.obj
 0001:000b4e72       ??9CSize@@QBEHUtagSIZE@@@Z 004b5e72 f   nafxcwd:afxinl2.obj
 0001:000b4ea9       ??YCSize@@QAEXUtagSIZE@@@Z 004b5ea9 f   nafxcwd:afxinl2.obj
 0001:000b4ed2       ??ZCSize@@QAEXUtagSIZE@@@Z 004b5ed2 f   nafxcwd:afxinl2.obj
 0001:000b4efb       ??HCSize@@QBE?AV0@UtagSIZE@@@Z 004b5efb f   nafxcwd:afxinl2.obj
 0001:000b4f35       ??GCSize@@QBE?AV0@UtagSIZE@@@Z 004b5f35 f   nafxcwd:afxinl2.obj
 0001:000b4f6f       ??GCSize@@QBE?AV0@XZ       004b5f6f f   nafxcwd:afxinl2.obj
 0001:000b4fa7       ??HCSize@@QBE?AVCPoint@@UtagPOINT@@@Z 004b5fa7 f   nafxcwd:afxinl2.obj
 0001:000b4fe1       ??GCSize@@QBE?AVCPoint@@UtagPOINT@@@Z 004b5fe1 f   nafxcwd:afxinl2.obj
 0001:000b501b       ??HCSize@@QBE?AVCRect@@PBUtagRECT@@@Z 004b601b f   nafxcwd:afxinl2.obj
 0001:000b5073       ??GCSize@@QBE?AVCRect@@PBUtagRECT@@@Z 004b6073 f   nafxcwd:afxinl2.obj
 0001:000b50cb       ??0CPoint@@QAE@XZ          004b60cb f   nafxcwd:afxinl2.obj
 0001:000b50d9       ??0CPoint@@QAE@HH@Z        004b60d9 f   nafxcwd:afxinl2.obj
 0001:000b50fa       ??0CPoint@@QAE@UtagPOINT@@@Z 004b60fa f   nafxcwd:afxinl2.obj
 0001:000b5118       ??0CPoint@@QAE@UtagSIZE@@@Z 004b6118 f   nafxcwd:afxinl2.obj
 0001:000b5136       ??0CPoint@@QAE@K@Z         004b6136 f   nafxcwd:afxinl2.obj
 0001:000b5164       ?Offset@CPoint@@QAEXHH@Z   004b6164 f   nafxcwd:afxinl2.obj
 0001:000b518d       ?Offset@CPoint@@QAEXUtagPOINT@@@Z 004b618d f   nafxcwd:afxinl2.obj
 0001:000b51b6       ?Offset@CPoint@@QAEXUtagSIZE@@@Z 004b61b6 f   nafxcwd:afxinl2.obj
 0001:000b51df       ??8CPoint@@QBEHUtagPOINT@@@Z 004b61df f   nafxcwd:afxinl2.obj
 0001:000b5216       ??9CPoint@@QBEHUtagPOINT@@@Z 004b6216 f   nafxcwd:afxinl2.obj
 0001:000b524d       ??YCPoint@@QAEXUtagSIZE@@@Z 004b624d f   nafxcwd:afxinl2.obj
 0001:000b5276       ??ZCPoint@@QAEXUtagSIZE@@@Z 004b6276 f   nafxcwd:afxinl2.obj
 0001:000b529f       ??YCPoint@@QAEXUtagPOINT@@@Z 004b629f f   nafxcwd:afxinl2.obj
 0001:000b52c8       ??ZCPoint@@QAEXUtagPOINT@@@Z 004b62c8 f   nafxcwd:afxinl2.obj
 0001:000b52f1       ??HCPoint@@QBE?AV0@UtagSIZE@@@Z 004b62f1 f   nafxcwd:afxinl2.obj
 0001:000b532b       ??GCPoint@@QBE?AV0@UtagSIZE@@@Z 004b632b f   nafxcwd:afxinl2.obj
 0001:000b5365       ??GCPoint@@QBE?AV0@XZ      004b6365 f   nafxcwd:afxinl2.obj
 0001:000b539d       ??HCPoint@@QBE?AV0@UtagPOINT@@@Z 004b639d f   nafxcwd:afxinl2.obj
 0001:000b53d7       ??GCPoint@@QBE?AVCSize@@UtagPOINT@@@Z 004b63d7 f   nafxcwd:afxinl2.obj
 0001:000b5411       ??HCPoint@@QBE?AVCRect@@PBUtagRECT@@@Z 004b6411 f   nafxcwd:afxinl2.obj
 0001:000b5469       ??GCPoint@@QBE?AVCRect@@PBUtagRECT@@@Z 004b6469 f   nafxcwd:afxinl2.obj
 0001:000b54c1       ??0CRect@@QAE@XZ           004b64c1 f   nafxcwd:afxinl2.obj
 0001:000b54cf       ??0CRect@@QAE@HHHH@Z       004b64cf f   nafxcwd:afxinl2.obj
 0001:000b5502       ??0CRect@@QAE@ABUtagRECT@@@Z 004b6502 f   nafxcwd:afxinl2.obj
 0001:000b5520       ??0CRect@@QAE@PBUtagRECT@@@Z 004b6520 f   nafxcwd:afxinl2.obj
 0001:000b553e       ??0CRect@@QAE@UtagPOINT@@UtagSIZE@@@Z 004b653e f   nafxcwd:afxinl2.obj
 0001:000b5577       ??0CRect@@QAE@UtagPOINT@@0@Z 004b6577 f   nafxcwd:afxinl2.obj
 0001:000b55aa       ?Width@CRect@@QBEHXZ       004b65aa f   nafxcwd:afxinl2.obj
 0001:000b55c0       ?Height@CRect@@QBEHXZ      004b65c0 f   nafxcwd:afxinl2.obj
 0001:000b55d7       ?Size@CRect@@QBE?AVCSize@@XZ 004b65d7 f   nafxcwd:afxinl2.obj
 0001:000b5617       ?TopLeft@CRect@@QAEAAVCPoint@@XZ 004b6617 f   nafxcwd:afxinl2.obj
 0001:000b5625       ?BottomRight@CRect@@QAEAAVCPoint@@XZ 004b6625 f   nafxcwd:afxinl2.obj
 0001:000b5636       ?TopLeft@CRect@@QBEABVCPoint@@XZ 004b6636 f   nafxcwd:afxinl2.obj
 0001:000b5644       ?BottomRight@CRect@@QBEABVCPoint@@XZ 004b6644 f   nafxcwd:afxinl2.obj
 0001:000b5655       ?CenterPoint@CRect@@QBE?AVCPoint@@XZ 004b6655 f   nafxcwd:afxinl2.obj
 0001:000b569f       ?SwapLeftRight@CRect@@QAEXXZ 004b669f f   nafxcwd:afxinl2.obj
 0001:000b56b6       ?SwapLeftRight@CRect@@SAXPAUtagRECT@@@Z 004b66b6 f   nafxcwd:afxinl2.obj
 0001:000b56da       ??BCRect@@QAEPAUtagRECT@@XZ 004b66da f   nafxcwd:afxinl2.obj
 0001:000b56e8       ??BCRect@@QBEPBUtagRECT@@XZ 004b66e8 f   nafxcwd:afxinl2.obj
 0001:000b56f6       ?IsRectEmpty@CRect@@QBEHXZ 004b66f6 f   nafxcwd:afxinl2.obj
 0001:000b570b       ?IsRectNull@CRect@@QBEHXZ  004b670b f   nafxcwd:afxinl2.obj
 0001:000b574e       ?PtInRect@CRect@@QBEHUtagPOINT@@@Z 004b674e f   nafxcwd:afxinl2.obj
 0001:000b576d       ?SetRect@CRect@@QAEXHHHH@Z 004b676d f   nafxcwd:afxinl2.obj
 0001:000b5794       ?SetRect@CRect@@QAEXUtagPOINT@@0@Z 004b6794 f   nafxcwd:afxinl2.obj
 0001:000b57bb       ?SetRectEmpty@CRect@@QAEXXZ 004b67bb f   nafxcwd:afxinl2.obj
 0001:000b57d0       ?CopyRect@CRect@@QAEXPBUtagRECT@@@Z 004b67d0 f   nafxcwd:afxinl2.obj
 0001:000b57eb       ?EqualRect@CRect@@QBEHPBUtagRECT@@@Z 004b67eb f   nafxcwd:afxinl2.obj
 0001:000b5806       ?InflateRect@CRect@@QAEXHH@Z 004b6806 f   nafxcwd:afxinl2.obj
 0001:000b5825       ?InflateRect@CRect@@QAEXUtagSIZE@@@Z 004b6825 f   nafxcwd:afxinl2.obj
 0001:000b5844       ?DeflateRect@CRect@@QAEXHH@Z 004b6844 f   nafxcwd:afxinl2.obj
 0001:000b5867       ?DeflateRect@CRect@@QAEXUtagSIZE@@@Z 004b6867 f   nafxcwd:afxinl2.obj
 0001:000b588a       ?OffsetRect@CRect@@QAEXHH@Z 004b688a f   nafxcwd:afxinl2.obj
 0001:000b58a9       ?OffsetRect@CRect@@QAEXUtagPOINT@@@Z 004b68a9 f   nafxcwd:afxinl2.obj
 0001:000b58c8       ?OffsetRect@CRect@@QAEXUtagSIZE@@@Z 004b68c8 f   nafxcwd:afxinl2.obj
 0001:000b58e7       ?IntersectRect@CRect@@QAEHPBUtagRECT@@0@Z 004b68e7 f   nafxcwd:afxinl2.obj
 0001:000b5906       ?UnionRect@CRect@@QAEHPBUtagRECT@@0@Z 004b6906 f   nafxcwd:afxinl2.obj
 0001:000b5925       ??4CRect@@QAEXABUtagRECT@@@Z 004b6925 f   nafxcwd:afxinl2.obj
 0001:000b5940       ??8CRect@@QBEHABUtagRECT@@@Z 004b6940 f   nafxcwd:afxinl2.obj
 0001:000b595b       ??9CRect@@QBEHABUtagRECT@@@Z 004b695b f   nafxcwd:afxinl2.obj
 0001:000b597b       ??YCRect@@QAEXUtagPOINT@@@Z 004b697b f   nafxcwd:afxinl2.obj
 0001:000b599a       ??YCRect@@QAEXUtagSIZE@@@Z 004b699a f   nafxcwd:afxinl2.obj
 0001:000b59b9       ??YCRect@@QAEXPBUtagRECT@@@Z 004b69b9 f   nafxcwd:afxinl2.obj
 0001:000b59d2       ??ZCRect@@QAEXUtagPOINT@@@Z 004b69d2 f   nafxcwd:afxinl2.obj
 0001:000b59f5       ??ZCRect@@QAEXUtagSIZE@@@Z 004b69f5 f   nafxcwd:afxinl2.obj
 0001:000b5a18       ??ZCRect@@QAEXPBUtagRECT@@@Z 004b6a18 f   nafxcwd:afxinl2.obj
 0001:000b5a31       ??_4CRect@@QAEXABUtagRECT@@@Z 004b6a31 f   nafxcwd:afxinl2.obj
 0001:000b5a50       ??_5CRect@@QAEXABUtagRECT@@@Z 004b6a50 f   nafxcwd:afxinl2.obj
 0001:000b5a6f       ??HCRect@@QBE?AV0@UtagPOINT@@@Z 004b6a6f f   nafxcwd:afxinl2.obj
 0001:000b5ac7       ??GCRect@@QBE?AV0@UtagPOINT@@@Z 004b6ac7 f   nafxcwd:afxinl2.obj
 0001:000b5b23       ??HCRect@@QBE?AV0@UtagSIZE@@@Z 004b6b23 f   nafxcwd:afxinl2.obj
 0001:000b5b7b       ??GCRect@@QBE?AV0@UtagSIZE@@@Z 004b6b7b f   nafxcwd:afxinl2.obj
 0001:000b5bd7       ??HCRect@@QBE?AV0@PBUtagRECT@@@Z 004b6bd7 f   nafxcwd:afxinl2.obj
 0001:000b5c1b       ??GCRect@@QBE?AV0@PBUtagRECT@@@Z 004b6c1b f   nafxcwd:afxinl2.obj
 0001:000b5c5f       ??ICRect@@QBE?AV0@ABUtagRECT@@@Z 004b6c5f f   nafxcwd:afxinl2.obj
 0001:000b5ca5       ??UCRect@@QBE?AV0@ABUtagRECT@@@Z 004b6ca5 f   nafxcwd:afxinl2.obj
 0001:000b5ceb       ?SubtractRect@CRect@@QAEHPBUtagRECT@@0@Z 004b6ceb f   nafxcwd:afxinl2.obj
 0001:000b5d0a       ??6@YGAAVCArchive@@AAV0@UtagSIZE@@@Z 004b6d0a f   nafxcwd:afxinl2.obj
 0001:000b5d22       ??6@YGAAVCArchive@@AAV0@UtagPOINT@@@Z 004b6d22 f   nafxcwd:afxinl2.obj
 0001:000b5d3a       ??6@YGAAVCArchive@@AAV0@ABUtagRECT@@@Z 004b6d3a f   nafxcwd:afxinl2.obj
 0001:000b5d52       ??5@YGAAVCArchive@@AAV0@AAUtagSIZE@@@Z 004b6d52 f   nafxcwd:afxinl2.obj
 0001:000b5d6a       ??5@YGAAVCArchive@@AAV0@AAUtagPOINT@@@Z 004b6d6a f   nafxcwd:afxinl2.obj
 0001:000b5d82       ??5@YGAAVCArchive@@AAV0@AAUtagRECT@@@Z 004b6d82 f   nafxcwd:afxinl2.obj
 0001:000b5d9a       ??0CResourceException@@QAE@XZ 004b6d9a f   nafxcwd:afxinl2.obj
 0001:000b5db9       ??0CResourceException@@QAE@HI@Z 004b6db9 f   nafxcwd:afxinl2.obj
 0001:000b5dea       ??1CResourceException@@UAE@XZ 004b6dea f   nafxcwd:afxinl2.obj
 0001:000b5e06       ??0CUserException@@QAE@XZ  004b6e06 f   nafxcwd:afxinl2.obj
 0001:000b5e25       ??0CUserException@@QAE@HI@Z 004b6e25 f   nafxcwd:afxinl2.obj
 0001:000b5e56       ??1CUserException@@UAE@XZ  004b6e56 f   nafxcwd:afxinl2.obj
 0001:000b5e72       ??BCGdiObject@@QBEPAXXZ    004b6e72 f   nafxcwd:afxinl2.obj
 0001:000b5e9a       ?GetSafeHandle@CGdiObject@@QBEPAXXZ 004b6e9a f   nafxcwd:afxinl2.obj
 0001:000b5ec2       ??0CGdiObject@@QAE@XZ      004b6ec2 f   nafxcwd:afxinl2.obj
 0001:000b5eeb       ??1CGdiObject@@UAE@XZ      004b6eeb f   nafxcwd:afxinl2.obj
 0001:000b5f3c       ?GetObjectA@CGdiObject@@QBEHHPAX@Z 004b6f3c f   nafxcwd:afxinl2.obj
 0001:000b5f87       ?CreateStockObject@CGdiObject@@QAEHH@Z 004b6f87 f   nafxcwd:afxinl2.obj
 0001:000b5fb0       ?UnrealizeObject@CGdiObject@@QAEHXZ 004b6fb0 f   nafxcwd:afxinl2.obj
 0001:000b5ff1       ?GetObjectType@CGdiObject@@QBEIXZ 004b6ff1 f   nafxcwd:afxinl2.obj
 0001:000b6009       ??8CGdiObject@@QBEHABV0@@Z 004b7009 f   nafxcwd:afxinl2.obj
 0001:000b602b       ??9CGdiObject@@QBEHABV0@@Z 004b702b f   nafxcwd:afxinl2.obj
 0001:000b604d       ??BCPen@@QBEPAUHPEN__@@XZ  004b704d f   nafxcwd:afxinl2.obj
 0001:000b6075       ?FromHandle@CPen@@SGPAV1@PAUHPEN__@@@Z 004b7075 f   nafxcwd:afxinl2.obj
 0001:000b6085       ??0CPen@@QAE@XZ            004b7085 f   nafxcwd:afxinl2.obj
 0001:000b60a4       ??1CPen@@UAE@XZ            004b70a4 f   nafxcwd:afxinl2.obj
 0001:000b60c0       ?CreatePen@CPen@@QAEHHHK@Z 004b70c0 f   nafxcwd:afxinl2.obj
 0001:000b60e8       ?CreatePenIndirect@CPen@@QAEHPAUtagLOGPEN@@@Z 004b70e8 f   nafxcwd:afxinl2.obj
 0001:000b6108       ?CreatePen@CPen@@QAEHHHPBUtagLOGBRUSH@@HPBK@Z 004b7108 f   nafxcwd:afxinl2.obj
 0001:000b6138       ?GetExtLogPen@CPen@@QAEHPAUtagEXTLOGPEN@@@Z 004b7138 f   nafxcwd:afxinl2.obj
 0001:000b6181       ?GetLogPen@CPen@@QAEHPAUtagLOGPEN@@@Z 004b7181 f   nafxcwd:afxinl2.obj
 0001:000b61ca       ??BCBrush@@QBEPAUHBRUSH__@@XZ 004b71ca f   nafxcwd:afxinl2.obj
 0001:000b61f2       ?FromHandle@CBrush@@SGPAV1@PAUHBRUSH__@@@Z 004b71f2 f   nafxcwd:afxinl2.obj
 0001:000b6202       ??0CBrush@@QAE@XZ          004b7202 f   nafxcwd:afxinl2.obj
 0001:000b6221       ??1CBrush@@UAE@XZ          004b7221 f   nafxcwd:afxinl2.obj
 0001:000b623d       ?CreateSolidBrush@CBrush@@QAEHK@Z 004b723d f   nafxcwd:afxinl2.obj
 0001:000b625d       ?CreateHatchBrush@CBrush@@QAEHHK@Z 004b725d f   nafxcwd:afxinl2.obj
 0001:000b6281       ?CreateBrushIndirect@CBrush@@QAEHPBUtagLOGBRUSH@@@Z 004b7281 f   nafxcwd:afxinl2.obj
 0001:000b62a1       ?CreatePatternBrush@CBrush@@QAEHPAVCBitmap@@@Z 004b72a1 f   nafxcwd:afxinl2.obj
 0001:000b62c6       ?CreateDIBPatternBrush@CBrush@@QAEHPBXI@Z 004b72c6 f   nafxcwd:afxinl2.obj
 0001:000b62ea       ?CreateSysColorBrush@CBrush@@QAEHH@Z 004b72ea f   nafxcwd:afxinl2.obj
 0001:000b630a       ?GetLogBrush@CBrush@@QAEHPAUtagLOGBRUSH@@@Z 004b730a f   nafxcwd:afxinl2.obj
 0001:000b6353       ??BCFont@@QBEPAUHFONT__@@XZ 004b7353 f   nafxcwd:afxinl2.obj
 0001:000b637b       ?FromHandle@CFont@@SGPAV1@PAUHFONT__@@@Z 004b737b f   nafxcwd:afxinl2.obj
 0001:000b638b       ??0CFont@@QAE@XZ           004b738b f   nafxcwd:afxinl2.obj
 0001:000b63aa       ??1CFont@@UAE@XZ           004b73aa f   nafxcwd:afxinl2.obj
 0001:000b63c6       ?CreateFontIndirectA@CFont@@QAEHPBUtagLOGFONTA@@@Z 004b73c6 f   nafxcwd:afxinl2.obj
 0001:000b63e6       ?CreateFontA@CFont@@QAEHHHHHHEEEEEEEEPBD@Z 004b73e6 f   nafxcwd:afxinl2.obj
 0001:000b6468       ?GetLogFont@CFont@@QAEHPAUtagLOGFONTA@@@Z 004b7468 f   nafxcwd:afxinl2.obj
 0001:000b64b1       ??BCBitmap@@QBEPAUHBITMAP__@@XZ 004b74b1 f   nafxcwd:afxinl2.obj
 0001:000b64d9       ?FromHandle@CBitmap@@SGPAV1@PAUHBITMAP__@@@Z 004b74d9 f   nafxcwd:afxinl2.obj
 0001:000b64e9       ??0CBitmap@@QAE@XZ         004b74e9 f   nafxcwd:afxinl2.obj
 0001:000b6508       ??1CBitmap@@UAE@XZ         004b7508 f   nafxcwd:afxinl2.obj
 0001:000b6524       ?CreateBitmap@CBitmap@@QAEHHHIIPBX@Z 004b7524 f   nafxcwd:afxinl2.obj
 0001:000b6554       ?CreateBitmapIndirect@CBitmap@@QAEHPAUtagBITMAP@@@Z 004b7554 f   nafxcwd:afxinl2.obj
 0001:000b6574       ?SetBitmapBits@CBitmap@@QAEKKPBX@Z 004b7574 f   nafxcwd:afxinl2.obj
 0001:000b6596       ?GetBitmapBits@CBitmap@@QBEKKPAX@Z 004b7596 f   nafxcwd:afxinl2.obj
 0001:000b65b8       ?LoadBitmapA@CBitmap@@QAEHPBD@Z 004b75b8 f   nafxcwd:afxinl2.obj
 0001:000b65de       ?LoadMappedBitmap@CBitmap@@QAEHIIPAU_COLORMAP@@H@Z 004b75de f   nafxcwd:afxinl2.obj
 0001:000b6616       ?SetBitmapDimension@CBitmap@@QAE?AVCSize@@HH@Z 004b7616 f   nafxcwd:afxinl2.obj
 0001:000b6675       ?GetBitmapDimension@CBitmap@@QBE?AVCSize@@XZ 004b7675 f   nafxcwd:afxinl2.obj
 0001:000b66cc       ?LoadBitmapA@CBitmap@@QAEHI@Z 004b76cc f   nafxcwd:afxinl2.obj
 0001:000b66f7       ?LoadOEMBitmap@CBitmap@@QAEHI@Z 004b76f7 f   nafxcwd:afxinl2.obj
 0001:000b671e       ?CreateCompatibleBitmap@CBitmap@@QAEHPAVCDC@@HH@Z 004b771e f   nafxcwd:afxinl2.obj
 0001:000b6749       ?CreateDiscardableBitmap@CBitmap@@QAEHPAVCDC@@HH@Z 004b7749 f   nafxcwd:afxinl2.obj
 0001:000b6774       ?GetBitmap@CBitmap@@QAEHPAUtagBITMAP@@@Z 004b7774 f   nafxcwd:afxinl2.obj
 0001:000b67bd       ??BCPalette@@QBEPAUHPALETTE__@@XZ 004b77bd f   nafxcwd:afxinl2.obj
 0001:000b67e5       ?FromHandle@CPalette@@SGPAV1@PAUHPALETTE__@@@Z 004b77e5 f   nafxcwd:afxinl2.obj
 0001:000b67f5       ??0CPalette@@QAE@XZ        004b77f5 f   nafxcwd:afxinl2.obj
 0001:000b6814       ??1CPalette@@UAE@XZ        004b7814 f   nafxcwd:afxinl2.obj
 0001:000b6830       ?CreatePalette@CPalette@@QAEHPAUtagLOGPALETTE@@@Z 004b7830 f   nafxcwd:afxinl2.obj
 0001:000b6850       ?CreateHalftonePalette@CPalette@@QAEHPAVCDC@@@Z 004b7850 f   nafxcwd:afxinl2.obj
 0001:000b68a2       ?GetPaletteEntries@CPalette@@QBEIIIPAUtagPALETTEENTRY@@@Z 004b78a2 f   nafxcwd:afxinl2.obj
 0001:000b68f1       ?SetPaletteEntries@CPalette@@QAEIIIPAUtagPALETTEENTRY@@@Z 004b78f1 f   nafxcwd:afxinl2.obj
 0001:000b6940       ?AnimatePalette@CPalette@@QAEXIIPAUtagPALETTEENTRY@@@Z 004b7940 f   nafxcwd:afxinl2.obj
 0001:000b698f       ?GetNearestPaletteIndex@CPalette@@QBEIK@Z 004b798f f   nafxcwd:afxinl2.obj
 0001:000b69d6       ?ResizePalette@CPalette@@QAEHI@Z 004b79d6 f   nafxcwd:afxinl2.obj
 0001:000b6a1d       ?GetEntryCount@CPalette@@QAEHXZ 004b7a1d f   nafxcwd:afxinl2.obj
 0001:000b6a6e       ??BCRgn@@QBEPAUHRGN__@@XZ  004b7a6e f   nafxcwd:afxinl2.obj
 0001:000b6a96       ?FromHandle@CRgn@@SGPAV1@PAUHRGN__@@@Z 004b7a96 f   nafxcwd:afxinl2.obj
 0001:000b6aa6       ??0CRgn@@QAE@XZ            004b7aa6 f   nafxcwd:afxinl2.obj
 0001:000b6ac5       ??1CRgn@@UAE@XZ            004b7ac5 f   nafxcwd:afxinl2.obj
 0001:000b6ae1       ?CreateRectRgn@CRgn@@QAEHHHHH@Z 004b7ae1 f   nafxcwd:afxinl2.obj
 0001:000b6b0d       ?CreateRectRgnIndirect@CRgn@@QAEHPBUtagRECT@@@Z 004b7b0d f   nafxcwd:afxinl2.obj
 0001:000b6b2d       ?CreateEllipticRgn@CRgn@@QAEHHHHH@Z 004b7b2d f   nafxcwd:afxinl2.obj
 0001:000b6b59       ?CreateEllipticRgnIndirect@CRgn@@QAEHPBUtagRECT@@@Z 004b7b59 f   nafxcwd:afxinl2.obj
 0001:000b6b79       ?CreatePolygonRgn@CRgn@@QAEHPAUtagPOINT@@HH@Z 004b7b79 f   nafxcwd:afxinl2.obj
 0001:000b6ba1       ?CreatePolyPolygonRgn@CRgn@@QAEHPAUtagPOINT@@PAHHH@Z 004b7ba1 f   nafxcwd:afxinl2.obj
 0001:000b6bcd       ?CreateRoundRectRgn@CRgn@@QAEHHHHHHH@Z 004b7bcd f   nafxcwd:afxinl2.obj
 0001:000b6c01       ?CreateFromPath@CRgn@@QAEHPAVCDC@@@Z 004b7c01 f   nafxcwd:afxinl2.obj
 0001:000b6c4a       ?CreateFromData@CRgn@@QAEHPBUtagXFORM@@HPBU_RGNDATA@@@Z 004b7c4a f   nafxcwd:afxinl2.obj
 0001:000b6c72       ?GetRegionData@CRgn@@QBEHPAU_RGNDATA@@H@Z 004b7c72 f   nafxcwd:afxinl2.obj
 0001:000b6cbd       ?SetRectRgn@CRgn@@QAEXHHHH@Z 004b7cbd f   nafxcwd:afxinl2.obj
 0001:000b6d10       ?SetRectRgn@CRgn@@QAEXPBUtagRECT@@@Z 004b7d10 f   nafxcwd:afxinl2.obj
 0001:000b6d6e       ?CombineRgn@CRgn@@QAEHPAV1@0H@Z 004b7d6e f   nafxcwd:afxinl2.obj
 0001:000b6dc7       ?CopyRgn@CRgn@@QAEHPAV1@@Z 004b7dc7 f   nafxcwd:afxinl2.obj
 0001:000b6e17       ?EqualRgn@CRgn@@QBEHPAV1@@Z 004b7e17 f   nafxcwd:afxinl2.obj
 0001:000b6e63       ?OffsetRgn@CRgn@@QAEHHH@Z  004b7e63 f   nafxcwd:afxinl2.obj
 0001:000b6eae       ?OffsetRgn@CRgn@@QAEHUtagPOINT@@@Z 004b7eae f   nafxcwd:afxinl2.obj
 0001:000b6ef9       ?GetRgnBox@CRgn@@QBEHPAUtagRECT@@@Z 004b7ef9 f   nafxcwd:afxinl2.obj
 0001:000b6f40       ?PtInRegion@CRgn@@QBEHHH@Z 004b7f40 f   nafxcwd:afxinl2.obj
 0001:000b6f8b       ?PtInRegion@CRgn@@QBEHUtagPOINT@@@Z 004b7f8b f   nafxcwd:afxinl2.obj
 0001:000b6fd6       ?RectInRegion@CRgn@@QBEHPBUtagRECT@@@Z 004b7fd6 f   nafxcwd:afxinl2.obj
 0001:000b701d       ??BCDC@@QBEPAUHDC__@@XZ    004b801d f   nafxcwd:afxinl2.obj
 0001:000b7045       ?GetSafeHdc@CDC@@QBEPAUHDC__@@XZ 004b8045 f   nafxcwd:afxinl2.obj
 0001:000b706d       ?GetWindow@CDC@@QBEPAVCWnd@@XZ 004b806d f   nafxcwd:afxinl2.obj
 0001:000b70b4       ?IsPrinting@CDC@@QBEHXZ    004b80b4 f   nafxcwd:afxinl2.obj
 0001:000b70c5       ?CreateDCA@CDC@@QAEHPBD00PBX@Z 004b80c5 f   nafxcwd:afxinl2.obj
 0001:000b70f1       ?CreateICA@CDC@@QAEHPBD00PBX@Z 004b80f1 f   nafxcwd:afxinl2.obj
 0001:000b711d       ?CreateCompatibleDC@CDC@@QAEHPAV1@@Z 004b811d f   nafxcwd:afxinl2.obj
 0001:000b7142       ?ExcludeUpdateRgn@CDC@@QAEHPAVCWnd@@@Z 004b8142 f   nafxcwd:afxinl2.obj
 0001:000b718c       ?GetDeviceCaps@CDC@@QBEHH@Z 004b818c f   nafxcwd:afxinl2.obj
 0001:000b71d3       ?GetBrushOrg@CDC@@QBE?AVCPoint@@XZ 004b81d3 f   nafxcwd:afxinl2.obj
 0001:000b724d       ?SetBrushOrg@CDC@@QAE?AVCPoint@@HH@Z 004b824d f   nafxcwd:afxinl2.obj
 0001:000b72cf       ?SetBrushOrg@CDC@@QAE?AVCPoint@@UtagPOINT@@@Z 004b82cf f   nafxcwd:afxinl2.obj
 0001:000b734f       ?EnumObjects@CDC@@QAEHHP6GHPAXJ@ZJ@Z 004b834f f   nafxcwd:afxinl2.obj
 0001:000b739e       ?SelectObject@CDC@@QAEPAVCBitmap@@PAV2@@Z 004b839e f   nafxcwd:afxinl2.obj
 0001:000b73e9       ?SelectObject@CDC@@QAEPAVCGdiObject@@PAV2@@Z 004b83e9 f   nafxcwd:afxinl2.obj
 0001:000b7434       ?SelectObject@CDC@@QAEPAXPAX@Z 004b8434 f   nafxcwd:afxinl2.obj
 0001:000b7497       ?GetNearestColor@CDC@@QBEKK@Z 004b8497 f   nafxcwd:afxinl2.obj
 0001:000b74de       ?RealizePalette@CDC@@QAEIXZ 004b84de f   nafxcwd:afxinl2.obj
 0001:000b751f       ?UpdateColors@CDC@@QAEXXZ  004b851f f   nafxcwd:afxinl2.obj
 0001:000b7560       ?GetBkColor@CDC@@QBEKXZ    004b8560 f   nafxcwd:afxinl2.obj
 0001:000b75a1       ?GetBkMode@CDC@@QBEHXZ     004b85a1 f   nafxcwd:afxinl2.obj
 0001:000b75e2       ?GetPolyFillMode@CDC@@QBEHXZ 004b85e2 f   nafxcwd:afxinl2.obj
 0001:000b7623       ?GetROP2@CDC@@QBEHXZ       004b8623 f   nafxcwd:afxinl2.obj
 0001:000b7664       ?GetStretchBltMode@CDC@@QBEHXZ 004b8664 f   nafxcwd:afxinl2.obj
 0001:000b76a5       ?GetTextColor@CDC@@QBEKXZ  004b86a5 f   nafxcwd:afxinl2.obj
 0001:000b76e6       ?GetMapMode@CDC@@QBEHXZ    004b86e6 f   nafxcwd:afxinl2.obj
 0001:000b7727       ?GetViewportOrg@CDC@@QBE?AVCPoint@@XZ 004b8727 f   nafxcwd:afxinl2.obj
 0001:000b77a1       ?GetViewportExt@CDC@@QBE?AVCSize@@XZ 004b87a1 f   nafxcwd:afxinl2.obj
 0001:000b781b       ?GetWindowOrg@CDC@@QBE?AVCPoint@@XZ 004b881b f   nafxcwd:afxinl2.obj
 0001:000b7895       ?GetWindowExt@CDC@@QBE?AVCSize@@XZ 004b8895 f   nafxcwd:afxinl2.obj
 0001:000b790f       ?SetViewportOrg@CDC@@QAE?AVCPoint@@UtagPOINT@@@Z 004b890f f   nafxcwd:afxinl2.obj
 0001:000b796e       ?SetViewportExt@CDC@@QAE?AVCSize@@UtagSIZE@@@Z 004b896e f   nafxcwd:afxinl2.obj
 0001:000b79cd       ?SetWindowOrg@CDC@@QAE?AVCPoint@@UtagPOINT@@@Z 004b89cd f   nafxcwd:afxinl2.obj
 0001:000b7a29       ?SetWindowExt@CDC@@QAE?AVCSize@@UtagSIZE@@@Z 004b8a29 f   nafxcwd:afxinl2.obj
 0001:000b7a88       ?DPtoLP@CDC@@QBEXPAUtagPOINT@@H@Z 004b8a88 f   nafxcwd:afxinl2.obj
 0001:000b7af1       ?DPtoLP@CDC@@QBEXPAUtagRECT@@@Z 004b8af1 f   nafxcwd:afxinl2.obj
 0001:000b7b58       ?LPtoDP@CDC@@QBEXPAUtagPOINT@@H@Z 004b8b58 f   nafxcwd:afxinl2.obj
 0001:000b7bc1       ?LPtoDP@CDC@@QBEXPAUtagRECT@@@Z 004b8bc1 f   nafxcwd:afxinl2.obj
 0001:000b7c28       ?FillRgn@CDC@@QAEHPAVCRgn@@PAVCBrush@@@Z 004b8c28 f   nafxcwd:afxinl2.obj
 0001:000b7c7d       ?FrameRgn@CDC@@QAEHPAVCRgn@@PAVCBrush@@HH@Z 004b8c7d f   nafxcwd:afxinl2.obj
 0001:000b7cda       ?InvertRgn@CDC@@QAEHPAVCRgn@@@Z 004b8cda f   nafxcwd:afxinl2.obj
 0001:000b7d26       ?PaintRgn@CDC@@QAEHPAVCRgn@@@Z 004b8d26 f   nafxcwd:afxinl2.obj
 0001:000b7d72       ?PtVisible@CDC@@UBEHHH@Z   004b8d72 f   nafxcwd:afxinl2.obj
 0001:000b7dbd       ?PtVisible@CDC@@QBEHUtagPOINT@@@Z 004b8dbd f   nafxcwd:afxinl2.obj
 0001:000b7e06       ?RectVisible@CDC@@UBEHPBUtagRECT@@@Z 004b8e06 f   nafxcwd:afxinl2.obj
 0001:000b7e4d       ?GetCurrentPosition@CDC@@QBE?AVCPoint@@XZ 004b8e4d f   nafxcwd:afxinl2.obj
 0001:000b7ec7       ?MoveTo@CDC@@QAE?AVCPoint@@UtagPOINT@@@Z 004b8ec7 f   nafxcwd:afxinl2.obj
 0001:000b7f23       ?LineTo@CDC@@QAEHUtagPOINT@@@Z 004b8f23 f   nafxcwd:afxinl2.obj
 0001:000b7f69       ?Arc@CDC@@QAEHHHHHHHHH@Z   004b8f69 f   nafxcwd:afxinl2.obj
 0001:000b7fcc       ?Arc@CDC@@QAEHPBUtagRECT@@UtagPOINT@@1@Z 004b8fcc f   nafxcwd:afxinl2.obj
 0001:000b803a       ?Polyline@CDC@@QAEHPAUtagPOINT@@H@Z 004b903a f   nafxcwd:afxinl2.obj
 0001:000b8085       ?FillRect@CDC@@QAEXPBUtagRECT@@PAVCBrush@@@Z 004b9085 f   nafxcwd:afxinl2.obj
 0001:000b80d5       ?FrameRect@CDC@@QAEXPBUtagRECT@@PAVCBrush@@@Z 004b90d5 f   nafxcwd:afxinl2.obj
 0001:000b8125       ?InvertRect@CDC@@QAEXPBUtagRECT@@@Z 004b9125 f   nafxcwd:afxinl2.obj
 0001:000b816c       ?DrawIcon@CDC@@QAEHHHPAUHICON__@@@Z 004b916c f   nafxcwd:afxinl2.obj
 0001:000b81bb       ?DrawIcon@CDC@@QAEHUtagPOINT@@PAUHICON__@@@Z 004b91bb f   nafxcwd:afxinl2.obj
 0001:000b820a       ?DrawState@CDC@@QAEHVCPoint@@VCSize@@PAUHBITMAP__@@IPAUHBRUSH__@@@Z 004b920a f   nafxcwd:afxinl2.obj
 0001:000b826f       ?DrawState@CDC@@QAEHVCPoint@@VCSize@@PAVCBitmap@@IPAVCBrush@@@Z 004b926f f   nafxcwd:afxinl2.obj
 0001:000b82de       ?DrawState@CDC@@QAEHVCPoint@@VCSize@@PAUHICON__@@IPAUHBRUSH__@@@Z 004b92de f   nafxcwd:afxinl2.obj
 0001:000b8343       ?DrawState@CDC@@QAEHVCPoint@@VCSize@@PAUHICON__@@IPAVCBrush@@@Z 004b9343 f   nafxcwd:afxinl2.obj
 0001:000b83ad       ?DrawState@CDC@@QAEHVCPoint@@VCSize@@PBDIHHPAUHBRUSH__@@@Z 004b93ad f   nafxcwd:afxinl2.obj
 0001:000b841d       ?DrawState@CDC@@QAEHVCPoint@@VCSize@@PBDIHHPAVCBrush@@@Z 004b941d f   nafxcwd:afxinl2.obj
 0001:000b8492       ?DrawState@CDC@@QAEHVCPoint@@VCSize@@P6GHPAUHDC__@@JIHH@ZJIPAUHBRUSH__@@@Z 004b9492 f   nafxcwd:afxinl2.obj
 0001:000b84f6       ?DrawState@CDC@@QAEHVCPoint@@VCSize@@P6GHPAUHDC__@@JIHH@ZJIPAVCBrush@@@Z 004b94f6 f   nafxcwd:afxinl2.obj
 0001:000b855f       ?DrawEdge@CDC@@QAEHPAUtagRECT@@II@Z 004b955f f   nafxcwd:afxinl2.obj
 0001:000b85ae       ?DrawFrameControl@CDC@@QAEHPAUtagRECT@@II@Z 004b95ae f   nafxcwd:afxinl2.obj
 0001:000b85fd       ?Chord@CDC@@QAEHHHHHHHHH@Z 004b95fd f   nafxcwd:afxinl2.obj
 0001:000b8660       ?Chord@CDC@@QAEHPBUtagRECT@@UtagPOINT@@1@Z 004b9660 f   nafxcwd:afxinl2.obj
 0001:000b86ce       ?DrawFocusRect@CDC@@QAEXPBUtagRECT@@@Z 004b96ce f   nafxcwd:afxinl2.obj
 0001:000b8715       ?Ellipse@CDC@@QAEHHHHH@Z   004b9715 f   nafxcwd:afxinl2.obj
 0001:000b8768       ?Ellipse@CDC@@QAEHPBUtagRECT@@@Z 004b9768 f   nafxcwd:afxinl2.obj
 0001:000b87c6       ?Pie@CDC@@QAEHHHHHHHHH@Z   004b97c6 f   nafxcwd:afxinl2.obj
 0001:000b8829       ?Pie@CDC@@QAEHPBUtagRECT@@UtagPOINT@@1@Z 004b9829 f   nafxcwd:afxinl2.obj
 0001:000b8897       ?Polygon@CDC@@QAEHPAUtagPOINT@@H@Z 004b9897 f   nafxcwd:afxinl2.obj
 0001:000b88e2       ?PolyPolygon@CDC@@QAEHPAUtagPOINT@@PAHH@Z 004b98e2 f   nafxcwd:afxinl2.obj
 0001:000b8931       ?Rectangle@CDC@@QAEHHHHH@Z 004b9931 f   nafxcwd:afxinl2.obj
 0001:000b8984       ?Rectangle@CDC@@QAEHPBUtagRECT@@@Z 004b9984 f   nafxcwd:afxinl2.obj
 0001:000b89e2       ?RoundRect@CDC@@QAEHHHHHHH@Z 004b99e2 f   nafxcwd:afxinl2.obj
 0001:000b8a3d       ?RoundRect@CDC@@QAEHPBUtagRECT@@UtagPOINT@@@Z 004b9a3d f   nafxcwd:afxinl2.obj
 0001:000b8aa3       ?PatBlt@CDC@@QAEHHHHHK@Z   004b9aa3 f   nafxcwd:afxinl2.obj
 0001:000b8afa       ?BitBlt@CDC@@QAEHHHHHPAV1@HHK@Z 004b9afa f   nafxcwd:afxinl2.obj
 0001:000b8b62       ?StretchBlt@CDC@@QAEHHHHHPAV1@HHHHK@Z 004b9b62 f   nafxcwd:afxinl2.obj
 0001:000b8bd2       ?GetPixel@CDC@@QBEKHH@Z    004b9bd2 f   nafxcwd:afxinl2.obj
 0001:000b8c1d       ?GetPixel@CDC@@QBEKUtagPOINT@@@Z 004b9c1d f   nafxcwd:afxinl2.obj
 0001:000b8c68       ?SetPixel@CDC@@QAEKHHK@Z   004b9c68 f   nafxcwd:afxinl2.obj
 0001:000b8cb7       ?SetPixel@CDC@@QAEKUtagPOINT@@K@Z 004b9cb7 f   nafxcwd:afxinl2.obj
 0001:000b8d06       ?FloodFill@CDC@@QAEHHHK@Z  004b9d06 f   nafxcwd:afxinl2.obj
 0001:000b8d55       ?ExtFloodFill@CDC@@QAEHHHKI@Z 004b9d55 f   nafxcwd:afxinl2.obj
 0001:000b8da8       ?TextOutA@CDC@@UAEHHHPBDH@Z 004b9da8 f   nafxcwd:afxinl2.obj
 0001:000b8dfb       ?TextOutA@CDC@@QAEHHHABVCString@@@Z 004b9dfb f   nafxcwd:afxinl2.obj
 0001:000b8e56       ?ExtTextOutA@CDC@@UAEHHHIPBUtagRECT@@PBDIPAH@Z 004b9e56 f   nafxcwd:afxinl2.obj
 0001:000b8eb5       ?ExtTextOutA@CDC@@QAEHHHIPBUtagRECT@@ABVCString@@PAH@Z 004b9eb5 f   nafxcwd:afxinl2.obj
 0001:000b8f1e       ?TabbedTextOutA@CDC@@UAE?AVCSize@@HHPBDHHPAHH@Z 004b9f1e f   nafxcwd:afxinl2.obj
 0001:000b8f89       ?TabbedTextOutA@CDC@@QAE?AVCSize@@HHABVCString@@HPAHH@Z 004b9f89 f   nafxcwd:afxinl2.obj
 0001:000b8ffe       ?DrawTextA@CDC@@UAEHPBDHPAUtagRECT@@I@Z 004b9ffe f   nafxcwd:afxinl2.obj
 0001:000b9051       ?DrawTextA@CDC@@QAEHABVCString@@PAUtagRECT@@I@Z 004ba051 f   nafxcwd:afxinl2.obj
 0001:000b9102       ?GetTextExtent@CDC@@QBE?AVCSize@@PBDH@Z 004ba102 f   nafxcwd:afxinl2.obj
 0001:000b9184       ?GetTextExtent@CDC@@QBE?AVCSize@@ABVCString@@@Z 004ba184 f   nafxcwd:afxinl2.obj
 0001:000b9210       ?GetOutputTextExtent@CDC@@QBE?AVCSize@@PBDH@Z 004ba210 f   nafxcwd:afxinl2.obj
 0001:000b9292       ?GetOutputTextExtent@CDC@@QBE?AVCSize@@ABVCString@@@Z 004ba292 f   nafxcwd:afxinl2.obj
 0001:000b931e       ?GetTabbedTextExtentA@CDC@@QBE?AVCSize@@PBDHHPAH@Z 004ba31e f   nafxcwd:afxinl2.obj
 0001:000b937d       ?GetTabbedTextExtentA@CDC@@QBE?AVCSize@@ABVCString@@HPAH@Z 004ba37d f   nafxcwd:afxinl2.obj
 0001:000b93e6       ?GetOutputTabbedTextExtent@CDC@@QBE?AVCSize@@PBDHHPAH@Z 004ba3e6 f   nafxcwd:afxinl2.obj
 0001:000b9445       ?GetOutputTabbedTextExtent@CDC@@QBE?AVCSize@@ABVCString@@HPAH@Z 004ba445 f   nafxcwd:afxinl2.obj
 0001:000b94ae       ?GrayStringA@CDC@@UAEHPAVCBrush@@P6GHPAUHDC__@@JH@ZJHHHHH@Z 004ba4ae f   nafxcwd:afxinl2.obj
 0001:000b9516       ?GetTextAlign@CDC@@QBEIXZ  004ba516 f   nafxcwd:afxinl2.obj
 0001:000b9557       ?GetTextFaceA@CDC@@QBEHHPAD@Z 004ba557 f   nafxcwd:afxinl2.obj
 0001:000b95a2       ?GetTextFaceA@CDC@@QBEHAAVCString@@@Z 004ba5a2 f   nafxcwd:afxinl2.obj
 0001:000b960a       ?GetTextMetricsA@CDC@@QBEHPAUtagTEXTMETRICA@@@Z 004ba60a f   nafxcwd:afxinl2.obj
 0001:000b9651       ?GetOutputTextMetrics@CDC@@QBEHPAUtagTEXTMETRICA@@@Z 004ba651 f   nafxcwd:afxinl2.obj
 0001:000b9698       ?GetTextCharacterExtra@CDC@@QBEHXZ 004ba698 f   nafxcwd:afxinl2.obj
 0001:000b96d9       ?GetCharWidthA@CDC@@QBEHIIPAH@Z 004ba6d9 f   nafxcwd:afxinl2.obj
 0001:000b9728       ?GetOutputCharWidth@CDC@@QBEHIIPAH@Z 004ba728 f   nafxcwd:afxinl2.obj
 0001:000b9777       ?GetAspectRatioFilter@CDC@@QBE?AVCSize@@XZ 004ba777 f   nafxcwd:afxinl2.obj
 0001:000b97f1       ?ScrollDC@CDC@@QAEHHHPBUtagRECT@@0PAVCRgn@@PAU2@@Z 004ba7f1 f   nafxcwd:afxinl2.obj
 0001:000b9851       ?Escape@CDC@@UAEHHHPBDPAX@Z 004ba851 f   nafxcwd:afxinl2.obj
 0001:000b98a4       ?SetBoundsRect@CDC@@QAEIPBUtagRECT@@I@Z 004ba8a4 f   nafxcwd:afxinl2.obj
 0001:000b98ef       ?GetBoundsRect@CDC@@QAEIPAUtagRECT@@I@Z 004ba8ef f   nafxcwd:afxinl2.obj
 0001:000b993a       ?ResetDCA@CDC@@QAEHPBU_devicemodeA@@@Z 004ba93a f   nafxcwd:afxinl2.obj
 0001:000b9987       ?GetOutlineTextMetricsA@CDC@@QBEIIPAU_OUTLINETEXTMETRICA@@@Z 004ba987 f   nafxcwd:afxinl2.obj
 0001:000b99d2       ?GetCharABCWidthsA@CDC@@QBEHIIPAU_ABC@@@Z 004ba9d2 f   nafxcwd:afxinl2.obj
 0001:000b9a21       ?GetFontData@CDC@@QBEKKKPAXK@Z 004baa21 f   nafxcwd:afxinl2.obj
 0001:000b9a74       ?GetKerningPairsA@CDC@@QBEHHPAUtagKERNINGPAIR@@@Z 004baa74 f   nafxcwd:afxinl2.obj
 0001:000b9abf       ?GetGlyphOutlineA@CDC@@QBEKIIPAU_GLYPHMETRICS@@KPAXPBU_MAT2@@@Z 004baabf f   nafxcwd:afxinl2.obj
 0001:000b9b1a       ?StartDocA@CDC@@QAEHPAU_DOCINFOA@@@Z 004bab1a f   nafxcwd:afxinl2.obj
 0001:000b9b61       ?StartPage@CDC@@QAEHXZ     004bab61 f   nafxcwd:afxinl2.obj
 0001:000b9ba2       ?EndPage@CDC@@QAEHXZ       004baba2 f   nafxcwd:afxinl2.obj
 0001:000b9be3       ?SetAbortProc@CDC@@QAEHP6GHPAUHDC__@@H@Z@Z 004babe3 f   nafxcwd:afxinl2.obj
 0001:000b9c2a       ?AbortDoc@CDC@@QAEHXZ      004bac2a f   nafxcwd:afxinl2.obj
 0001:000b9c6b       ?EndDoc@CDC@@QAEHXZ        004bac6b f   nafxcwd:afxinl2.obj
 0001:000b9cac       ?MaskBlt@CDC@@QAEHHHHHPAV1@HHAAVCBitmap@@HHK@Z 004bacac f   nafxcwd:afxinl2.obj
 0001:000b9d23       ?PlgBlt@CDC@@QAEHPAUtagPOINT@@PAV1@HHHHAAVCBitmap@@HH@Z 004bad23 f   nafxcwd:afxinl2.obj
 0001:000b9d92       ?SetPixelV@CDC@@QAEHHHK@Z  004bad92 f   nafxcwd:afxinl2.obj
 0001:000b9de1       ?SetPixelV@CDC@@QAEHUtagPOINT@@K@Z 004bade1 f   nafxcwd:afxinl2.obj
 0001:000b9e30       ?AngleArc@CDC@@QAEHHHHMM@Z 004bae30 f   nafxcwd:afxinl2.obj
 0001:000b9e87       ?ArcTo@CDC@@QAEHPBUtagRECT@@UtagPOINT@@1@Z 004bae87 f   nafxcwd:afxinl2.obj
 0001:000b9ef0       ?GetArcDirection@CDC@@QBEHXZ 004baef0 f   nafxcwd:afxinl2.obj
 0001:000b9f31       ?PolyPolyline@CDC@@QAEHPBUtagPOINT@@PBKH@Z 004baf31 f   nafxcwd:afxinl2.obj
 0001:000b9f80       ?GetColorAdjustment@CDC@@QBEHPAUtagCOLORADJUSTMENT@@@Z 004baf80 f   nafxcwd:afxinl2.obj
 0001:000b9fc7       ?GetCurrentPen@CDC@@QBEPAVCPen@@XZ 004bafc7 f   nafxcwd:afxinl2.obj
 0001:000ba010       ?GetCurrentBrush@CDC@@QBEPAVCBrush@@XZ 004bb010 f   nafxcwd:afxinl2.obj
 0001:000ba059       ?GetCurrentPalette@CDC@@QBEPAVCPalette@@XZ 004bb059 f   nafxcwd:afxinl2.obj
 0001:000ba0a2       ?GetCurrentFont@CDC@@QBEPAVCFont@@XZ 004bb0a2 f   nafxcwd:afxinl2.obj
 0001:000ba0eb       ?GetCurrentBitmap@CDC@@QBEPAVCBitmap@@XZ 004bb0eb f   nafxcwd:afxinl2.obj
 0001:000ba134       ?PolyBezier@CDC@@QAEHPBUtagPOINT@@H@Z 004bb134 f   nafxcwd:afxinl2.obj
 0001:000ba17f       ?DrawEscape@CDC@@QAEHHHPBD@Z 004bb17f f   nafxcwd:afxinl2.obj
 0001:000ba1ce       ?Escape@CDC@@QAEHHHPBDHPAD@Z 004bb1ce f   nafxcwd:afxinl2.obj
 0001:000ba225       ?GetCharABCWidthsA@CDC@@QBEHIIPAU_ABCFLOAT@@@Z 004bb225 f   nafxcwd:afxinl2.obj
 0001:000ba274       ?GetCharWidthA@CDC@@QBEHIIPAM@Z 004bb274 f   nafxcwd:afxinl2.obj
 0001:000ba2c3       ?AbortPath@CDC@@QAEHXZ     004bb2c3 f   nafxcwd:afxinl2.obj
 0001:000ba304       ?BeginPath@CDC@@QAEHXZ     004bb304 f   nafxcwd:afxinl2.obj
 0001:000ba345       ?CloseFigure@CDC@@QAEHXZ   004bb345 f   nafxcwd:afxinl2.obj
 0001:000ba386       ?EndPath@CDC@@QAEHXZ       004bb386 f   nafxcwd:afxinl2.obj
 0001:000ba3c7       ?FillPath@CDC@@QAEHXZ      004bb3c7 f   nafxcwd:afxinl2.obj
 0001:000ba408       ?FlattenPath@CDC@@QAEHXZ   004bb408 f   nafxcwd:afxinl2.obj
 0001:000ba449       ?GetMiterLimit@CDC@@QBEMXZ 004bb449 f   nafxcwd:afxinl2.obj
 0001:000ba4b1       ?GetPath@CDC@@QBEHPAUtagPOINT@@PAEH@Z 004bb4b1 f   nafxcwd:afxinl2.obj
 0001:000ba500       ?SetMiterLimit@CDC@@QAEHM@Z 004bb500 f   nafxcwd:afxinl2.obj
 0001:000ba549       ?StrokeAndFillPath@CDC@@QAEHXZ 004bb549 f   nafxcwd:afxinl2.obj
 0001:000ba58a       ?StrokePath@CDC@@QAEHXZ    004bb58a f   nafxcwd:afxinl2.obj
 0001:000ba5cb       ?WidenPath@CDC@@QAEHXZ     004bb5cb f   nafxcwd:afxinl2.obj
 0001:000ba60c       ?AddMetaFileComment@CDC@@QAEHIPBE@Z 004bb60c f   nafxcwd:afxinl2.obj
 0001:000ba657       ?PlayMetaFile@CDC@@QAEHPAUHENHMETAFILE__@@PBUtagRECT@@@Z 004bb657 f   nafxcwd:afxinl2.obj
 0001:000ba6a2       ??0CMenu@@QAE@XZ           004bb6a2 f   nafxcwd:afxinl2.obj
 0001:000ba6cb       ??1CMenu@@UAE@XZ           004bb6cb f   nafxcwd:afxinl2.obj
 0001:000ba71c       ?CreateMenu@CMenu@@QAEHXZ  004bb71c f   nafxcwd:afxinl2.obj
 0001:000ba736       ?CreatePopupMenu@CMenu@@QAEHXZ 004bb736 f   nafxcwd:afxinl2.obj
 0001:000ba750       ??BCMenu@@QBEPAUHMENU__@@XZ 004bb750 f   nafxcwd:afxinl2.obj
 0001:000ba7b8       ??8CMenu@@QBEHABV0@@Z      004bb7b8 f   nafxcwd:afxinl2.obj
 0001:000ba7da       ??9CMenu@@QBEHABV0@@Z      004bb7da f   nafxcwd:afxinl2.obj
 0001:000ba7fc       ?GetSafeHmenu@CMenu@@QBEPAUHMENU__@@XZ 004bb7fc f   nafxcwd:afxinl2.obj
 0001:000ba864       ?DeleteMenu@CMenu@@QAEHII@Z 004bb864 f   nafxcwd:afxinl2.obj
 0001:000ba8b7       ?AppendMenuA@CMenu@@QAEHIIPBD@Z 004bb8b7 f   nafxcwd:afxinl2.obj
 0001:000ba90e       ?AppendMenuA@CMenu@@QAEHIIPBVCBitmap@@@Z 004bb90e f   nafxcwd:afxinl2.obj
 0001:000ba96d       ?CheckMenuItem@CMenu@@QAEIII@Z 004bb96d f   nafxcwd:afxinl2.obj
 0001:000ba9c0       ?EnableMenuItem@CMenu@@QAEIII@Z 004bb9c0 f   nafxcwd:afxinl2.obj
 0001:000baa13       ?SetDefaultItem@CMenu@@QAEHIH@Z 004bba13 f   nafxcwd:afxinl2.obj
 0001:000baa66       ?GetDefaultItem@CMenu@@QAEIIH@Z 004bba66 f   nafxcwd:afxinl2.obj
 0001:000baab9       ?GetMenuItemCount@CMenu@@QBEIXZ 004bbab9 f   nafxcwd:afxinl2.obj
 0001:000bab02       ?GetMenuItemID@CMenu@@QBEIH@Z 004bbb02 f   nafxcwd:afxinl2.obj
 0001:000bab51       ?GetMenuState@CMenu@@QBEIII@Z 004bbb51 f   nafxcwd:afxinl2.obj
 0001:000baba4       ?GetMenuStringA@CMenu@@QBEHIPADHI@Z 004bbba4 f   nafxcwd:afxinl2.obj
 0001:000babff       ?GetMenuStringA@CMenu@@QBEHIAAVCString@@I@Z 004bbbff f   nafxcwd:afxinl2.obj
 0001:000bac77       ?GetMenuItemInfoA@CMenu@@QAEHIPAUtagMENUITEMINFOA@@H@Z 004bbc77 f   nafxcwd:afxinl2.obj
 0001:000bacff       ?GetSubMenu@CMenu@@QBEPAV1@H@Z 004bbcff f   nafxcwd:afxinl2.obj
 0001:000bad54       ?InsertMenuA@CMenu@@QAEHIIIPBD@Z 004bbd54 f   nafxcwd:afxinl2.obj
 0001:000badaf       ?InsertMenuA@CMenu@@QAEHIIIPBVCBitmap@@@Z 004bbdaf f   nafxcwd:afxinl2.obj
 0001:000bae12       ?ModifyMenuA@CMenu@@QAEHIIIPBD@Z 004bbe12 f   nafxcwd:afxinl2.obj
 0001:000bae6d       ?ModifyMenuA@CMenu@@QAEHIIIPBVCBitmap@@@Z 004bbe6d f   nafxcwd:afxinl2.obj
 0001:000baed0       ?RemoveMenu@CMenu@@QAEHII@Z 004bbed0 f   nafxcwd:afxinl2.obj
 0001:000baf23       ?SetMenuItemBitmaps@CMenu@@QAEHIIPBVCBitmap@@0@Z 004bbf23 f   nafxcwd:afxinl2.obj
 0001:000baf88       ?LoadMenuA@CMenu@@QAEHPBD@Z 004bbf88 f   nafxcwd:afxinl2.obj
 0001:000bafae       ?LoadMenuA@CMenu@@QAEHI@Z  004bbfae f   nafxcwd:afxinl2.obj
 0001:000bafd9       ?LoadMenuIndirectA@CMenu@@QAEHPBX@Z 004bbfd9 f   nafxcwd:afxinl2.obj
 0001:000baff9       ?SetMenuContextHelpId@CMenu@@QAEHK@Z 004bbff9 f   nafxcwd:afxinl2.obj
 0001:000bb017       ?GetMenuContextHelpId@CMenu@@QBEKXZ 004bc017 f   nafxcwd:afxinl2.obj
 0001:000bb02f       ?CheckMenuRadioItem@CMenu@@QAEHIIII@Z 004bc02f f   nafxcwd:afxinl2.obj
 0001:000bb059       ?ContinueRouting@CCmdUI@@QAEXXZ 004bc059 f   nafxcwd:afxinl2.obj
 0001:000bb070       ??_ECResourceException@@UAEPAXI@Z 004bc070 f i nafxcwd:afxinl2.obj
 0001:000bb070       ??_GCResourceException@@UAEPAXI@Z 004bc070 f i nafxcwd:afxinl2.obj
 0001:000bb0a0       ??_GCUserException@@UAEPAXI@Z 004bc0a0 f i nafxcwd:afxinl2.obj
 0001:000bb0a0       ??_ECUserException@@UAEPAXI@Z 004bc0a0 f i nafxcwd:afxinl2.obj
 0001:000bb0d0       ??_GCGdiObject@@UAEPAXI@Z  004bc0d0 f i nafxcwd:afxinl2.obj
 0001:000bb0d0       ??_ECGdiObject@@UAEPAXI@Z  004bc0d0 f i nafxcwd:afxinl2.obj
 0001:000bb100       ??_ECPen@@UAEPAXI@Z        004bc100 f i nafxcwd:afxinl2.obj
 0001:000bb100       ??_GCPen@@UAEPAXI@Z        004bc100 f i nafxcwd:afxinl2.obj
 0001:000bb130       ??_GCBrush@@UAEPAXI@Z      004bc130 f i nafxcwd:afxinl2.obj
 0001:000bb130       ??_ECBrush@@UAEPAXI@Z      004bc130 f i nafxcwd:afxinl2.obj
 0001:000bb160       ??_GCFont@@UAEPAXI@Z       004bc160 f i nafxcwd:afxinl2.obj
 0001:000bb160       ??_ECFont@@UAEPAXI@Z       004bc160 f i nafxcwd:afxinl2.obj
 0001:000bb190       ??_ECBitmap@@UAEPAXI@Z     004bc190 f i nafxcwd:afxinl2.obj
 0001:000bb190       ??_GCBitmap@@UAEPAXI@Z     004bc190 f i nafxcwd:afxinl2.obj
 0001:000bb1c0       ??_GCPalette@@UAEPAXI@Z    004bc1c0 f i nafxcwd:afxinl2.obj
 0001:000bb1c0       ??_ECPalette@@UAEPAXI@Z    004bc1c0 f i nafxcwd:afxinl2.obj
 0001:000bb1f0       ??_GCRgn@@UAEPAXI@Z        004bc1f0 f i nafxcwd:afxinl2.obj
 0001:000bb1f0       ??_ECRgn@@UAEPAXI@Z        004bc1f0 f i nafxcwd:afxinl2.obj
 0001:000bb220       ??_ECMenu@@UAEPAXI@Z       004bc220 f i nafxcwd:afxinl2.obj
 0001:000bb220       ??_GCMenu@@UAEPAXI@Z       004bc220 f i nafxcwd:afxinl2.obj
 0001:000bb250       ??BCWnd@@QBEPAUHWND__@@XZ  004bc250 f   nafxcwd:afxinl3.obj
 0001:000bb278       ??8CWnd@@QBEHABV0@@Z       004bc278 f   nafxcwd:afxinl3.obj
 0001:000bb29a       ??9CWnd@@QBEHABV0@@Z       004bc29a f   nafxcwd:afxinl3.obj
 0001:000bb2bc       ?GetSafeHwnd@CWnd@@QBEPAUHWND__@@XZ 004bc2bc f   nafxcwd:afxinl3.obj
 0001:000bb2e4       ?GetOwner@CWnd@@QBEPAV1@XZ 004bc2e4 f   nafxcwd:afxinl3.obj
 0001:000bb319       ?SetOwner@CWnd@@QAEXPAV1@@Z 004bc319 f   nafxcwd:afxinl3.obj
 0001:000bb349       ?SendMessageA@CWnd@@QAEJIIJ@Z 004bc349 f   nafxcwd:afxinl3.obj
 0001:000bb39d       ?PostMessageA@CWnd@@QAEHIIJ@Z 004bc39d f   nafxcwd:afxinl3.obj
 0001:000bb3f1       ?SetFont@CWnd@@QAEXPAVCFont@@H@Z 004bc3f1 f   nafxcwd:afxinl3.obj
 0001:000bb448       ?GetFont@CWnd@@QBEPAVCFont@@XZ 004bc448 f   nafxcwd:afxinl3.obj
 0001:000bb49a       ?GetMenu@CWnd@@QBEPAVCMenu@@XZ 004bc49a f   nafxcwd:afxinl3.obj
 0001:000bb4e6       ?SetMenu@CWnd@@QAEHPAVCMenu@@@Z 004bc4e6 f   nafxcwd:afxinl3.obj
 0001:000bb537       ?DrawMenuBar@CWnd@@QAEXXZ  004bc537 f   nafxcwd:afxinl3.obj
 0001:000bb57d       ?GetSystemMenu@CWnd@@QBEPAVCMenu@@H@Z 004bc57d f   nafxcwd:afxinl3.obj
 0001:000bb5cf       ?HiliteMenuItem@CWnd@@QAEHPAVCMenu@@II@Z 004bc5cf f   nafxcwd:afxinl3.obj
 0001:000bb626       ?IsIconic@CWnd@@QBEHXZ     004bc626 f   nafxcwd:afxinl3.obj
 0001:000bb66c       ?IsZoomed@CWnd@@QBEHXZ     004bc66c f   nafxcwd:afxinl3.obj
 0001:000bb6b2       ?MoveWindow@CWnd@@QAEXPBUtagRECT@@H@Z 004bc6b2 f   nafxcwd:afxinl3.obj
 0001:000bb6f1       ?ArrangeIconicWindows@CWnd@@QAEIXZ 004bc6f1 f   nafxcwd:afxinl3.obj
 0001:000bb737       ?SetWindowRgn@CWnd@@QAEHPAUHRGN__@@H@Z 004bc737 f   nafxcwd:afxinl3.obj
 0001:000bb787       ?GetWindowRgn@CWnd@@QBEHPAUHRGN__@@@Z 004bc787 f   nafxcwd:afxinl3.obj
 0001:000bb7d9       ?BringWindowToTop@CWnd@@QAEXXZ 004bc7d9 f   nafxcwd:afxinl3.obj
 0001:000bb81f       ?GetWindowRect@CWnd@@QBEXPAUtagRECT@@@Z 004bc81f f   nafxcwd:afxinl3.obj
 0001:000bb86b       ?GetClientRect@CWnd@@QBEXPAUtagRECT@@@Z 004bc86b f   nafxcwd:afxinl3.obj
 0001:000bb8b7       ?MapWindowPoints@CWnd@@QBEXPAV1@PAUtagPOINT@@I@Z 004bc8b7 f   nafxcwd:afxinl3.obj
 0001:000bb910       ?MapWindowPoints@CWnd@@QBEXPAV1@PAUtagRECT@@@Z 004bc910 f   nafxcwd:afxinl3.obj
 0001:000bb967       ?ClientToScreen@CWnd@@QBEXPAUtagPOINT@@@Z 004bc967 f   nafxcwd:afxinl3.obj
 0001:000bb9b3       ?ScreenToClient@CWnd@@QBEXPAUtagPOINT@@@Z 004bc9b3 f   nafxcwd:afxinl3.obj
 0001:000bb9ff       ?BeginPaint@CWnd@@QAEPAVCDC@@PAUtagPAINTSTRUCT@@@Z 004bc9ff f   nafxcwd:afxinl3.obj
 0001:000bba51       ?EndPaint@CWnd@@QAEXPAUtagPAINTSTRUCT@@@Z 004bca51 f   nafxcwd:afxinl3.obj
 0001:000bba9d       ?GetDC@CWnd@@QAEPAVCDC@@XZ 004bca9d f   nafxcwd:afxinl3.obj
 0001:000bbae9       ?GetWindowDC@CWnd@@QAEPAVCDC@@XZ 004bcae9 f   nafxcwd:afxinl3.obj
 0001:000bbb35       ?ReleaseDC@CWnd@@QAEHPAVCDC@@@Z 004bcb35 f   nafxcwd:afxinl3.obj
 0001:000bbb84       ?UpdateWindow@CWnd@@QAEXXZ 004bcb84 f   nafxcwd:afxinl3.obj
 0001:000bbbca       ?SetRedraw@CWnd@@QAEXH@Z   004bcbca f   nafxcwd:afxinl3.obj
 0001:000bbc1a       ?GetUpdateRect@CWnd@@QAEHPAUtagRECT@@H@Z 004bcc1a f   nafxcwd:afxinl3.obj
 0001:000bbc6a       ?GetUpdateRgn@CWnd@@QAEHPAVCRgn@@H@Z 004bcc6a f   nafxcwd:afxinl3.obj
 0001:000bbcbf       ?Invalidate@CWnd@@QAEXH@Z  004bccbf f   nafxcwd:afxinl3.obj
 0001:000bbd0d       ?InvalidateRect@CWnd@@QAEXPBUtagRECT@@H@Z 004bcd0d f   nafxcwd:afxinl3.obj
 0001:000bbd60       ?InvalidateRgn@CWnd@@QAEXPAVCRgn@@H@Z 004bcd60 f   nafxcwd:afxinl3.obj
 0001:000bbdb8       ?ValidateRect@CWnd@@QAEXPBUtagRECT@@@Z 004bcdb8 f   nafxcwd:afxinl3.obj
 0001:000bbe07       ?ValidateRgn@CWnd@@QAEXPAVCRgn@@@Z 004bce07 f   nafxcwd:afxinl3.obj
 0001:000bbe5b       ?IsWindowVisible@CWnd@@QBEHXZ 004bce5b f   nafxcwd:afxinl3.obj
 0001:000bbea4       ?ShowOwnedPopups@CWnd@@QAEXH@Z 004bcea4 f   nafxcwd:afxinl3.obj
 0001:000bbef3       ?SendMessageToDescendants@CWnd@@QAEXIIJHH@Z 004bcef3 f   nafxcwd:afxinl3.obj
 0001:000bbf51       ?GetDescendantWindow@CWnd@@QBEPAV1@HH@Z 004bcf51 f   nafxcwd:afxinl3.obj
 0001:000bbfa3       ?GetDCEx@CWnd@@QAEPAVCDC@@PAVCRgn@@K@Z 004bcfa3 f   nafxcwd:afxinl3.obj
 0001:000bc001       ?LockWindowUpdate@CWnd@@QAEHXZ 004bd001 f   nafxcwd:afxinl3.obj
 0001:000bc04a       ?UnlockWindowUpdate@CWnd@@QAEXXZ 004bd04a f   nafxcwd:afxinl3.obj
 0001:000bc08e       ?RedrawWindow@CWnd@@QAEHPBUtagRECT@@PAVCRgn@@I@Z 004bd08e f   nafxcwd:afxinl3.obj
 0001:000bc0ea       ?EnableScrollBar@CWnd@@QAEHHI@Z 004bd0ea f   nafxcwd:afxinl3.obj
 0001:000bc13d       ?SetTimer@CWnd@@QAEIIIP6GXPAUHWND__@@IIK@Z@Z 004bd13d f   nafxcwd:afxinl3.obj
 0001:000bc194       ?KillTimer@CWnd@@QAEHH@Z   004bd194 f   nafxcwd:afxinl3.obj
 0001:000bc1e3       ?GetActiveWindow@CWnd@@SGPAV1@XZ 004bd1e3 f   nafxcwd:afxinl3.obj
 0001:000bc1f4       ?SetActiveWindow@CWnd@@QAEPAV1@XZ 004bd1f4 f   nafxcwd:afxinl3.obj
 0001:000bc243       ?GetCapture@CWnd@@SGPAV1@XZ 004bd243 f   nafxcwd:afxinl3.obj
 0001:000bc254       ?SetCapture@CWnd@@QAEPAV1@XZ 004bd254 f   nafxcwd:afxinl3.obj
 0001:000bc2a3       ?GetFocus@CWnd@@SGPAV1@XZ  004bd2a3 f   nafxcwd:afxinl3.obj
 0001:000bc2b4       ?GetDesktopWindow@CWnd@@SGPAV1@XZ 004bd2b4 f   nafxcwd:afxinl3.obj
 0001:000bc2c5       ?DlgDirListA@CWnd@@QAEHPADHHI@Z 004bd2c5 f   nafxcwd:afxinl3.obj
 0001:000bc320       ?DlgDirListComboBoxA@CWnd@@QAEHPADHHI@Z 004bd320 f   nafxcwd:afxinl3.obj
 0001:000bc37b       ?DlgDirSelect@CWnd@@QAEHPADH@Z 004bd37b f   nafxcwd:afxinl3.obj
 0001:000bc3d3       ?DlgDirSelectComboBox@CWnd@@QAEHPADH@Z 004bd3d3 f   nafxcwd:afxinl3.obj
 0001:000bc42b       ?GetNextDlgGroupItem@CWnd@@QBEPAV1@PAV1@H@Z 004bd42b f   nafxcwd:afxinl3.obj
 0001:000bc489       ?GetNextDlgTabItem@CWnd@@QBEPAV1@PAV1@H@Z 004bd489 f   nafxcwd:afxinl3.obj
 0001:000bc4e7       ?ShowScrollBar@CWnd@@QAEXIH@Z 004bd4e7 f   nafxcwd:afxinl3.obj
 0001:000bc53a       ?ChildWindowFromPoint@CWnd@@QBEPAV1@UtagPOINT@@@Z 004bd53a f   nafxcwd:afxinl3.obj
 0001:000bc593       ?ChildWindowFromPoint@CWnd@@QBEPAV1@UtagPOINT@@I@Z 004bd593 f   nafxcwd:afxinl3.obj
 0001:000bc5f0       ?FindWindowA@CWnd@@SGPAV1@PBD0@Z 004bd5f0 f   nafxcwd:afxinl3.obj
 0001:000bc60b       ?GetNextWindow@CWnd@@QBEPAV1@I@Z 004bd60b f   nafxcwd:afxinl3.obj
 0001:000bc662       ?GetTopWindow@CWnd@@QBEPAV1@XZ 004bd662 f   nafxcwd:afxinl3.obj
 0001:000bc6b1       ?GetWindow@CWnd@@QBEPAV1@I@Z 004bd6b1 f   nafxcwd:afxinl3.obj
 0001:000bc706       ?GetLastActivePopup@CWnd@@QBEPAV1@XZ 004bd706 f   nafxcwd:afxinl3.obj
 0001:000bc755       ?IsChild@CWnd@@QBEHPBV1@@Z 004bd755 f   nafxcwd:afxinl3.obj
 0001:000bc7a9       ?GetParent@CWnd@@QBEPAV1@XZ 004bd7a9 f   nafxcwd:afxinl3.obj
 0001:000bc7f8       ?SetParent@CWnd@@QAEPAV1@PAV1@@Z 004bd7f8 f   nafxcwd:afxinl3.obj
 0001:000bc852       ?WindowFromPoint@CWnd@@SGPAV1@UtagPOINT@@@Z 004bd852 f   nafxcwd:afxinl3.obj
 0001:000bc86d       ?FlashWindow@CWnd@@QAEHH@Z 004bd86d f   nafxcwd:afxinl3.obj
 0001:000bc8bc       ?ChangeClipboardChain@CWnd@@QAEHPAUHWND__@@@Z 004bd8bc f   nafxcwd:afxinl3.obj
 0001:000bc90b       ?SetClipboardViewer@CWnd@@QAEPAUHWND__@@XZ 004bd90b f   nafxcwd:afxinl3.obj
 0001:000bc954       ?OpenClipboard@CWnd@@QAEHXZ 004bd954 f   nafxcwd:afxinl3.obj
 0001:000bc99d       ?GetOpenClipboardWindow@CWnd@@SGPAV1@XZ 004bd99d f   nafxcwd:afxinl3.obj
 0001:000bc9ae       ?GetClipboardOwner@CWnd@@SGPAV1@XZ 004bd9ae f   nafxcwd:afxinl3.obj
 0001:000bc9bf       ?GetClipboardViewer@CWnd@@SGPAV1@XZ 004bd9bf f   nafxcwd:afxinl3.obj
 0001:000bc9d0       ?CreateCaret@CWnd@@QAEXPAVCBitmap@@@Z 004bd9d0 f   nafxcwd:afxinl3.obj
 0001:000bca28       ?CreateSolidCaret@CWnd@@QAEXHH@Z 004bda28 f   nafxcwd:afxinl3.obj
 0001:000bca7d       ?CreateGrayCaret@CWnd@@QAEXHH@Z 004bda7d f   nafxcwd:afxinl3.obj
 0001:000bcad2       ?GetCaretPos@CWnd@@SG?AVCPoint@@XZ 004bdad2 f   nafxcwd:afxinl3.obj
 0001:000bcb01       ?SetCaretPos@CWnd@@SGXUtagPOINT@@@Z 004bdb01 f   nafxcwd:afxinl3.obj
 0001:000bcb16       ?HideCaret@CWnd@@QAEXXZ    004bdb16 f   nafxcwd:afxinl3.obj
 0001:000bcb5f       ?ShowCaret@CWnd@@QAEXXZ    004bdb5f f   nafxcwd:afxinl3.obj
 0001:000bcba8       ?SetForegroundWindow@CWnd@@QAEHXZ 004bdba8 f   nafxcwd:afxinl3.obj
 0001:000bcbf1       ?GetForegroundWindow@CWnd@@SGPAV1@XZ 004bdbf1 f   nafxcwd:afxinl3.obj
 0001:000bcc02       ?SendNotifyMessageA@CWnd@@QAEHIIJ@Z 004bdc02 f   nafxcwd:afxinl3.obj
 0001:000bcc59       ?SetIcon@CWnd@@QAEPAUHICON__@@PAU2@H@Z 004bdc59 f   nafxcwd:afxinl3.obj
 0001:000bccb1       ?GetIcon@CWnd@@QBEPAUHICON__@@H@Z 004bdcb1 f   nafxcwd:afxinl3.obj
 0001:000bcd04       ?Print@CWnd@@QBEXPAVCDC@@K@Z 004bdd04 f   nafxcwd:afxinl3.obj
 0001:000bcd61       ?PrintClient@CWnd@@QBEXPAVCDC@@K@Z 004bdd61 f   nafxcwd:afxinl3.obj
 0001:000bcdbe       ?SetWindowContextHelpId@CWnd@@QAEHK@Z 004bddbe f   nafxcwd:afxinl3.obj
 0001:000bce0d       ?GetWindowContextHelpId@CWnd@@QBEKXZ 004bde0d f   nafxcwd:afxinl3.obj
 0001:000bce56       ?OnActivateApp@CWnd@@IAEXHPAUHTASK__@@@Z 004bde56 f   nafxcwd:afxinl3.obj
 0001:000bce6b       ?OnActivate@CWnd@@IAEXIPAV1@H@Z 004bde6b f   nafxcwd:afxinl3.obj
 0001:000bce80       ?OnCancelMode@CWnd@@IAEXXZ 004bde80 f   nafxcwd:afxinl3.obj
 0001:000bce93       ?OnChildActivate@CWnd@@IAEXXZ 004bde93 f   nafxcwd:afxinl3.obj
 0001:000bcea6       ?OnClose@CWnd@@IAEXXZ      004bdea6 f   nafxcwd:afxinl3.obj
 0001:000bceb9       ?OnContextMenu@CWnd@@IAEXPAV1@VCPoint@@@Z 004bdeb9 f   nafxcwd:afxinl3.obj
 0001:000bcece       ?OnCopyData@CWnd@@IAEHPAV1@PAUtagCOPYDATASTRUCT@@@Z 004bdece f   nafxcwd:afxinl3.obj
 0001:000bcee3       ?OnCreate@CWnd@@IAEHPAUtagCREATESTRUCTA@@@Z 004bdee3 f   nafxcwd:afxinl3.obj
 0001:000bcef8       ?OnEnable@CWnd@@IAEXH@Z    004bdef8 f   nafxcwd:afxinl3.obj
 0001:000bcf0d       ?OnEndSession@CWnd@@IAEXH@Z 004bdf0d f   nafxcwd:afxinl3.obj
 0001:000bcf22       ?OnEraseBkgnd@CWnd@@IAEHPAVCDC@@@Z 004bdf22 f   nafxcwd:afxinl3.obj
 0001:000bcf37       ?OnGetMinMaxInfo@CWnd@@IAEXPAUtagMINMAXINFO@@@Z 004bdf37 f   nafxcwd:afxinl3.obj
 0001:000bcf4c       ?OnIconEraseBkgnd@CWnd@@IAEXPAVCDC@@@Z 004bdf4c f   nafxcwd:afxinl3.obj
 0001:000bcf61       ?OnKillFocus@CWnd@@IAEXPAV1@@Z 004bdf61 f   nafxcwd:afxinl3.obj
 0001:000bcf76       ?OnMenuChar@CWnd@@IAEJIIPAVCMenu@@@Z 004bdf76 f   nafxcwd:afxinl3.obj
 0001:000bcf8b       ?OnMenuSelect@CWnd@@IAEXIIPAUHMENU__@@@Z 004bdf8b f   nafxcwd:afxinl3.obj
 0001:000bcfa0       ?OnMove@CWnd@@IAEXHH@Z     004bdfa0 f   nafxcwd:afxinl3.obj
 0001:000bcfb5       ?OnPaint@CWnd@@IAEXXZ      004bdfb5 f   nafxcwd:afxinl3.obj
 0001:000bcfc8       ?OnQueryDragIcon@CWnd@@IAEPAUHICON__@@XZ 004bdfc8 f   nafxcwd:afxinl3.obj
 0001:000bcfdb       ?OnQueryEndSession@CWnd@@IAEHXZ 004bdfdb f   nafxcwd:afxinl3.obj
 0001:000bcfee       ?OnQueryNewPalette@CWnd@@IAEHXZ 004bdfee f   nafxcwd:afxinl3.obj
 0001:000bd001       ?OnQueryOpen@CWnd@@IAEHXZ  004be001 f   nafxcwd:afxinl3.obj
 0001:000bd014       ?OnSetCursor@CWnd@@IAEHPAV1@II@Z 004be014 f   nafxcwd:afxinl3.obj
 0001:000bd029       ?OnSetFocus@CWnd@@IAEXPAV1@@Z 004be029 f   nafxcwd:afxinl3.obj
 0001:000bd03e       ?OnShowWindow@CWnd@@IAEXHI@Z 004be03e f   nafxcwd:afxinl3.obj
 0001:000bd053       ?OnSize@CWnd@@IAEXIHH@Z    004be053 f   nafxcwd:afxinl3.obj
 0001:000bd068       ?OnTCard@CWnd@@IAEXIK@Z    004be068 f   nafxcwd:afxinl3.obj
 0001:000bd07d       ?OnWindowPosChanging@CWnd@@IAEXPAUtagWINDOWPOS@@@Z 004be07d f   nafxcwd:afxinl3.obj
 0001:000bd092       ?OnWindowPosChanged@CWnd@@IAEXPAUtagWINDOWPOS@@@Z 004be092 f   nafxcwd:afxinl3.obj
 0001:000bd0a7       ?OnDropFiles@CWnd@@IAEXPAUHDROP__@@@Z 004be0a7 f   nafxcwd:afxinl3.obj
 0001:000bd0bc       ?OnPaletteIsChanging@CWnd@@IAEXPAV1@@Z 004be0bc f   nafxcwd:afxinl3.obj
 0001:000bd0d1       ?OnNcActivate@CWnd@@IAEHH@Z 004be0d1 f   nafxcwd:afxinl3.obj
 0001:000bd0e6       ?OnNcCalcSize@CWnd@@IAEXHPAUtagNCCALCSIZE_PARAMS@@@Z 004be0e6 f   nafxcwd:afxinl3.obj
 0001:000bd0fb       ?OnNcCreate@CWnd@@IAEHPAUtagCREATESTRUCTA@@@Z 004be0fb f   nafxcwd:afxinl3.obj
 0001:000bd110       ?OnNcHitTest@CWnd@@IAEIVCPoint@@@Z 004be110 f   nafxcwd:afxinl3.obj
 0001:000bd125       ?OnNcLButtonDblClk@CWnd@@IAEXIVCPoint@@@Z 004be125 f   nafxcwd:afxinl3.obj
 0001:000bd13a       ?OnNcLButtonDown@CWnd@@IAEXIVCPoint@@@Z 004be13a f   nafxcwd:afxinl3.obj
 0001:000bd14f       ?OnNcLButtonUp@CWnd@@IAEXIVCPoint@@@Z 004be14f f   nafxcwd:afxinl3.obj
 0001:000bd164       ?OnNcMButtonDblClk@CWnd@@IAEXIVCPoint@@@Z 004be164 f   nafxcwd:afxinl3.obj
 0001:000bd179       ?OnNcMButtonDown@CWnd@@IAEXIVCPoint@@@Z 004be179 f   nafxcwd:afxinl3.obj
 0001:000bd18e       ?OnNcMButtonUp@CWnd@@IAEXIVCPoint@@@Z 004be18e f   nafxcwd:afxinl3.obj
 0001:000bd1a3       ?OnNcMouseMove@CWnd@@IAEXIVCPoint@@@Z 004be1a3 f   nafxcwd:afxinl3.obj
 0001:000bd1b8       ?OnNcPaint@CWnd@@IAEXXZ    004be1b8 f   nafxcwd:afxinl3.obj
 0001:000bd1cb       ?OnNcRButtonDblClk@CWnd@@IAEXIVCPoint@@@Z 004be1cb f   nafxcwd:afxinl3.obj
 0001:000bd1e0       ?OnNcRButtonDown@CWnd@@IAEXIVCPoint@@@Z 004be1e0 f   nafxcwd:afxinl3.obj
 0001:000bd1f5       ?OnNcRButtonUp@CWnd@@IAEXIVCPoint@@@Z 004be1f5 f   nafxcwd:afxinl3.obj
 0001:000bd20a       ?OnSysChar@CWnd@@IAEXIII@Z 004be20a f   nafxcwd:afxinl3.obj
 0001:000bd21f       ?OnSysCommand@CWnd@@IAEXIJ@Z 004be21f f   nafxcwd:afxinl3.obj
 0001:000bd234       ?OnSysDeadChar@CWnd@@IAEXIII@Z 004be234 f   nafxcwd:afxinl3.obj
 0001:000bd249       ?OnSysKeyDown@CWnd@@IAEXIII@Z 004be249 f   nafxcwd:afxinl3.obj
 0001:000bd25e       ?OnSysKeyUp@CWnd@@IAEXIII@Z 004be25e f   nafxcwd:afxinl3.obj
 0001:000bd273       ?OnCompacting@CWnd@@IAEXI@Z 004be273 f   nafxcwd:afxinl3.obj
 0001:000bd288       ?OnFontChange@CWnd@@IAEXXZ 004be288 f   nafxcwd:afxinl3.obj
 0001:000bd29b       ?OnPaletteChanged@CWnd@@IAEXPAV1@@Z 004be29b f   nafxcwd:afxinl3.obj
 0001:000bd2b0       ?OnSpoolerStatus@CWnd@@IAEXII@Z 004be2b0 f   nafxcwd:afxinl3.obj
 0001:000bd2c5       ?OnTimeChange@CWnd@@IAEXXZ 004be2c5 f   nafxcwd:afxinl3.obj
 0001:000bd2d8       ?OnChar@CWnd@@IAEXIII@Z    004be2d8 f   nafxcwd:afxinl3.obj
 0001:000bd2ed       ?OnDeadChar@CWnd@@IAEXIII@Z 004be2ed f   nafxcwd:afxinl3.obj
 0001:000bd302       ?OnKeyDown@CWnd@@IAEXIII@Z 004be302 f   nafxcwd:afxinl3.obj
 0001:000bd317       ?OnKeyUp@CWnd@@IAEXIII@Z   004be317 f   nafxcwd:afxinl3.obj
 0001:000bd32c       ?OnLButtonDblClk@CWnd@@IAEXIVCPoint@@@Z 004be32c f   nafxcwd:afxinl3.obj
 0001:000bd341       ?OnLButtonDown@CWnd@@IAEXIVCPoint@@@Z 004be341 f   nafxcwd:afxinl3.obj
 0001:000bd356       ?OnLButtonUp@CWnd@@IAEXIVCPoint@@@Z 004be356 f   nafxcwd:afxinl3.obj
 0001:000bd36b       ?OnMButtonDblClk@CWnd@@IAEXIVCPoint@@@Z 004be36b f   nafxcwd:afxinl3.obj
 0001:000bd380       ?OnMButtonDown@CWnd@@IAEXIVCPoint@@@Z 004be380 f   nafxcwd:afxinl3.obj
 0001:000bd395       ?OnMButtonUp@CWnd@@IAEXIVCPoint@@@Z 004be395 f   nafxcwd:afxinl3.obj
 0001:000bd3aa       ?OnMouseActivate@CWnd@@IAEHPAV1@II@Z 004be3aa f   nafxcwd:afxinl3.obj
 0001:000bd3bf       ?OnMouseMove@CWnd@@IAEXIVCPoint@@@Z 004be3bf f   nafxcwd:afxinl3.obj
 0001:000bd3d4       ?OnMouseWheel@CWnd@@IAEHIFVCPoint@@@Z 004be3d4 f   nafxcwd:afxinl3.obj
 0001:000bd3e9       ?OnRegisteredMouseWheel@CWnd@@IAEJIJ@Z 004be3e9 f   nafxcwd:afxinl3.obj
 0001:000bd3fe       ?OnRButtonDblClk@CWnd@@IAEXIVCPoint@@@Z 004be3fe f   nafxcwd:afxinl3.obj
 0001:000bd413       ?OnRButtonDown@CWnd@@IAEXIVCPoint@@@Z 004be413 f   nafxcwd:afxinl3.obj
 0001:000bd428       ?OnRButtonUp@CWnd@@IAEXIVCPoint@@@Z 004be428 f   nafxcwd:afxinl3.obj
 0001:000bd43d       ?OnTimer@CWnd@@IAEXI@Z     004be43d f   nafxcwd:afxinl3.obj
 0001:000bd452       ?OnInitMenu@CWnd@@IAEXPAVCMenu@@@Z 004be452 f   nafxcwd:afxinl3.obj
 0001:000bd467       ?OnInitMenuPopup@CWnd@@IAEXPAVCMenu@@IH@Z 004be467 f   nafxcwd:afxinl3.obj
 0001:000bd47c       ?OnAskCbFormatName@CWnd@@IAEXIPAD@Z 004be47c f   nafxcwd:afxinl3.obj
 0001:000bd491       ?OnChangeCbChain@CWnd@@IAEXPAUHWND__@@0@Z 004be491 f   nafxcwd:afxinl3.obj
 0001:000bd4a6       ?OnDestroyClipboard@CWnd@@IAEXXZ 004be4a6 f   nafxcwd:afxinl3.obj
 0001:000bd4b9       ?OnDrawClipboard@CWnd@@IAEXXZ 004be4b9 f   nafxcwd:afxinl3.obj
 0001:000bd4cc       ?OnHScrollClipboard@CWnd@@IAEXPAV1@II@Z 004be4cc f   nafxcwd:afxinl3.obj
 0001:000bd4e1       ?OnPaintClipboard@CWnd@@IAEXPAV1@PAX@Z 004be4e1 f   nafxcwd:afxinl3.obj
 0001:000bd4f6       ?OnRenderAllFormats@CWnd@@IAEXXZ 004be4f6 f   nafxcwd:afxinl3.obj
 0001:000bd509       ?OnRenderFormat@CWnd@@IAEXI@Z 004be509 f   nafxcwd:afxinl3.obj
 0001:000bd51e       ?OnSizeClipboard@CWnd@@IAEXPAV1@PAX@Z 004be51e f   nafxcwd:afxinl3.obj
 0001:000bd533       ?OnVScrollClipboard@CWnd@@IAEXPAV1@II@Z 004be533 f   nafxcwd:afxinl3.obj
 0001:000bd548       ?OnGetDlgCode@CWnd@@IAEIXZ 004be548 f   nafxcwd:afxinl3.obj
 0001:000bd55b       ?OnMDIActivate@CWnd@@IAEXHPAV1@0@Z 004be55b f   nafxcwd:afxinl3.obj
 0001:000bd570       ?OnEnterMenuLoop@CWnd@@IAEXH@Z 004be570 f   nafxcwd:afxinl3.obj
 0001:000bd585       ?OnExitMenuLoop@CWnd@@IAEXH@Z 004be585 f   nafxcwd:afxinl3.obj
 0001:000bd59a       ?OnStyleChanged@CWnd@@IAEXHPAUtagSTYLESTRUCT@@@Z 004be59a f   nafxcwd:afxinl3.obj
 0001:000bd5af       ?OnStyleChanging@CWnd@@IAEXHPAUtagSTYLESTRUCT@@@Z 004be5af f   nafxcwd:afxinl3.obj
 0001:000bd5c4       ?OnSizing@CWnd@@IAEXIPAUtagRECT@@@Z 004be5c4 f   nafxcwd:afxinl3.obj
 0001:000bd5d9       ?OnMoving@CWnd@@IAEXIPAUtagRECT@@@Z 004be5d9 f   nafxcwd:afxinl3.obj
 0001:000bd5ee       ?OnCaptureChanged@CWnd@@IAEXPAV1@@Z 004be5ee f   nafxcwd:afxinl3.obj
 0001:000bd603       ?OnDeviceChange@CWnd@@IAEHIK@Z 004be603 f   nafxcwd:afxinl3.obj
 0001:000bd618       ?DoDataExchange@CWnd@@MAEXPAVCDataExchange@@@Z 004be618 f   nafxcwd:afxinl3.obj
 0001:000bd625       ?BeginModalState@CWnd@@UAEXXZ 004be625 f   nafxcwd:afxinl3.obj
 0001:000bd63f       ?EndModalState@CWnd@@UAEXXZ 004be63f f   nafxcwd:afxinl3.obj
 0001:000bd659       ?DelayUpdateFrameTitle@CFrameWnd@@QAEXXZ 004be659 f   nafxcwd:afxinl3.obj
 0001:000bd679       ?DelayRecalcLayout@CFrameWnd@@QAEXH@Z 004be679 f   nafxcwd:afxinl3.obj
 0001:000bd6a6       ?InModalState@CFrameWnd@@QBEHXZ 004be6a6 f   nafxcwd:afxinl3.obj
 0001:000bd6c2       ?AddControlBar@CFrameWnd@@QAEXPAVCControlBar@@@Z 004be6c2 f   nafxcwd:afxinl3.obj
 0001:000bd6de       ?SetTitle@CFrameWnd@@QAEXPBD@Z 004be6de f   nafxcwd:afxinl3.obj
 0001:000bd6fd       ?GetTitle@CFrameWnd@@QBE?AVCString@@XZ 004be6fd f   nafxcwd:afxinl3.obj
 0001:000bd730       ?Create@CDialog@@QAEHIPAVCWnd@@@Z 004be730 f   nafxcwd:afxinl3.obj
 0001:000bd753       ?MapDialogRect@CDialog@@QBEXPAUtagRECT@@@Z 004be753 f   nafxcwd:afxinl3.obj
 0001:000bd7a2       ?SetHelpID@CDialog@@QAEXI@Z 004be7a2 f   nafxcwd:afxinl3.obj
 0001:000bd7b8       ?NextDlgCtrl@CDialog@@QBEXXZ 004be7b8 f   nafxcwd:afxinl3.obj
 0001:000bd807       ?PrevDlgCtrl@CDialog@@QBEXXZ 004be807 f   nafxcwd:afxinl3.obj
 0001:000bd856       ?GotoDlgCtrl@CDialog@@QAEXPAVCWnd@@@Z 004be856 f   nafxcwd:afxinl3.obj
 0001:000bd8ac       ?SetDefID@CDialog@@QAEXI@Z 004be8ac f   nafxcwd:afxinl3.obj
 0001:000bd902       ?GetDefID@CDialog@@QBEKXZ  004be902 f   nafxcwd:afxinl3.obj
 0001:000bd954       ??0CStatic@@QAE@XZ         004be954 f   nafxcwd:afxinl3.obj
 0001:000bd973       ?SetIcon@CStatic@@QAEPAUHICON__@@PAU2@@Z 004be973 f   nafxcwd:afxinl3.obj
 0001:000bd9c9       ?GetIcon@CStatic@@QBEPAUHICON__@@XZ 004be9c9 f   nafxcwd:afxinl3.obj
 0001:000bda1b       ?SetEnhMetaFile@CStatic@@QAEPAUHENHMETAFILE__@@PAU2@@Z 004bea1b f   nafxcwd:afxinl3.obj
 0001:000bda71       ?GetEnhMetaFileA@CStatic@@QBEPAUHENHMETAFILE__@@XZ 004bea71 f   nafxcwd:afxinl3.obj
 0001:000bdac3       ?SetBitmap@CStatic@@QAEPAUHBITMAP__@@PAU2@@Z 004beac3 f   nafxcwd:afxinl3.obj
 0001:000bdb19       ?GetBitmap@CStatic@@QBEPAUHBITMAP__@@XZ 004beb19 f   nafxcwd:afxinl3.obj
 0001:000bdb6b       ?SetCursor@CStatic@@QAEPAUHICON__@@PAU2@@Z 004beb6b f   nafxcwd:afxinl3.obj
 0001:000bdbc1       ?GetCursor@CStatic@@QAEPAUHICON__@@XZ 004bebc1 f   nafxcwd:afxinl3.obj
 0001:000bdc13       ??0CButton@@QAE@XZ         004bec13 f   nafxcwd:afxinl3.obj
 0001:000bdc32       ?GetState@CButton@@QBEIXZ  004bec32 f   nafxcwd:afxinl3.obj
 0001:000bdc84       ?SetState@CButton@@QAEXH@Z 004bec84 f   nafxcwd:afxinl3.obj
 0001:000bdca9       ?GetCheck@CButton@@QBEHXZ  004beca9 f   nafxcwd:afxinl3.obj
 0001:000bdcfb       ?SetCheck@CButton@@QAEXH@Z 004becfb f   nafxcwd:afxinl3.obj
 0001:000bdd51       ?GetButtonStyle@CButton@@QBEIXZ 004bed51 f   nafxcwd:afxinl3.obj
 0001:000bdda1       ?SetButtonStyle@CButton@@QAEXIH@Z 004beda1 f   nafxcwd:afxinl3.obj
 0001:000bddf9       ?SetIcon@CButton@@QAEPAUHICON__@@PAU2@@Z 004bedf9 f   nafxcwd:afxinl3.obj
 0001:000bde4f       ?GetIcon@CButton@@QBEPAUHICON__@@XZ 004bee4f f   nafxcwd:afxinl3.obj
 0001:000bdea1       ?SetBitmap@CButton@@QAEPAUHBITMAP__@@PAU2@@Z 004beea1 f   nafxcwd:afxinl3.obj
 0001:000bdef7       ?GetBitmap@CButton@@QBEPAUHBITMAP__@@XZ 004beef7 f   nafxcwd:afxinl3.obj
 0001:000bdf49       ?SetCursor@CButton@@QAEPAUHICON__@@PAU2@@Z 004bef49 f   nafxcwd:afxinl3.obj
 0001:000bdf9f       ?GetCursor@CButton@@QAEPAUHICON__@@XZ 004bef9f f   nafxcwd:afxinl3.obj
 0001:000bdff1       ??0CListBox@@QAE@XZ        004beff1 f   nafxcwd:afxinl3.obj
 0001:000be010       ?GetCount@CListBox@@QBEHXZ 004bf010 f   nafxcwd:afxinl3.obj
 0001:000be062       ?GetCurSel@CListBox@@QBEHXZ 004bf062 f   nafxcwd:afxinl3.obj
 0001:000be0b4       ?SetCurSel@CListBox@@QAEHH@Z 004bf0b4 f   nafxcwd:afxinl3.obj
 0001:000be10a       ?GetHorizontalExtent@CListBox@@QBEHXZ 004bf10a f   nafxcwd:afxinl3.obj
 0001:000be15c       ?SetHorizontalExtent@CListBox@@QAEXH@Z 004bf15c f   nafxcwd:afxinl3.obj
 0001:000be1b2       ?GetSelCount@CListBox@@QBEHXZ 004bf1b2 f   nafxcwd:afxinl3.obj
 0001:000be204       ?GetSelItems@CListBox@@QBEHHPAH@Z 004bf204 f   nafxcwd:afxinl3.obj
 0001:000be25c       ?GetTopIndex@CListBox@@QBEHXZ 004bf25c f   nafxcwd:afxinl3.obj
 0001:000be2ae       ?SetTopIndex@CListBox@@QAEHH@Z 004bf2ae f   nafxcwd:afxinl3.obj
 0001:000be304       ?GetItemData@CListBox@@QBEKH@Z 004bf304 f   nafxcwd:afxinl3.obj
 0001:000be35a       ?SetItemData@CListBox@@QAEHHK@Z 004bf35a f   nafxcwd:afxinl3.obj
 0001:000be3b2       ?GetItemDataPtr@CListBox@@QBEPAXH@Z 004bf3b2 f   nafxcwd:afxinl3.obj
 0001:000be408       ?SetItemDataPtr@CListBox@@QAEHHPAX@Z 004bf408 f   nafxcwd:afxinl3.obj
 0001:000be456       ?GetItemRect@CListBox@@QBEHHPAUtagRECT@@@Z 004bf456 f   nafxcwd:afxinl3.obj
 0001:000be4ae       ?GetSel@CListBox@@QBEHH@Z  004bf4ae f   nafxcwd:afxinl3.obj
 0001:000be504       ?SetSel@CListBox@@QAEHHH@Z 004bf504 f   nafxcwd:afxinl3.obj
 0001:000be55c       ?GetText@CListBox@@QBEHHPAD@Z 004bf55c f   nafxcwd:afxinl3.obj
 0001:000be5b4       ?GetTextLen@CListBox@@QBEHH@Z 004bf5b4 f   nafxcwd:afxinl3.obj
 0001:000be60a       ?SetColumnWidth@CListBox@@QAEXH@Z 004bf60a f   nafxcwd:afxinl3.obj
 0001:000be660       ?SetTabStops@CListBox@@QAEHHPAH@Z 004bf660 f   nafxcwd:afxinl3.obj
 0001:000be6b8       ?SetTabStops@CListBox@@QAEXXZ 004bf6b8 f   nafxcwd:afxinl3.obj
 0001:000be728       ?SetTabStops@CListBox@@QAEHABH@Z 004bf728 f   nafxcwd:afxinl3.obj
 0001:000be77e       ?SetItemHeight@CListBox@@QAEHHI@Z 004bf77e f   nafxcwd:afxinl3.obj
 0001:000be7db       ?GetItemHeight@CListBox@@QBEHH@Z 004bf7db f   nafxcwd:afxinl3.obj
 0001:000be831       ?FindStringExact@CListBox@@QBEHHPBD@Z 004bf831 f   nafxcwd:afxinl3.obj
 0001:000be889       ?GetCaretIndex@CListBox@@QBEHXZ 004bf889 f   nafxcwd:afxinl3.obj
 0001:000be8db       ?SetCaretIndex@CListBox@@QAEHHH@Z 004bf8db f   nafxcwd:afxinl3.obj
 0001:000be938       ?AddString@CListBox@@QAEHPBD@Z 004bf938 f   nafxcwd:afxinl3.obj
 0001:000be98e       ?DeleteString@CListBox@@QAEHI@Z 004bf98e f   nafxcwd:afxinl3.obj
 0001:000be9e4       ?InsertString@CListBox@@QAEHHPBD@Z 004bf9e4 f   nafxcwd:afxinl3.obj
 0001:000bea3c       ?ResetContent@CListBox@@QAEXXZ 004bfa3c f   nafxcwd:afxinl3.obj
 0001:000bea8e       ?Dir@CListBox@@QAEHIPBD@Z  004bfa8e f   nafxcwd:afxinl3.obj
 0001:000beae6       ?FindString@CListBox@@QBEHHPBD@Z 004bfae6 f   nafxcwd:afxinl3.obj
 0001:000beb3e       ?SelectString@CListBox@@QAEHHPBD@Z 004bfb3e f   nafxcwd:afxinl3.obj
 0001:000beb96       ?SelItemRange@CListBox@@QAEHHHH@Z 004bfb96 f   nafxcwd:afxinl3.obj
 0001:000bec1b       ?SetAnchorIndex@CListBox@@QAEXH@Z 004bfc1b f   nafxcwd:afxinl3.obj
 0001:000bec71       ?GetAnchorIndex@CListBox@@QBEHXZ 004bfc71 f   nafxcwd:afxinl3.obj
 0001:000becc3       ?GetLocale@CListBox@@QBEKXZ 004bfcc3 f   nafxcwd:afxinl3.obj
 0001:000bed15       ?SetLocale@CListBox@@QAEKK@Z 004bfd15 f   nafxcwd:afxinl3.obj
 0001:000bed6b       ?InitStorage@CListBox@@QAEHHI@Z 004bfd6b f   nafxcwd:afxinl3.obj
 0001:000bedc3       ??0CCheckListBox@@QAE@XZ   004bfdc3 f   nafxcwd:afxinl3.obj
 0001:000bedf6       ?GetCheckStyle@CCheckListBox@@QAEIXZ 004bfdf6 f   nafxcwd:afxinl3.obj
 0001:000bee07       ??0CComboBox@@QAE@XZ       004bfe07 f   nafxcwd:afxinl3.obj
 0001:000bee26       ?GetCount@CComboBox@@QBEHXZ 004bfe26 f   nafxcwd:afxinl3.obj
 0001:000bee78       ?GetCurSel@CComboBox@@QBEHXZ 004bfe78 f   nafxcwd:afxinl3.obj
 0001:000beeca       ?SetCurSel@CComboBox@@QAEHH@Z 004bfeca f   nafxcwd:afxinl3.obj
 0001:000bef20       ?GetEditSel@CComboBox@@QBEKXZ 004bff20 f   nafxcwd:afxinl3.obj
 0001:000bef72       ?LimitText@CComboBox@@QAEHH@Z 004bff72 f   nafxcwd:afxinl3.obj
 0001:000befc8       ?SetEditSel@CComboBox@@QAEHHH@Z 004bffc8 f   nafxcwd:afxinl3.obj
 0001:000bf031       ?GetItemData@CComboBox@@QBEKH@Z 004c0031 f   nafxcwd:afxinl3.obj
 0001:000bf087       ?SetItemData@CComboBox@@QAEHHK@Z 004c0087 f   nafxcwd:afxinl3.obj
 0001:000bf0df       ?GetItemDataPtr@CComboBox@@QBEPAXH@Z 004c00df f   nafxcwd:afxinl3.obj
 0001:000bf129       ?SetItemDataPtr@CComboBox@@QAEHHPAX@Z 004c0129 f   nafxcwd:afxinl3.obj
 0001:000bf177       ?GetLBText@CComboBox@@QBEHHPAD@Z 004c0177 f   nafxcwd:afxinl3.obj
 0001:000bf1cf       ?GetLBTextLen@CComboBox@@QBEHH@Z 004c01cf f   nafxcwd:afxinl3.obj
 0001:000bf225       ?ShowDropDown@CComboBox@@QAEXH@Z 004c0225 f   nafxcwd:afxinl3.obj
 0001:000bf27b       ?AddString@CComboBox@@QAEHPBD@Z 004c027b f   nafxcwd:afxinl3.obj
 0001:000bf2d1       ?DeleteString@CComboBox@@QAEHI@Z 004c02d1 f   nafxcwd:afxinl3.obj
 0001:000bf327       ?InsertString@CComboBox@@QAEHHPBD@Z 004c0327 f   nafxcwd:afxinl3.obj
 0001:000bf37f       ?ResetContent@CComboBox@@QAEXXZ 004c037f f   nafxcwd:afxinl3.obj
 0001:000bf3d1       ?Dir@CComboBox@@QAEHIPBD@Z 004c03d1 f   nafxcwd:afxinl3.obj
 0001:000bf429       ?FindString@CComboBox@@QBEHHPBD@Z 004c0429 f   nafxcwd:afxinl3.obj
 0001:000bf481       ?SelectString@CComboBox@@QAEHHPBD@Z 004c0481 f   nafxcwd:afxinl3.obj
 0001:000bf4d9       ?Clear@CComboBox@@QAEXXZ   004c04d9 f   nafxcwd:afxinl3.obj
 0001:000bf52b       ?Copy@CComboBox@@QAEXXZ    004c052b f   nafxcwd:afxinl3.obj
 0001:000bf57d       ?Cut@CComboBox@@QAEXXZ     004c057d f   nafxcwd:afxinl3.obj
 0001:000bf5cf       ?Paste@CComboBox@@QAEXXZ   004c05cf f   nafxcwd:afxinl3.obj
 0001:000bf621       ?SetItemHeight@CComboBox@@QAEHHI@Z 004c0621 f   nafxcwd:afxinl3.obj
 0001:000bf67e       ?GetItemHeight@CComboBox@@QBEHH@Z 004c067e f   nafxcwd:afxinl3.obj
 0001:000bf6d4       ?FindStringExact@CComboBox@@QBEHHPBD@Z 004c06d4 f   nafxcwd:afxinl3.obj
 0001:000bf72c       ?SetExtendedUI@CComboBox@@QAEHH@Z 004c072c f   nafxcwd:afxinl3.obj
 0001:000bf782       ?GetExtendedUI@CComboBox@@QBEHXZ 004c0782 f   nafxcwd:afxinl3.obj
 0001:000bf7d4       ?GetDroppedControlRect@CComboBox@@QBEXPAUtagRECT@@@Z 004c07d4 f   nafxcwd:afxinl3.obj
 0001:000bf82a       ?GetDroppedState@CComboBox@@QBEHXZ 004c082a f   nafxcwd:afxinl3.obj
 0001:000bf87c       ?GetLocale@CComboBox@@QBEKXZ 004c087c f   nafxcwd:afxinl3.obj
 0001:000bf8ce       ?SetLocale@CComboBox@@QAEKK@Z 004c08ce f   nafxcwd:afxinl3.obj
 0001:000bf924       ?GetTopIndex@CComboBox@@QBEHXZ 004c0924 f   nafxcwd:afxinl3.obj
 0001:000bf976       ?SetTopIndex@CComboBox@@QAEHH@Z 004c0976 f   nafxcwd:afxinl3.obj
 0001:000bf9cc       ?InitStorage@CComboBox@@QAEHHI@Z 004c09cc f   nafxcwd:afxinl3.obj
 0001:000bfa24       ?SetHorizontalExtent@CComboBox@@QAEXI@Z 004c0a24 f   nafxcwd:afxinl3.obj
 0001:000bfa7a       ?GetHorizontalExtent@CComboBox@@QBEIXZ 004c0a7a f   nafxcwd:afxinl3.obj
 0001:000bfacc       ?SetDroppedWidth@CComboBox@@QAEHI@Z 004c0acc f   nafxcwd:afxinl3.obj
 0001:000bfb22       ?GetDroppedWidth@CComboBox@@QBEHXZ 004c0b22 f   nafxcwd:afxinl3.obj
 0001:000bfb74       ??0CEdit@@QAE@XZ           004c0b74 f   nafxcwd:afxinl3.obj
 0001:000bfb93       ?CanUndo@CEdit@@QBEHXZ     004c0b93 f   nafxcwd:afxinl3.obj
 0001:000bfbe5       ?GetLineCount@CEdit@@QBEHXZ 004c0be5 f   nafxcwd:afxinl3.obj
 0001:000bfc37       ?GetModify@CEdit@@QBEHXZ   004c0c37 f   nafxcwd:afxinl3.obj
 0001:000bfc89       ?SetModify@CEdit@@QAEXH@Z  004c0c89 f   nafxcwd:afxinl3.obj
 0001:000bfcdf       ?GetRect@CEdit@@QBEXPAUtagRECT@@@Z 004c0cdf f   nafxcwd:afxinl3.obj
 0001:000bfd35       ?GetSel@CEdit@@QBEXAAH0@Z  004c0d35 f   nafxcwd:afxinl3.obj
 0001:000bfd8d       ?GetSel@CEdit@@QBEKXZ      004c0d8d f   nafxcwd:afxinl3.obj
 0001:000bfddf       ?GetHandle@CEdit@@QBEPAXXZ 004c0ddf f   nafxcwd:afxinl3.obj
 0001:000bfe31       ?SetHandle@CEdit@@QAEXPAX@Z 004c0e31 f   nafxcwd:afxinl3.obj
 0001:000bfe87       ?GetLine@CEdit@@QBEHHPAD@Z 004c0e87 f   nafxcwd:afxinl3.obj
 0001:000bfedf       ?GetLine@CEdit@@QBEHHPADH@Z 004c0edf f   nafxcwd:afxinl3.obj
 0001:000bff41       ?EmptyUndoBuffer@CEdit@@QAEXXZ 004c0f41 f   nafxcwd:afxinl3.obj
 0001:000bff93       ?FmtLines@CEdit@@QAEHH@Z   004c0f93 f   nafxcwd:afxinl3.obj
 0001:000bffe9       ?LimitText@CEdit@@QAEXH@Z  004c0fe9 f   nafxcwd:afxinl3.obj
 0001:000c003f       ?LineFromChar@CEdit@@QBEHH@Z 004c103f f   nafxcwd:afxinl3.obj
 0001:000c0095       ?LineIndex@CEdit@@QBEHH@Z  004c1095 f   nafxcwd:afxinl3.obj
 0001:000c00eb       ?LineLength@CEdit@@QBEHH@Z 004c10eb f   nafxcwd:afxinl3.obj
 0001:000c0141       ?LineScroll@CEdit@@QAEXHH@Z 004c1141 f   nafxcwd:afxinl3.obj
 0001:000c0199       ?ReplaceSel@CEdit@@QAEXPBDH@Z 004c1199 f   nafxcwd:afxinl3.obj
 0001:000c01f1       ?SetPasswordChar@CEdit@@QAEXD@Z 004c11f1 f   nafxcwd:afxinl3.obj
 0001:000c0248       ?SetRect@CEdit@@QAEXPBUtagRECT@@@Z 004c1248 f   nafxcwd:afxinl3.obj
 0001:000c029e       ?SetRectNP@CEdit@@QAEXPBUtagRECT@@@Z 004c129e f   nafxcwd:afxinl3.obj
 0001:000c02f4       ?SetSel@CEdit@@QAEXKH@Z    004c12f4 f   nafxcwd:afxinl3.obj
 0001:000c037b       ?SetSel@CEdit@@QAEXHHH@Z   004c137b f   nafxcwd:afxinl3.obj
 0001:000c03ef       ?SetTabStops@CEdit@@QAEHHPAH@Z 004c13ef f   nafxcwd:afxinl3.obj
 0001:000c0447       ?SetTabStops@CEdit@@QAEXXZ 004c1447 f   nafxcwd:afxinl3.obj
 0001:000c04b7       ?SetTabStops@CEdit@@QAEHABH@Z 004c14b7 f   nafxcwd:afxinl3.obj
 0001:000c050d       ?Undo@CEdit@@QAEHXZ        004c150d f   nafxcwd:afxinl3.obj
 0001:000c055f       ?Clear@CEdit@@QAEXXZ       004c155f f   nafxcwd:afxinl3.obj
 0001:000c05b1       ?Copy@CEdit@@QAEXXZ        004c15b1 f   nafxcwd:afxinl3.obj
 0001:000c0603       ?Cut@CEdit@@QAEXXZ         004c1603 f   nafxcwd:afxinl3.obj
 0001:000c0655       ?Paste@CEdit@@QAEXXZ       004c1655 f   nafxcwd:afxinl3.obj
 0001:000c06a7       ?SetReadOnly@CEdit@@QAEHH@Z 004c16a7 f   nafxcwd:afxinl3.obj
 0001:000c06fd       ?GetFirstVisibleLine@CEdit@@QBEHXZ 004c16fd f   nafxcwd:afxinl3.obj
 0001:000c074f       ?GetPasswordChar@CEdit@@QBEDXZ 004c174f f   nafxcwd:afxinl3.obj
 0001:000c07a1       ?SetMargins@CEdit@@QAEXII@Z 004c17a1 f   nafxcwd:afxinl3.obj
 0001:000c080a       ?GetMargins@CEdit@@QBEKXZ  004c180a f   nafxcwd:afxinl3.obj
 0001:000c085c       ?SetLimitText@CEdit@@QAEXI@Z 004c185c f   nafxcwd:afxinl3.obj
 0001:000c08b2       ?GetLimitText@CEdit@@QBEIXZ 004c18b2 f   nafxcwd:afxinl3.obj
 0001:000c0904       ?PosFromChar@CEdit@@QBE?AVCPoint@@I@Z 004c1904 f   nafxcwd:afxinl3.obj
 0001:000c0975       ?CharFromPos@CEdit@@QBEHVCPoint@@@Z 004c1975 f   nafxcwd:afxinl3.obj
 0001:000c09de       ??0CScrollBar@@QAE@XZ      004c19de f   nafxcwd:afxinl3.obj
 0001:000c09fd       ?GetScrollPos@CScrollBar@@QBEHXZ 004c19fd f   nafxcwd:afxinl3.obj
 0001:000c0a48       ?SetScrollPos@CScrollBar@@QAEHHH@Z 004c1a48 f   nafxcwd:afxinl3.obj
 0001:000c0a9d       ?GetScrollRange@CScrollBar@@QBEXPAH0@Z 004c1a9d f   nafxcwd:afxinl3.obj
 0001:000c0af2       ?SetScrollRange@CScrollBar@@QAEXHHH@Z 004c1af2 f   nafxcwd:afxinl3.obj
 0001:000c0b4b       ?ShowScrollBar@CScrollBar@@QAEXH@Z 004c1b4b f   nafxcwd:afxinl3.obj
 0001:000c0b9c       ?EnableScrollBar@CScrollBar@@QAEHI@Z 004c1b9c f   nafxcwd:afxinl3.obj
 0001:000c0bed       ?SetScrollInfo@CScrollBar@@QAEHPAUtagSCROLLINFO@@H@Z 004c1bed f   nafxcwd:afxinl3.obj
 0001:000c0c0c       ?GetScrollInfo@CScrollBar@@QAEHPAUtagSCROLLINFO@@I@Z 004c1c0c f   nafxcwd:afxinl3.obj
 0001:000c0c2b       ?GetScrollLimit@CScrollBar@@QAEHXZ 004c1c2b f   nafxcwd:afxinl3.obj
 0001:000c0c40       ?MDIActivate@CMDIFrameWnd@@QAEXPAVCWnd@@@Z 004c1c40 f   nafxcwd:afxinl3.obj
 0001:000c0c9c       ?MDIIconArrange@CMDIFrameWnd@@QAEXXZ 004c1c9c f   nafxcwd:afxinl3.obj
 0001:000c0cf1       ?MDIMaximize@CMDIFrameWnd@@QAEXPAVCWnd@@@Z 004c1cf1 f   nafxcwd:afxinl3.obj
 0001:000c0d4d       ?MDINext@CMDIFrameWnd@@QAEXXZ 004c1d4d f   nafxcwd:afxinl3.obj
 0001:000c0da2       ?MDIRestore@CMDIFrameWnd@@QAEXPAVCWnd@@@Z 004c1da2 f   nafxcwd:afxinl3.obj
 0001:000c0dfe       ?MDISetMenu@CMDIFrameWnd@@QAEPAVCMenu@@PAV2@0@Z 004c1dfe f   nafxcwd:afxinl3.obj
 0001:000c0e69       ?MDITile@CMDIFrameWnd@@QAEXXZ 004c1e69 f   nafxcwd:afxinl3.obj
 0001:000c0ebe       ?MDICascade@CMDIFrameWnd@@QAEXXZ 004c1ebe f   nafxcwd:afxinl3.obj
 0001:000c0f13       ?MDICascade@CMDIFrameWnd@@QAEXH@Z 004c1f13 f   nafxcwd:afxinl3.obj
 0001:000c0f6c       ?MDITile@CMDIFrameWnd@@QAEXH@Z 004c1f6c f   nafxcwd:afxinl3.obj
 0001:000c0fc5       ?MDIDestroy@CMDIChildWnd@@QAEXXZ 004c1fc5 f   nafxcwd:afxinl3.obj
 0001:000c1021       ?MDIActivate@CMDIChildWnd@@QAEXXZ 004c2021 f   nafxcwd:afxinl3.obj
 0001:000c107d       ?MDIMaximize@CMDIChildWnd@@QAEXXZ 004c207d f   nafxcwd:afxinl3.obj
 0001:000c10d9       ?MDIRestore@CMDIChildWnd@@QAEXXZ 004c20d9 f   nafxcwd:afxinl3.obj
 0001:000c1135       ?GetDocument@CView@@QBEPAVCDocument@@XZ 004c2135 f   nafxcwd:afxinl3.obj
 0001:000c116c       ?GetTotalSize@CScrollView@@QBE?AVCSize@@XZ 004c216c f   nafxcwd:afxinl3.obj
 0001:000c11b3       ?GetTitle@CDocument@@QBEABVCString@@XZ 004c21b3 f   nafxcwd:afxinl3.obj
 0001:000c11ea       ?GetPathName@CDocument@@QBEABVCString@@XZ 004c21ea f   nafxcwd:afxinl3.obj
 0001:000c1221       ?GetDocTemplate@CDocument@@QBEPAVCDocTemplate@@XZ 004c2221 f   nafxcwd:afxinl3.obj
 0001:000c1258       ?IsModified@CDocument@@UAEHXZ 004c2258 f   nafxcwd:afxinl3.obj
 0001:000c128f       ?SetModifiedFlag@CDocument@@UAEXH@Z 004c228f f   nafxcwd:afxinl3.obj
 0001:000c12cb       ??BCWinThread@@QBEPAXXZ    004c22cb f   nafxcwd:afxinl3.obj
 0001:000c12f3       ?SetThreadPriority@CWinThread@@QAEHH@Z 004c22f3 f   nafxcwd:afxinl3.obj
 0001:000c133a       ?GetThreadPriority@CWinThread@@QAEHXZ 004c233a f   nafxcwd:afxinl3.obj
 0001:000c137b       ?ResumeThread@CWinThread@@QAEKXZ 004c237b f   nafxcwd:afxinl3.obj
 0001:000c13bc       ?SuspendThread@CWinThread@@QAEKXZ 004c23bc f   nafxcwd:afxinl3.obj
 0001:000c13fd       ?PostThreadMessageA@CWinThread@@QAEHIIJ@Z 004c23fd f   nafxcwd:afxinl3.obj
 0001:000c144c       ?LoadCursorA@CWinApp@@QBEPAUHICON__@@PBD@Z 004c244c f   nafxcwd:afxinl3.obj
 0001:000c1469       ?LoadCursorA@CWinApp@@QBEPAUHICON__@@I@Z 004c2469 f   nafxcwd:afxinl3.obj
 0001:000c148b       ?LoadStandardCursor@CWinApp@@QBEPAUHICON__@@PBD@Z 004c248b f   nafxcwd:afxinl3.obj
 0001:000c14a4       ?LoadOEMCursor@CWinApp@@QBEPAUHICON__@@I@Z 004c24a4 f   nafxcwd:afxinl3.obj
 0001:000c14c2       ?LoadIconA@CWinApp@@QBEPAUHICON__@@PBD@Z 004c24c2 f   nafxcwd:afxinl3.obj
 0001:000c14df       ?LoadIconA@CWinApp@@QBEPAUHICON__@@I@Z 004c24df f   nafxcwd:afxinl3.obj
 0001:000c1501       ?LoadStandardIcon@CWinApp@@QBEPAUHICON__@@PBD@Z 004c2501 f   nafxcwd:afxinl3.obj
 0001:000c151a       ?LoadOEMIcon@CWinApp@@QBEPAUHICON__@@I@Z 004c251a f   nafxcwd:afxinl3.obj
 0001:000c1538       ??0CWaitCursor@@QAE@XZ     004c2538 f   nafxcwd:afxinl3.obj
 0001:000c1552       ??1CWaitCursor@@QAE@XZ     004c2552 f   nafxcwd:afxinl3.obj
 0001:000c1569       ?Restore@CWaitCursor@@QAEXXZ 004c2569 f   nafxcwd:afxinl3.obj
 0001:000c1580       ?CloseWindow@CWnd@@QAEXXZ  004c2580 f   nafxcwd:afxinl3.obj
 0001:000c15c9       ?OpenIcon@CWnd@@QAEHXZ     004c25c9 f   nafxcwd:afxinl3.obj
 0001:000c1620       ??_ECStatic@@UAEPAXI@Z     004c2620 f i nafxcwd:afxinl3.obj
 0001:000c1620       ??_GCStatic@@UAEPAXI@Z     004c2620 f i nafxcwd:afxinl3.obj
 0001:000c1650       ??_GCButton@@UAEPAXI@Z     004c2650 f i nafxcwd:afxinl3.obj
 0001:000c1650       ??_ECButton@@UAEPAXI@Z     004c2650 f i nafxcwd:afxinl3.obj
 0001:000c1680       ??_ECListBox@@UAEPAXI@Z    004c2680 f i nafxcwd:afxinl3.obj
 0001:000c1680       ??_GCListBox@@UAEPAXI@Z    004c2680 f i nafxcwd:afxinl3.obj
 0001:000c16b0       ??_GCCheckListBox@@UAEPAXI@Z 004c26b0 f i nafxcwd:afxinl3.obj
 0001:000c16b0       ??_ECCheckListBox@@UAEPAXI@Z 004c26b0 f i nafxcwd:afxinl3.obj
 0001:000c16e0       ??1CCheckListBox@@UAE@XZ   004c26e0 f i nafxcwd:afxinl3.obj
 0001:000c1700       ??_ECComboBox@@UAEPAXI@Z   004c2700 f i nafxcwd:afxinl3.obj
 0001:000c1700       ??_GCComboBox@@UAEPAXI@Z   004c2700 f i nafxcwd:afxinl3.obj
 0001:000c1730       ??_GCEdit@@UAEPAXI@Z       004c2730 f i nafxcwd:afxinl3.obj
 0001:000c1730       ??_ECEdit@@UAEPAXI@Z       004c2730 f i nafxcwd:afxinl3.obj
 0001:000c1760       ??_ECScrollBar@@UAEPAXI@Z  004c2760 f i nafxcwd:afxinl3.obj
 0001:000c1760       ??_GCScrollBar@@UAEPAXI@Z  004c2760 f i nafxcwd:afxinl3.obj
 0001:000c5a60       ?CreateObject@CWnd@@SGPAVCObject@@XZ 004c6a60 f   nafxcwd:wincore.obj
 0001:000c5ace       ?GetRuntimeClass@CWnd@@UBEPAUCRuntimeClass@@XZ 004c6ace f   nafxcwd:wincore.obj
 0001:000c5ade       ?CreateObject@CTempWnd@@SGPAVCObject@@XZ 004c6ade f   nafxcwd:wincore.obj
 0001:000c5b4c       ?GetRuntimeClass@CTempWnd@@UBEPAUCRuntimeClass@@XZ 004c6b4c f   nafxcwd:wincore.obj
 0001:000c5b60       ??0CTempWnd@@QAE@XZ        004c6b60 f i nafxcwd:wincore.obj
 0001:000c5b80       ??_ECTempWnd@@UAEPAXI@Z    004c6b80 f i nafxcwd:wincore.obj
 0001:000c5b80       ??_GCTempWnd@@UAEPAXI@Z    004c6b80 f i nafxcwd:wincore.obj
 0001:000c5bb0       ??1CTempWnd@@UAE@XZ        004c6bb0 f i nafxcwd:wincore.obj
 0001:000c5bd0       ??B?$CProcessLocal@V_AFX_WIN_STATE@@@@QAEPAV_AFX_WIN_STATE@@XZ 004c6bd0 f i nafxcwd:wincore.obj
 0001:000c5bf0       ?GetData@?$CThreadLocal@V_AFX_THREAD_STATE@@@@QAEPAV_AFX_THREAD_STATE@@XZ 004c6bf0 f i nafxcwd:wincore.obj
 0001:000c5c40       ??C?$CThreadLocal@V_AFX_THREAD_STATE@@@@QAEPAV_AFX_THREAD_STATE@@XZ 004c6c40 f i nafxcwd:wincore.obj
 0001:000c5c60       ?GetDataNA@?$CProcessLocal@V_AFX_CTL3D_STATE@@@@QAEPAV_AFX_CTL3D_STATE@@XZ 004c6c60 f i nafxcwd:wincore.obj
 0001:000c5c70       ??B?$CProcessLocal@V_AFX_CTL3D_STATE@@@@QAEPAV_AFX_CTL3D_STATE@@XZ 004c6c70 f i nafxcwd:wincore.obj
 0001:000c5c90       ?GetData@?$CProcessLocal@V_AFX_WIN_STATE@@@@QAEPAV_AFX_WIN_STATE@@XZ 004c6c90 f i nafxcwd:wincore.obj
 0001:000c5ce0       ?CreateObject@?$CThreadLocal@V_AFX_THREAD_STATE@@@@SGPAVCNoTrackObject@@XZ 004c6ce0 f i nafxcwd:wincore.obj
 0001:000c5d50       ?GetData@?$CProcessLocal@V_AFX_CTL3D_STATE@@@@QAEPAV_AFX_CTL3D_STATE@@XZ 004c6d50 f i nafxcwd:wincore.obj
 0001:000c5da0       ?CreateObject@?$CProcessLocal@V_AFX_WIN_STATE@@@@SGPAVCNoTrackObject@@XZ 004c6da0 f i nafxcwd:wincore.obj
 0001:000c5e10       ?CreateObject@?$CProcessLocal@V_AFX_CTL3D_STATE@@@@SGPAVCNoTrackObject@@XZ 004c6e10 f i nafxcwd:wincore.obj
 0001:000c5e80       ??0_AFX_CTL3D_STATE@@QAE@XZ 004c6e80 f i nafxcwd:wincore.obj
 0001:000c5ea0       ??_G_AFX_CTL3D_STATE@@UAEPAXI@Z 004c6ea0 f i nafxcwd:wincore.obj
 0001:000c5ea0       ??_E_AFX_CTL3D_STATE@@UAEPAXI@Z 004c6ea0 f i nafxcwd:wincore.obj
 0001:000c5ed0       ??0CNoTrackObject@@QAE@XZ  004c6ed0 f i nafxcwd:wincore.obj
 0001:000c5ef0       ?GetRuntimeClass@CResourceException@@UBEPAUCRuntimeClass@@XZ 004c6ef0 f   nafxcwd:wingdi.obj
 0001:000c5f46       ?GetRuntimeClass@CUserException@@UBEPAUCRuntimeClass@@XZ 004c6f46 f   nafxcwd:wingdi.obj
 0001:000c5f9c       ?CreateObject@CDC@@SGPAVCObject@@XZ 004c6f9c f   nafxcwd:wingdi.obj
 0001:000c6000       ?GetRuntimeClass@CDC@@UBEPAUCRuntimeClass@@XZ 004c7000 f   nafxcwd:wingdi.obj
 0001:000c6010       ?GetRuntimeClass@CClientDC@@UBEPAUCRuntimeClass@@XZ 004c7010 f   nafxcwd:wingdi.obj
 0001:000c6020       ?GetRuntimeClass@CWindowDC@@UBEPAUCRuntimeClass@@XZ 004c7020 f   nafxcwd:wingdi.obj
 0001:000c6030       ?GetRuntimeClass@CPaintDC@@UBEPAUCRuntimeClass@@XZ 004c7030 f   nafxcwd:wingdi.obj
 0001:000c6040       ?CreateObject@CGdiObject@@SGPAVCObject@@XZ 004c7040 f   nafxcwd:wingdi.obj
 0001:000c60a4       ?GetRuntimeClass@CGdiObject@@UBEPAUCRuntimeClass@@XZ 004c70a4 f   nafxcwd:wingdi.obj
 0001:000c60b4       ?GetRuntimeClass@CPen@@UBEPAUCRuntimeClass@@XZ 004c70b4 f   nafxcwd:wingdi.obj
 0001:000c60c4       ?GetRuntimeClass@CBrush@@UBEPAUCRuntimeClass@@XZ 004c70c4 f   nafxcwd:wingdi.obj
 0001:000c60d4       ?GetRuntimeClass@CFont@@UBEPAUCRuntimeClass@@XZ 004c70d4 f   nafxcwd:wingdi.obj
 0001:000c60e4       ?GetRuntimeClass@CBitmap@@UBEPAUCRuntimeClass@@XZ 004c70e4 f   nafxcwd:wingdi.obj
 0001:000c60f4       ?GetRuntimeClass@CPalette@@UBEPAUCRuntimeClass@@XZ 004c70f4 f   nafxcwd:wingdi.obj
 0001:000c6104       ?GetRuntimeClass@CRgn@@UBEPAUCRuntimeClass@@XZ 004c7104 f   nafxcwd:wingdi.obj
 0001:000c6114       ?CreateObject@CTempDC@@SGPAVCObject@@XZ 004c7114 f   nafxcwd:wingdi.obj
 0001:000c6178       ?GetRuntimeClass@CTempDC@@UBEPAUCRuntimeClass@@XZ 004c7178 f   nafxcwd:wingdi.obj
 0001:000c6188       ?CreateObject@CTempGdiObject@@SGPAVCObject@@XZ 004c7188 f   nafxcwd:wingdi.obj
 0001:000c61ec       ?GetRuntimeClass@CTempGdiObject@@UBEPAUCRuntimeClass@@XZ 004c71ec f   nafxcwd:wingdi.obj
 0001:000c6200       ??0CTempDC@@QAE@XZ         004c7200 f i nafxcwd:wingdi.obj
 0001:000c6220       ??_ECTempDC@@UAEPAXI@Z     004c7220 f i nafxcwd:wingdi.obj
 0001:000c6220       ??_GCTempDC@@UAEPAXI@Z     004c7220 f i nafxcwd:wingdi.obj
 0001:000c6250       ??1CTempDC@@UAE@XZ         004c7250 f i nafxcwd:wingdi.obj
 0001:000c6270       ??0CTempGdiObject@@QAE@XZ  004c7270 f i nafxcwd:wingdi.obj
 0001:000c6290       ??_GCTempGdiObject@@UAEPAXI@Z 004c7290 f i nafxcwd:wingdi.obj
 0001:000c6290       ??_ECTempGdiObject@@UAEPAXI@Z 004c7290 f i nafxcwd:wingdi.obj
 0001:000c62c0       ??1CTempGdiObject@@UAE@XZ  004c72c0 f i nafxcwd:wingdi.obj
 0001:000c62e0       ?_AfxLoadDotBitmap@@YGXXZ  004c72e0 f   nafxcwd:cmdtarg.obj
 0001:000c64aa       ?Dump@CCmdTarget@@UBEXAAVCDumpContext@@@Z 004c74aa f   nafxcwd:cmdtarg.obj
 0001:000c658e       ?AssertValid@CCmdTarget@@UBEXXZ 004c758e f   nafxcwd:cmdtarg.obj
 0001:000c65a1       ?GetRuntimeClass@CCmdTarget@@UBEPAUCRuntimeClass@@XZ 004c75a1 f   nafxcwd:cmdtarg.obj
 0001:000c65c0       ??0_AFX_WIN_STATE@@QAE@XZ  004c75c0 f   nafxcwd:appcore.obj
 0001:000c65df       ??0CWinApp@@QAE@PBD@Z      004c75df f   nafxcwd:appcore.obj
 0001:000c680f       ?InitApplication@CWinApp@@UAEHXZ 004c780f f   nafxcwd:appcore.obj
 0001:000c687e       ?InitInstance@CWinApp@@UAEHXZ 004c787e f   nafxcwd:appcore.obj
 0001:000c688e       ?LoadStdProfileSettings@CWinApp@@IAEXI@Z 004c788e f   nafxcwd:appcore.obj
 0001:000c698e       ?ParseCommandLine@CWinApp@@QAEXAAVCCommandLineInfo@@@Z 004c798e f   nafxcwd:appcore.obj
 0001:000c6a22       ??0CCommandLineInfo@@QAE@XZ 004c7a22 f   nafxcwd:appcore.obj
 0001:000c6ace       ??1CCommandLineInfo@@UAE@XZ 004c7ace f   nafxcwd:appcore.obj
 0001:000c6b4f       ?ParseParam@CCommandLineInfo@@UAEXPBDHH@Z 004c7b4f f   nafxcwd:appcore.obj
 0001:000c6baf       ?ParseParamFlag@CCommandLineInfo@@IAEXPBD@Z 004c7baf f   nafxcwd:appcore.obj
 0001:000c6cb9       ?ParseParamNotFlag@CCommandLineInfo@@IAEXPBD@Z 004c7cb9 f   nafxcwd:appcore.obj
 0001:000c6d5f       ?ParseLast@CCommandLineInfo@@IAEXH@Z 004c7d5f f   nafxcwd:appcore.obj
 0001:000c6dc1       ??1CWinApp@@UAE@XZ         004c7dc1 f   nafxcwd:appcore.obj
 0001:000c7064       ?SaveStdProfileSettings@CWinApp@@IAEXXZ 004c8064 f   nafxcwd:appcore.obj
 0001:000c70cd       ?ExitInstance@CWinApp@@UAEHXZ 004c80cd f   nafxcwd:appcore.obj
 0001:000c7152       ?GetRuntimeClass@CWinApp@@UBEPAUCRuntimeClass@@XZ 004c8152 f   nafxcwd:appcore.obj
 0001:000c71a0       ??_G_AFX_WIN_STATE@@UAEPAXI@Z 004c81a0 f i nafxcwd:appcore.obj
 0001:000c71a0       ??_E_AFX_WIN_STATE@@UAEPAXI@Z 004c81a0 f i nafxcwd:appcore.obj
 0001:000c71d0       ??_ECWinApp@@UAEPAXI@Z     004c81d0 f i nafxcwd:appcore.obj
 0001:000c71d0       ??_GCWinApp@@UAEPAXI@Z     004c81d0 f i nafxcwd:appcore.obj
 0001:000c7200       ??_ECCommandLineInfo@@UAEPAXI@Z 004c8200 f i nafxcwd:appcore.obj
 0001:000c7200       ??_GCCommandLineInfo@@UAEPAXI@Z 004c8200 f i nafxcwd:appcore.obj
 0001:000c7230       ??1?$CProcessLocal@V_AFX_WIN_STATE@@@@QAE@XZ 004c8230 f i nafxcwd:appcore.obj
 0001:000c7250       ??B?$CThreadLocal@VAFX_MODULE_THREAD_STATE@@@@QAEPAVAFX_MODULE_THREAD_STATE@@XZ 004c8250 f i nafxcwd:appcore.obj
 0001:000c7270       ?GetData@?$CThreadLocal@VAFX_MODULE_THREAD_STATE@@@@QAEPAVAFX_MODULE_THREAD_STATE@@XZ 004c8270 f i nafxcwd:appcore.obj
 0001:000c72c0       ?CreateObject@?$CThreadLocal@VAFX_MODULE_THREAD_STATE@@@@SGPAVCNoTrackObject@@XZ 004c82c0 f i nafxcwd:appcore.obj
 0001:000c7330       ??0CWinThread@@QAE@P6AIPAX@Z0@Z 004c8330 f   nafxcwd:thrdcore.obj
 0001:000c73a3       ??0CWinThread@@QAE@XZ      004c83a3 f   nafxcwd:thrdcore.obj
 0001:000c7416       ?CommonConstruct@CWinThread@@QAEXXZ 004c8416 f   nafxcwd:thrdcore.obj
 0001:000c7492       ?GetRuntimeClass@CWinThread@@UBEPAUCRuntimeClass@@XZ 004c8492 f   nafxcwd:thrdcore.obj
 0001:000c74b0       ??_ECWinThread@@UAEPAXI@Z  004c84b0 f i nafxcwd:thrdcore.obj
 0001:000c74b0       ??_GCWinThread@@UAEPAXI@Z  004c84b0 f i nafxcwd:thrdcore.obj
 0001:000c74e0       ??B?$CTypedSimpleList@PAVCFrameWnd@@@@QAEPAVCFrameWnd@@XZ 004c84e0 f i nafxcwd:thrdcore.obj
 0001:000c7500       ?GetDataNA@?$CThreadLocal@V_AFX_THREAD_STATE@@@@QAEPAV_AFX_THREAD_STATE@@XZ 004c8500 f i nafxcwd:thrdcore.obj
 0001:000c7520       ??B?$CThreadLocal@V_AFX_CTL3D_THREAD@@@@QAEPAV_AFX_CTL3D_THREAD@@XZ 004c8520 f i nafxcwd:thrdcore.obj
 0001:000c7540       ?GetData@?$CThreadLocal@V_AFX_CTL3D_THREAD@@@@QAEPAV_AFX_CTL3D_THREAD@@XZ 004c8540 f i nafxcwd:thrdcore.obj
 0001:000c7590       ?CreateObject@?$CThreadLocal@V_AFX_CTL3D_THREAD@@@@SGPAVCNoTrackObject@@XZ 004c8590 f i nafxcwd:thrdcore.obj
 0001:000c7600       ??0_AFX_CTL3D_THREAD@@QAE@XZ 004c8600 f i nafxcwd:thrdcore.obj
 0001:000c7620       ??_E_AFX_CTL3D_THREAD@@UAEPAXI@Z 004c8620 f i nafxcwd:thrdcore.obj
 0001:000c7620       ??_G_AFX_CTL3D_THREAD@@UAEPAXI@Z 004c8620 f i nafxcwd:thrdcore.obj
 0001:000c7650       ?Enable3dControlsStatic@CWinApp@@IAEHXZ 004c8650 f   nafxcwd:app3ds.obj
 0001:000c77a0       ?GetRuntimeClass@CDialog@@UBEPAUCRuntimeClass@@XZ 004c87a0 f   nafxcwd:dlgcore.obj
 0001:000c77b0       ?GetRuntimeClass@CException@@UBEPAUCRuntimeClass@@XZ 004c87b0 f   nafxcwd:except.obj
 0001:000c77c0       ?GetRuntimeClass@CMemoryException@@UBEPAUCRuntimeClass@@XZ 004c87c0 f   nafxcwd:except.obj
 0001:000c7816       ?GetRuntimeClass@CNotSupportedException@@UBEPAUCRuntimeClass@@XZ 004c8816 f   nafxcwd:except.obj
 0001:000c7870       ??0_AFX_THREAD_STATE@@QAE@XZ 004c8870 f   nafxcwd:afxstate.obj
 0001:000c78a9       ??1_AFX_THREAD_STATE@@UAE@XZ 004c88a9 f   nafxcwd:afxstate.obj
 0001:000c79b5       ?AfxGetThreadState@@YGPAV_AFX_THREAD_STATE@@XZ 004c89b5 f   nafxcwd:afxstate.obj
 0001:000c79f9       ??0AFX_MODULE_STATE@@QAE@H@Z 004c89f9 f   nafxcwd:afxstate.obj
 0001:000c7aca       ??1AFX_MODULE_STATE@@UAE@XZ 004c8aca f   nafxcwd:afxstate.obj
 0001:000c7bb5       ?RemoveAll@CTypeLibCacheMap@@UAEXPAX@Z 004c8bb5 f   nafxcwd:afxstate.obj
 0001:000c7c05       ??0AFX_MODULE_THREAD_STATE@@QAE@XZ 004c8c05 f   nafxcwd:afxstate.obj
 0001:000c7c75       ??1AFX_MODULE_THREAD_STATE@@UAE@XZ 004c8c75 f   nafxcwd:afxstate.obj
 0001:000c7e94       ?AfxGetAppModuleState@@YGPAVAFX_MODULE_STATE@@XZ 004c8e94 f   nafxcwd:afxstate.obj
 0001:000c7ea3       ?AfxGetModuleState@@YGPAVAFX_MODULE_STATE@@XZ 004c8ea3 f   nafxcwd:afxstate.obj
 0001:000c7f04       ?AfxGetModuleThreadState@@YGPAVAFX_MODULE_THREAD_STATE@@XZ 004c8f04 f   nafxcwd:afxstate.obj
 0001:000c7f1b       ?Unlock@CTypeLibCache@@QAEXXZ 004c8f1b f   nafxcwd:afxstate.obj
 0001:000c7fb0       ??_E_AFX_THREAD_STATE@@UAEPAXI@Z 004c8fb0 f i nafxcwd:afxstate.obj
 0001:000c7fb0       ??_G_AFX_THREAD_STATE@@UAEPAXI@Z 004c8fb0 f i nafxcwd:afxstate.obj
 0001:000c7fe0       ??1?$CThreadLocal@V_AFX_THREAD_STATE@@@@QAE@XZ 004c8fe0 f i nafxcwd:afxstate.obj
 0001:000c8000       ??_GAFX_MODULE_STATE@@UAEPAXI@Z 004c9000 f i nafxcwd:afxstate.obj
 0001:000c8000       ??_EAFX_MODULE_STATE@@UAEPAXI@Z 004c9000 f i nafxcwd:afxstate.obj
 0001:000c8030       ??1?$CThreadLocal@VAFX_MODULE_THREAD_STATE@@@@QAE@XZ 004c9030 f i nafxcwd:afxstate.obj
 0001:000c8050       ??_EAFX_MODULE_THREAD_STATE@@UAEPAXI@Z 004c9050 f i nafxcwd:afxstate.obj
 0001:000c8050       ??_GAFX_MODULE_THREAD_STATE@@UAEPAXI@Z 004c9050 f i nafxcwd:afxstate.obj
 0001:000c8080       ??1?$CProcessLocal@V_AFX_BASE_MODULE_STATE@@@@QAE@XZ 004c9080 f i nafxcwd:afxstate.obj
 0001:000c80a0       ??0?$CTypedSimpleList@PAVCFrameWnd@@@@QAE@H@Z 004c90a0 f i nafxcwd:afxstate.obj
 0001:000c80c0       ??0?$CTypedSimpleList@PAUCRuntimeClass@@@@QAE@H@Z 004c90c0 f i nafxcwd:afxstate.obj
 0001:000c80e0       ??0?$CTypedSimpleList@PAVCOleObjectFactory@@@@QAE@H@Z 004c90e0 f i nafxcwd:afxstate.obj
 0001:000c8100       ??0?$CTypedSimpleList@PAVCOleControlLock@@@@QAE@H@Z 004c9100 f i nafxcwd:afxstate.obj
 0001:000c8120       ??B?$CThreadLocal@V_AFX_THREAD_STATE@@@@QAEPAV_AFX_THREAD_STATE@@XZ 004c9120 f i nafxcwd:afxstate.obj
 0001:000c8140       ?GetData@?$CProcessLocal@V_AFX_BASE_MODULE_STATE@@@@QAEPAV_AFX_BASE_MODULE_STATE@@XZ 004c9140 f i nafxcwd:afxstate.obj
 0001:000c8190       ?CreateObject@?$CProcessLocal@V_AFX_BASE_MODULE_STATE@@@@SGPAVCNoTrackObject@@XZ 004c9190 f i nafxcwd:afxstate.obj
 0001:000c8200       ??0_AFX_BASE_MODULE_STATE@@QAE@XZ 004c9200 f i nafxcwd:afxstate.obj
 0001:000c8230       ??_G_AFX_BASE_MODULE_STATE@@UAEPAXI@Z 004c9230 f i nafxcwd:afxstate.obj
 0001:000c8230       ??_E_AFX_BASE_MODULE_STATE@@UAEPAXI@Z 004c9230 f i nafxcwd:afxstate.obj
 0001:000c8260       ??1_AFX_BASE_MODULE_STATE@@UAE@XZ 004c9260 f i nafxcwd:afxstate.obj
 0001:000c8280       ?GetRuntimeClass@CMapPtrToPtr@@UBEPAUCRuntimeClass@@XZ 004c9280 f   nafxcwd:map_pp.obj
 0001:000c8290       ??1_AFX_CTL3D_STATE@@UAE@XZ 004c9290 f   nafxcwd:app3d.obj
 0001:000c8300       ??1_AFX_CTL3D_THREAD@@UAE@XZ 004c9300 f   nafxcwd:app3d.obj
 0001:000c836d       ?Enable3dControls@CWinApp@@IAEHXZ 004c936d f   nafxcwd:app3d.obj
 0001:000c8587       ?AfxGetCtl3dState@@YGPAV_AFX_CTL3D_STATE@@XZ 004c9587 f   nafxcwd:app3d.obj
 0001:000c8600       ??1?$CThreadLocal@V_AFX_CTL3D_THREAD@@@@QAE@XZ 004c9600 f i nafxcwd:app3d.obj
 0001:000c8620       ??1?$CProcessLocal@V_AFX_CTL3D_STATE@@@@QAE@XZ 004c9620 f i nafxcwd:app3d.obj
 0001:000c867f       ?AfxEnableWin40Compatibility@@YGXXZ 004c967f f   nafxcwd:auxdata.obj
 0001:000c86b7       ?AfxEnableWin31Compatibility@@YGXXZ 004c96b7 f   nafxcwd:auxdata.obj
 0001:000c86e0       ??0AUX_DATA@@QAE@XZ        004c96e0 f   nafxcwd:auxdata.obj
 0001:000c8860       ?_AfxInitDBCS@@YGHXZ       004c9860 f   nafxcwd:afxdbcs.obj
 0001:000c88a0       ?CreateObject@CMenu@@SGPAVCObject@@XZ 004c98a0 f   nafxcwd:winmenu.obj
 0001:000c890e       ?GetRuntimeClass@CMenu@@UBEPAUCRuntimeClass@@XZ 004c990e f   nafxcwd:winmenu.obj
 0001:000c891e       ?CreateObject@CTempMenu@@SGPAVCObject@@XZ 004c991e f   nafxcwd:winmenu.obj
 0001:000c898c       ?GetRuntimeClass@CTempMenu@@UBEPAUCRuntimeClass@@XZ 004c998c f   nafxcwd:winmenu.obj
 0001:000c89a0       ??0CTempMenu@@QAE@XZ       004c99a0 f i nafxcwd:winmenu.obj
 0001:000c89c0       ??_GCTempMenu@@UAEPAXI@Z   004c99c0 f i nafxcwd:winmenu.obj
 0001:000c89c0       ??_ECTempMenu@@UAEPAXI@Z   004c99c0 f i nafxcwd:winmenu.obj
 0001:000c89f0       ??1CTempMenu@@UAE@XZ       004c99f0 f i nafxcwd:winmenu.obj
 0001:000c8a10       ?AfxCriticalInit@@YGHXZ    004c9a10 f   nafxcwd:afxcrit.obj
 0001:000c8aab       ?AfxCriticalTerm@@YGXXZ    004c9aab f   nafxcwd:afxcrit.obj
 0001:000c8baa       ?AfxLockGlobals@@YGXH@Z    004c9baa f   nafxcwd:afxcrit.obj
 0001:000c8cdc       ?AfxUnlockGlobals@@YGXH@Z  004c9cdc f   nafxcwd:afxcrit.obj
 0001:000c8db0       ?AddHead@CSimpleList@@QAEXPAX@Z 004c9db0 f   nafxcwd:afxtls.obj
 0001:000c8e23       ?Remove@CSimpleList@@QAEHPAX@Z 004c9e23 f   nafxcwd:afxtls.obj
 0001:000c8f17       ??2CNoTrackObject@@SGPAXIPBDH@Z 004c9f17 f   nafxcwd:afxtls.obj
 0001:000c8f27       ??3CNoTrackObject@@SGXPAXPBDH@Z 004c9f27 f   nafxcwd:afxtls.obj
 0001:000c8f3e       ??2CNoTrackObject@@SGPAXI@Z 004c9f3e f   nafxcwd:afxtls.obj
 0001:000c8f65       ??3CNoTrackObject@@SGXPAX@Z 004c9f65 f   nafxcwd:afxtls.obj
 0001:000c8f7c       ??0CThreadSlotData@@QAE@XZ 004c9f7c f   nafxcwd:afxtls.obj
 0001:000c8ff1       ??1CThreadSlotData@@QAE@XZ 004c9ff1 f   nafxcwd:afxtls.obj
 0001:000c9092       ?AllocSlot@CThreadSlotData@@QAEHXZ 004ca092 f   nafxcwd:afxtls.obj
 0001:000c9287       ?FreeSlot@CThreadSlotData@@QAEXH@Z 004ca287 f   nafxcwd:afxtls.obj
 0001:000c93b9       ?SetValue@CThreadSlotData@@QAEXHPAX@Z 004ca3b9 f   nafxcwd:afxtls.obj
 0001:000c95f8       ?AssignInstance@CThreadSlotData@@QAEXPAUHINSTANCE__@@@Z 004ca5f8 f   nafxcwd:afxtls.obj
 0001:000c96bc       ?DeleteValues@CThreadSlotData@@QAEXPAUCThreadData@@PAUHINSTANCE__@@@Z 004ca6bc f   nafxcwd:afxtls.obj
 0001:000c9801       ?DeleteValues@CThreadSlotData@@QAEXPAUHINSTANCE__@@H@Z 004ca801 f   nafxcwd:afxtls.obj
 0001:000c988c       ?GetData@CThreadLocalObject@@QAEPAVCNoTrackObject@@P6GPAV2@XZ@Z 004ca88c f   nafxcwd:afxtls.obj
 0001:000c99a5       ?GetDataNA@CThreadLocalObject@@QAEPAVCNoTrackObject@@XZ 004ca9a5 f   nafxcwd:afxtls.obj
 0001:000c99de       ??1CThreadLocalObject@@QAE@XZ 004ca9de f   nafxcwd:afxtls.obj
 0001:000c9a14       ?GetData@CProcessLocalObject@@QAEPAVCNoTrackObject@@P6GPAV2@XZ@Z 004caa14 f   nafxcwd:afxtls.obj
 0001:000c9ac8       ??1CProcessLocalObject@@QAE@XZ 004caac8 f   nafxcwd:afxtls.obj
 0001:000c9b0f       ?AfxInitLocalData@@YGXPAUHINSTANCE__@@@Z 004cab0f f   nafxcwd:afxtls.obj
 0001:000c9b2e       ?AfxTermLocalData@@YGXPAUHINSTANCE__@@H@Z 004cab2e f   nafxcwd:afxtls.obj
 0001:000c9b51       ?AfxTlsAddRef@@YGXXZ       004cab51 f   nafxcwd:afxtls.obj
 0001:000c9b63       ?AfxTlsRelease@@YGXXZ      004cab63 f   nafxcwd:afxtls.obj
 0001:000c9bb0       ??0CThreadData@@QAE@XZ     004cabb0 f i nafxcwd:afxtls.obj
 0001:000c9bd0       ??_ECThreadData@@UAEPAXI@Z 004cabd0 f i nafxcwd:afxtls.obj
 0001:000c9bd0       ??_GCThreadData@@UAEPAXI@Z 004cabd0 f i nafxcwd:afxtls.obj
 0001:000c9c00       ??1CThreadData@@UAE@XZ     004cac00 f i nafxcwd:afxtls.obj
 0001:000c9c20       ?GetThreadValue@CThreadSlotData@@QAEPAXH@Z 004cac20 f i nafxcwd:afxtls.obj
 0001:000c9d10       ??_GCThreadSlotData@@QAEPAXI@Z 004cad10 f i nafxcwd:afxtls.obj
 0001:000c9d40       ??0?$CTypedSimpleList@PAUCThreadData@@@@QAE@H@Z 004cad40 f i nafxcwd:afxtls.obj
 0001:000c9d60       ?AddHead@?$CTypedSimpleList@PAUCThreadData@@@@QAEXPAUCThreadData@@@Z 004cad60 f i nafxcwd:afxtls.obj
 0001:000c9d80       ?Remove@?$CTypedSimpleList@PAUCThreadData@@@@QAEHPAUCThreadData@@@Z 004cad80 f i nafxcwd:afxtls.obj
 0001:000c9da0       ??B?$CTypedSimpleList@PAUCThreadData@@@@QAEPAUCThreadData@@XZ 004cada0 f i nafxcwd:afxtls.obj
 0001:000c9dc0       ?GetRuntimeClass@CPtrList@@UBEPAUCRuntimeClass@@XZ 004cadc0 f   nafxcwd:list_p.obj
 0001:000c9dd0       ?GetRuntimeClass@CStatic@@UBEPAUCRuntimeClass@@XZ 004cadd0 f   nafxcwd:winctrl1.obj
 0001:000c9de0       ?GetRuntimeClass@CButton@@UBEPAUCRuntimeClass@@XZ 004cade0 f   nafxcwd:winctrl1.obj
 0001:000c9df0       ?GetRuntimeClass@CListBox@@UBEPAUCRuntimeClass@@XZ 004cadf0 f   nafxcwd:winctrl1.obj
 0001:000c9e00       ?GetRuntimeClass@CComboBox@@UBEPAUCRuntimeClass@@XZ 004cae00 f   nafxcwd:winctrl1.obj
 0001:000c9e10       ?GetRuntimeClass@CEdit@@UBEPAUCRuntimeClass@@XZ 004cae10 f   nafxcwd:winctrl1.obj
 0001:000c9e20       ?GetRuntimeClass@CScrollBar@@UBEPAUCRuntimeClass@@XZ 004cae20 f   nafxcwd:winctrl1.obj
 0001:000c9e30       ?GetRuntimeClass@CCheckListBox@@UBEPAUCRuntimeClass@@XZ 004cae30 f   nafxcwd:winctrl3.obj
 0001:000c9e80       ??1?$CProcessLocal@V_AFX_CHECKLIST_STATE@@@@QAE@XZ 004cae80 f i nafxcwd:winctrl3.obj
 0001:000c9ea0       ??B?$CProcessLocal@V_AFX_CHECKLIST_STATE@@@@QAEPAV_AFX_CHECKLIST_STATE@@XZ 004caea0 f i nafxcwd:winctrl3.obj
 0001:000c9ec0       ?GetData@?$CProcessLocal@V_AFX_CHECKLIST_STATE@@@@QAEPAV_AFX_CHECKLIST_STATE@@XZ 004caec0 f i nafxcwd:winctrl3.obj
 0001:000c9f10       ?CreateObject@?$CProcessLocal@V_AFX_CHECKLIST_STATE@@@@SGPAVCNoTrackObject@@XZ 004caf10 f i nafxcwd:winctrl3.obj
 0001:000c9f80       ?GetRuntimeClass@CArchiveException@@UBEPAUCRuntimeClass@@XZ 004caf80 f   nafxcwd:arcex.obj
 0001:000c9f90       ?GetRuntimeClass@CFileException@@UBEPAUCRuntimeClass@@XZ 004caf90 f   nafxcwd:filex.obj
 0001:000c9fa0       ?CreateObject@CByteArray@@SGPAVCObject@@XZ 004cafa0 f   nafxcwd:array_b.obj
 0001:000ca00e       ?GetRuntimeClass@CByteArray@@UBEPAUCRuntimeClass@@XZ 004cb00e f   nafxcwd:array_b.obj
 0001:000ca03c       ??5@YGAAVCArchive@@AAV0@AAPAVCByteArray@@@Z 004cb03c f   nafxcwd:array_b.obj
 0001:000ca060       ?CreateObject@CWordArray@@SGPAVCObject@@XZ 004cb060 f   nafxcwd:array_w.obj
 0001:000ca0ce       ?GetRuntimeClass@CWordArray@@UBEPAUCRuntimeClass@@XZ 004cb0ce f   nafxcwd:array_w.obj
 0001:000ca0fc       ??5@YGAAVCArchive@@AAV0@AAPAVCWordArray@@@Z 004cb0fc f   nafxcwd:array_w.obj
 0001:000ca120       ?CreateObject@CDWordArray@@SGPAVCObject@@XZ 004cb120 f   nafxcwd:array_d.obj
 0001:000ca18e       ?GetRuntimeClass@CDWordArray@@UBEPAUCRuntimeClass@@XZ 004cb18e f   nafxcwd:array_d.obj
 0001:000ca1bc       ??5@YGAAVCArchive@@AAV0@AAPAVCDWordArray@@@Z 004cb1bc f   nafxcwd:array_d.obj
 0001:000ca1e0       ?GetRuntimeClass@CUIntArray@@UBEPAUCRuntimeClass@@XZ 004cb1e0 f   nafxcwd:array_u.obj
 0001:000ca1f0       ?GetRuntimeClass@CPtrArray@@UBEPAUCRuntimeClass@@XZ 004cb1f0 f   nafxcwd:array_p.obj
 0001:000ca200       ?CreateObject@CObArray@@SGPAVCObject@@XZ 004cb200 f   nafxcwd:array_o.obj
 0001:000ca26e       ?GetRuntimeClass@CObArray@@UBEPAUCRuntimeClass@@XZ 004cb26e f   nafxcwd:array_o.obj
 0001:000ca29c       ??5@YGAAVCArchive@@AAV0@AAPAVCObArray@@@Z 004cb29c f   nafxcwd:array_o.obj
 0001:000ca2c0       ?CreateObject@CStringArray@@SGPAVCObject@@XZ 004cb2c0 f   nafxcwd:array_s.obj
 0001:000ca32e       ?GetRuntimeClass@CStringArray@@UBEPAUCRuntimeClass@@XZ 004cb32e f   nafxcwd:array_s.obj
 0001:000ca35c       ??5@YGAAVCArchive@@AAV0@AAPAVCStringArray@@@Z 004cb35c f   nafxcwd:array_s.obj
 0001:000ca380       ?GetRuntimeClass@CMapWordToPtr@@UBEPAUCRuntimeClass@@XZ 004cb380 f   nafxcwd:map_wp.obj
 0001:000ca390       ?GetRuntimeClass@CMapPtrToWord@@UBEPAUCRuntimeClass@@XZ 004cb390 f   nafxcwd:map_pw.obj
 0001:000ca3a0       ?CreateObject@CMapWordToOb@@SGPAVCObject@@XZ 004cb3a0 f   nafxcwd:map_wo.obj
 0001:000ca410       ?GetRuntimeClass@CMapWordToOb@@UBEPAUCRuntimeClass@@XZ 004cb410 f   nafxcwd:map_wo.obj
 0001:000ca43e       ??5@YGAAVCArchive@@AAV0@AAPAVCMapWordToOb@@@Z 004cb43e f   nafxcwd:map_wo.obj
 0001:000ca460       ?GetRuntimeClass@CMapStringToPtr@@UBEPAUCRuntimeClass@@XZ 004cb460 f   nafxcwd:map_sp.obj
 0001:000ca470       ?CreateObject@CMapStringToOb@@SGPAVCObject@@XZ 004cb470 f   nafxcwd:map_so.obj
 0001:000ca4e0       ?GetRuntimeClass@CMapStringToOb@@UBEPAUCRuntimeClass@@XZ 004cb4e0 f   nafxcwd:map_so.obj
 0001:000ca50e       ??5@YGAAVCArchive@@AAV0@AAPAVCMapStringToOb@@@Z 004cb50e f   nafxcwd:map_so.obj
 0001:000ca530       ?CreateObject@CMapStringToString@@SGPAVCObject@@XZ 004cb530 f   nafxcwd:map_ss.obj
 0001:000ca5a0       ?GetRuntimeClass@CMapStringToString@@UBEPAUCRuntimeClass@@XZ 004cb5a0 f   nafxcwd:map_ss.obj
 0001:000ca5ce       ??5@YGAAVCArchive@@AAV0@AAPAVCMapStringToString@@@Z 004cb5ce f   nafxcwd:map_ss.obj
 0001:000ca5f0       ?GetRuntimeClass@CFileDialog@@UBEPAUCRuntimeClass@@XZ 004cb5f0 f   nafxcwd:dlgfile.obj
 0001:000ca600       ?GetRuntimeClass@CPropertyPage@@UBEPAUCRuntimeClass@@XZ 004cb600 f   nafxcwd:dlgprop.obj
 0001:000ca610       ?GetRuntimeClass@CPropertySheet@@UBEPAUCRuntimeClass@@XZ 004cb610 f   nafxcwd:dlgprop.obj
 0001:000ca620       ?GetRuntimeClass@CPropertyPageEx@@UBEPAUCRuntimeClass@@XZ 004cb620 f   nafxcwd:dlgprop.obj
 0001:000ca630       ?GetRuntimeClass@CPropertySheetEx@@UBEPAUCRuntimeClass@@XZ 004cb630 f   nafxcwd:dlgprop.obj
 0001:000ca640       ??0CControlBar@@IAE@XZ     004cb640 f   nafxcwd:barcore.obj
 0001:000ca6ff       ?SetBorders@CControlBar@@QAEXHHHH@Z 004cb6ff f   nafxcwd:barcore.obj
 0001:000ca7aa       ?PreCreateWindow@CControlBar@@UAEHAAUtagCREATESTRUCTA@@@Z 004cb7aa f   nafxcwd:barcore.obj
 0001:000ca89a       ?SetBarStyle@CControlBar@@QAEXK@Z 004cb89a f   nafxcwd:barcore.obj
 0001:000ca918       ?OnBarStyleChange@CControlBar@@UAEXKK@Z 004cb918 f   nafxcwd:barcore.obj
 0001:000ca925       ?AllocElements@CControlBar@@QAEHHH@Z 004cb925 f   nafxcwd:barcore.obj
 0001:000caa10       ??_ECControlBar@@UAEPAXI@Z 004cba10 f i nafxcwd:barcore.obj
 0001:000caa10       ??_GCControlBar@@UAEPAXI@Z 004cba10 f i nafxcwd:barcore.obj
 0001:000caa40       ?_AfxGetComCtlVersion@@YGKXZ 004cba40 f   nafxcwd:bartool.obj
 0001:000cab46       ?_AfxGetDropDownWidth@@YGHXZ 004cbb46 f   nafxcwd:bartool.obj
 0001:000cac60       ??0CToolBar@@QAE@XZ        004cbc60 f   nafxcwd:bartool.obj
 0001:000cad4b       ??1CToolBar@@UAE@XZ        004cbd4b f   nafxcwd:bartool.obj
 0001:000cade0       ?Create@CToolBar@@QAEHPAVCWnd@@KI@Z 004cbde0 f   nafxcwd:bartool.obj
 0001:000cae44       ?CreateEx@CToolBar@@QAEHPAVCWnd@@KKVCRect@@I@Z 004cbe44 f   nafxcwd:bartool.obj
 0001:000cafe7       ?OnNcCreate@CToolBar@@IAEHPAUtagCREATESTRUCTA@@@Z 004cbfe7 f   nafxcwd:bartool.obj
 0001:000cb049       ?SetOwner@CToolBar@@QAEXPAVCWnd@@@Z 004cc049 f   nafxcwd:bartool.obj
 0001:000cb0cd       ?SetSizes@CToolBar@@QAEXUtagSIZE@@0@Z 004cc0cd f   nafxcwd:bartool.obj
 0001:000cb27e       ?SetHeight@CToolBar@@QAEXH@Z 004cc27e f   nafxcwd:bartool.obj
 0001:000cb35f       ?LoadToolBar@CToolBar@@QAEHPBD@Z 004cc35f f   nafxcwd:bartool.obj
 0001:000cb559       ?LoadBitmapA@CToolBar@@QAEHPBD@Z 004cc559 f   nafxcwd:bartool.obj
 0001:000cb603       ?SetBitmap@CToolBar@@QAEHPAUHBITMAP__@@@Z 004cc603 f   nafxcwd:bartool.obj
 0001:000cb669       ?AddReplaceBitmap@CToolBar@@QAEHPAUHBITMAP__@@@Z 004cc669 f   nafxcwd:bartool.obj
 0001:000cb763       ?SetButtons@CToolBar@@QAEHPBIH@Z 004cc763 f   nafxcwd:bartool.obj
 0001:000cb9cf       ?GetRuntimeClass@CToolBar@@UBEPAUCRuntimeClass@@XZ 004cc9cf f   nafxcwd:bartool.obj
 0001:000cb9e0       ??_ECToolBar@@UAEPAXI@Z    004cc9e0 f i nafxcwd:bartool.obj
 0001:000cb9e0       ??_GCToolBar@@UAEPAXI@Z    004cc9e0 f i nafxcwd:bartool.obj
 0001:000cba10       ?items@CToolBarData@@QAEPAGXZ 004cca10 f i nafxcwd:bartool.obj
 0001:000cba30       ?GetRuntimeClass@CDialogBar@@UBEPAUCRuntimeClass@@XZ 004cca30 f   nafxcwd:bardlg.obj
 0001:000cba40       ?GetRuntimeClass@CBitmapButton@@UBEPAUCRuntimeClass@@XZ 004cca40 f   nafxcwd:winbtn.obj
 0001:000cba50       ?CreateObject@CFrameWnd@@SGPAVCObject@@XZ 004cca50 f   nafxcwd:winfrm.obj
 0001:000cbac1       ?GetRuntimeClass@CFrameWnd@@UBEPAUCRuntimeClass@@XZ 004ccac1 f   nafxcwd:winfrm.obj
 0001:000cbad1       ?GetRuntimeClass@CView@@UBEPAUCRuntimeClass@@XZ 004ccad1 f   nafxcwd:winfrm.obj
 0001:000cbae1       ?GetRuntimeClass@CControlBar@@UBEPAUCRuntimeClass@@XZ 004ccae1 f   nafxcwd:winfrm.obj
 0001:000cbb00       ?AddHead@?$CTypedSimpleList@PAVCFrameWnd@@@@QAEXPAVCFrameWnd@@@Z 004ccb00 f i nafxcwd:winfrm.obj
 0001:000cbb20       ?Remove@?$CTypedSimpleList@PAVCFrameWnd@@@@QAEHPAVCFrameWnd@@@Z 004ccb20 f i nafxcwd:winfrm.obj
 0001:000cbb40       ?SetRegistryKey@CWinApp@@IAEXPBD@Z 004ccb40 f   nafxcwd:appui3.obj
 0001:000cbc19       ?SetRegistryKey@CWinApp@@IAEXI@Z 004ccc19 f   nafxcwd:appui3.obj
 0001:000cbc9c       ?GetAppRegistryKey@CWinApp@@QAEPAUHKEY__@@XZ 004ccc9c f   nafxcwd:appui3.obj
 0001:000cbda2       ?GetSectionKey@CWinApp@@QAEPAUHKEY__@@PBD@Z 004ccda2 f   nafxcwd:appui3.obj
 0001:000cbe20       ?GetProfileIntA@CWinApp@@QAEIPBD0H@Z 004cce20 f   nafxcwd:appui3.obj
 0001:000cbf58       ?GetProfileStringA@CWinApp@@QAE?AVCString@@PBD00@Z 004ccf58 f   nafxcwd:appui3.obj
 0001:000cc1f3       ?GetProfileBinary@CWinApp@@QAEHPBD0PAPAEPAI@Z 004cd1f3 f   nafxcwd:appui3.obj
 0001:000cc510       ?GetRuntimeClass@CDocTemplate@@UBEPAUCRuntimeClass@@XZ 004cd510 f   nafxcwd:doctempl.obj
 0001:000cc520       ?GetRuntimeClass@CColorDialog@@UBEPAUCRuntimeClass@@XZ 004cd520 f   nafxcwd:dlgclr.obj
 0001:000cc570       ??1?$CProcessLocal@V_AFX_COLOR_STATE@@@@QAE@XZ 004cd570 f i nafxcwd:dlgclr.obj
 0001:000cc590       ??C?$CProcessLocal@V_AFX_COLOR_STATE@@@@QAEPAV_AFX_COLOR_STATE@@XZ 004cd590 f i nafxcwd:dlgclr.obj
 0001:000cc5b0       ?GetData@?$CProcessLocal@V_AFX_COLOR_STATE@@@@QAEPAV_AFX_COLOR_STATE@@XZ 004cd5b0 f i nafxcwd:dlgclr.obj
 0001:000cc600       ?CreateObject@?$CProcessLocal@V_AFX_COLOR_STATE@@@@SGPAVCNoTrackObject@@XZ 004cd600 f i nafxcwd:dlgclr.obj
 0001:000cc6a5       ?AfxGetPropSheetFont@@YGHAAVCString@@AAGH@Z 004cd6a5 f   nafxcwd:ccdata.obj
 0001:000cc7d0       ??1?$CProcessLocal@U_AFX_PROPPAGEFONTINFO@@@@QAE@XZ 004cd7d0 f i nafxcwd:ccdata.obj
 0001:000cc7f0       ?GetData@?$CProcessLocal@U_AFX_PROPPAGEFONTINFO@@@@QAEPAU_AFX_PROPPAGEFONTINFO@@XZ 004cd7f0 f i nafxcwd:ccdata.obj
 0001:000cc840       ?CreateObject@?$CProcessLocal@U_AFX_PROPPAGEFONTINFO@@@@SGPAVCNoTrackObject@@XZ 004cd840 f i nafxcwd:ccdata.obj
 0001:000cc8b0       ??0_AFX_PROPPAGEFONTINFO@@QAE@XZ 004cd8b0 f i nafxcwd:ccdata.obj
 0001:000cc8f0       ??_G_AFX_PROPPAGEFONTINFO@@UAEPAXI@Z 004cd8f0 f i nafxcwd:ccdata.obj
 0001:000cc8f0       ??_E_AFX_PROPPAGEFONTINFO@@UAEPAXI@Z 004cd8f0 f i nafxcwd:ccdata.obj
 0001:000cc920       ??1_AFX_PROPPAGEFONTINFO@@UAE@XZ 004cd920 f i nafxcwd:ccdata.obj
 0001:000cc950       ?GetRuntimeClass@CDragListBox@@UBEPAUCRuntimeClass@@XZ 004cd950 f   nafxcwd:winctrl2.obj
 0001:000cc960       ?GetRuntimeClass@CSpinButtonCtrl@@UBEPAUCRuntimeClass@@XZ 004cd960 f   nafxcwd:winctrl2.obj
 0001:000cc970       ?GetRuntimeClass@CSliderCtrl@@UBEPAUCRuntimeClass@@XZ 004cd970 f   nafxcwd:winctrl2.obj
 0001:000cc980       ?GetRuntimeClass@CProgressCtrl@@UBEPAUCRuntimeClass@@XZ 004cd980 f   nafxcwd:winctrl2.obj
 0001:000cc990       ?GetRuntimeClass@CComboBoxEx@@UBEPAUCRuntimeClass@@XZ 004cd990 f   nafxcwd:winctrl2.obj
 0001:000cc9a0       ?GetRuntimeClass@CHeaderCtrl@@UBEPAUCRuntimeClass@@XZ 004cd9a0 f   nafxcwd:winctrl2.obj
 0001:000cc9b0       ?GetRuntimeClass@CHotKeyCtrl@@UBEPAUCRuntimeClass@@XZ 004cd9b0 f   nafxcwd:winctrl2.obj
 0001:000cc9c0       ?GetRuntimeClass@CAnimateCtrl@@UBEPAUCRuntimeClass@@XZ 004cd9c0 f   nafxcwd:winctrl2.obj
 0001:000cc9d0       ?GetRuntimeClass@CTabCtrl@@UBEPAUCRuntimeClass@@XZ 004cd9d0 f   nafxcwd:winctrl2.obj
 0001:000cc9e0       ?GetRuntimeClass@CTreeCtrl@@UBEPAUCRuntimeClass@@XZ 004cd9e0 f   nafxcwd:winctrl2.obj
 0001:000cc9f0       ?GetRuntimeClass@CListCtrl@@UBEPAUCRuntimeClass@@XZ 004cd9f0 f   nafxcwd:winctrl2.obj
 0001:000cca00       ?GetRuntimeClass@CToolBarCtrl@@UBEPAUCRuntimeClass@@XZ 004cda00 f   nafxcwd:winctrl2.obj
 0001:000cca10       ?GetRuntimeClass@CStatusBarCtrl@@UBEPAUCRuntimeClass@@XZ 004cda10 f   nafxcwd:winctrl2.obj
 0001:000cca20       ?CreateObject@CImageList@@SGPAVCObject@@XZ 004cda20 f   nafxcwd:winctrl2.obj
 0001:000cca8e       ?GetRuntimeClass@CImageList@@UBEPAUCRuntimeClass@@XZ 004cda8e f   nafxcwd:winctrl2.obj
 0001:000cca9e       ?CreateObject@CTempImageList@@SGPAVCObject@@XZ 004cda9e f   nafxcwd:winctrl2.obj
 0001:000ccb0c       ?GetRuntimeClass@CTempImageList@@UBEPAUCRuntimeClass@@XZ 004cdb0c f   nafxcwd:winctrl2.obj
 0001:000ccb1c       ?GetRuntimeClass@CRichEditCtrl@@UBEPAUCRuntimeClass@@XZ 004cdb1c f   nafxcwd:winctrl2.obj
 0001:000ccb30       ??0CTempImageList@@QAE@XZ  004cdb30 f i nafxcwd:winctrl2.obj
 0001:000ccb50       ??_GCTempImageList@@UAEPAXI@Z 004cdb50 f i nafxcwd:winctrl2.obj
 0001:000ccb50       ??_ECTempImageList@@UAEPAXI@Z 004cdb50 f i nafxcwd:winctrl2.obj
 0001:000ccb80       ??1CTempImageList@@UAE@XZ  004cdb80 f i nafxcwd:winctrl2.obj
 0001:000ccba0       ?GetRuntimeClass@CSplitterWnd@@UBEPAUCRuntimeClass@@XZ 004cdba0 f   nafxcwd:viewcore.obj
 0001:000ccbb0       ?GetRuntimeClass@CCtrlView@@UBEPAUCRuntimeClass@@XZ 004cdbb0 f   nafxcwd:viewcore.obj
 0001:000ccbc0       ?GetRuntimeClass@CScrollView@@UBEPAUCRuntimeClass@@XZ 004cdbc0 f   nafxcwd:viewscrl.obj
 0001:000ccbd0       ?GetRuntimeClass@CToolTipCtrl@@UBEPAUCRuntimeClass@@XZ 004cdbd0 f   nafxcwd:tooltip.obj
 0001:000ccbe0       ?AfxWinInit@@YGHPAUHINSTANCE__@@0PADH@Z 004cdbe0 f   nafxcwd:appinit.obj
 0001:000ccc8f       ?SetCurrentHandles@CWinApp@@QAEXXZ 004cdc8f f   nafxcwd:appinit.obj
 0001:000ccf84       ?AfxGetFileName@@YGIPBDPADI@Z 004cdf84 f   nafxcwd:appinit.obj
 0001:000cd080       ?GetRuntimeClass@CFile@@UBEPAUCRuntimeClass@@XZ 004ce080 f   nafxcwd:filecore.obj
 0001:000cd090       ?_AfxDeleteRegKey@@YGHPBD@Z 004ce090 f   nafxcwd:docmgr.obj
 0001:000cd17d       ?_AfxSetRegKey@@YGHPBD00@Z 004ce17d f   nafxcwd:docmgr.obj
 0001:000cd23b       ??0CDocManager@@QAE@XZ     004ce23b f   nafxcwd:docmgr.obj
 0001:000cd294       ?UnregisterShellFileTypes@CDocManager@@QAEXXZ 004ce294 f   nafxcwd:docmgr.obj
 0001:000cd66e       ?RegisterShellFileTypes@CDocManager@@UAEXH@Z 004ce66e f   nafxcwd:docmgr.obj
 0001:000cdf7e       ?GetRuntimeClass@CDocManager@@UBEPAUCRuntimeClass@@XZ 004cef7e f   nafxcwd:docmgr.obj
 0001:000cdf90       ??_ECDocManager@@UAEPAXI@Z 004cef90 f i nafxcwd:docmgr.obj
 0001:000cdf90       ??_GCDocManager@@UAEPAXI@Z 004cef90 f i nafxcwd:docmgr.obj
 0001:000cdfc0       ?GetRuntimeClass@CDocument@@UBEPAUCRuntimeClass@@XZ 004cefc0 f   nafxcwd:doccore.obj
 0001:000cdfd0       ?GetRuntimeClass@CDockBar@@UBEPAUCRuntimeClass@@XZ 004cefd0 f   nafxcwd:bardock.obj
 0001:000cdfe0       ?CreateObject@CMiniDockFrameWnd@@SGPAVCObject@@XZ 004cefe0 f   nafxcwd:bardock.obj
 0001:000ce051       ?GetRuntimeClass@CMiniDockFrameWnd@@UBEPAUCRuntimeClass@@XZ 004cf051 f   nafxcwd:bardock.obj
 0001:000ce070       ?CreateObject@CMiniFrameWnd@@SGPAVCObject@@XZ 004cf070 f   nafxcwd:winmini.obj
 0001:000ce0e1       ?GetRuntimeClass@CMiniFrameWnd@@UBEPAUCRuntimeClass@@XZ 004cf0e1 f   nafxcwd:winmini.obj
 0001:000d12a0       ??1_AFX_WIN_STATE@@UAE@XZ  004d22a0 f   nafxcwd:appcore.obj
 0001:000d12f5       ?AfxPostQuitMessage@@YGXH@Z 004d22f5 f   nafxcwd:appcore.obj
 0001:000d1330       ??1CWinThread@@UAE@XZ      004d2330 f   nafxcwd:thrdcore.obj
 0001:000d13b0       ??1AUX_DATA@@QAE@XZ        004d23b0 f   nafxcwd:auxdata.obj
 0001:000d13d0       ??1CDocManager@@UAE@XZ     004d23d0 f   nafxcwd:docmgr.obj
 0001:000d14a0       ?AfxWinTerm@@YGXXZ         004d24a0 f   nafxcwd:appterm.obj
 0001:000d6870       __enc$textbss$begin        004d7870     <linker-defined>
 0001:00128770       __enc$textbss$end          00529770     <linker-defined>
 0002:00000020       ??_7CHookService@@6B@      0052a020     HookService.obj
 0002:0000002c       ??_C@_0BJ@OCCC@?2?2?4?2mailslot?2KHTMAILSLOT?$AA@ 0052a02c     HookService.obj
 0002:0000004c       ??_C@_0O@JKMG@UnHookKbdProc?$AA@ 0052a04c     HookService.obj
 0002:0000005c       ??_C@_0M@HGB@HookKbdProc?$AA@ 0052a05c     HookService.obj
 0002:0000006c       ??_C@_06GHFI@GETKHT?$AA@   0052a06c     HookService.obj
 0002:00000074       ??_C@_0P@KAII@RmoKbdHook?4dll?$AA@ 0052a074     HookService.obj
 0002:00000088       ?messageMap@CMainFrame@@1UAFX_MSGMAP@@B 0052a088     MainFrame.obj
 0002:00000090       ?_messageEntries@CMainFrame@@0QBUAFX_MSGMAP_ENTRY@@B 0052a090     MainFrame.obj
 0002:00000194       ??_C@_0O@CIO@CALLCNTMAINFR?$AA@ 0052a194     MainFrame.obj
 0002:000001a8       ??_7CMainFrame@@6B@        0052a1a8     MainFrame.obj
 0002:00000290       ??_C@_0M@CAMP@0x?$CFX?50x?$CF08X?$AA@ 0052a290     MainFrame.obj
 0002:000002a0       __real@8@3ffdccccccccccccd000 0052a2a0     MainFrame.obj
 0002:000002b0       __real@8@3fff8666666666666800 0052a2b0     MainFrame.obj
 0002:000002bc       __real@4@4000c000000000000000 0052a2bc     MainFrame.obj
 0002:000002c0       ??_C@_02MECO@?$CFd?$AA@    0052a2c0     MainFrame.obj
 0002:000002c4       ??_C@_07NMJK@?2?2?4?2Kbd?$AA@ 0052a2c4     MainFrame.obj
 0002:000002d0       ??_C@_03OMPK@Kbd?$AA@      0052a2d0     MainFrame.obj
 0002:000002d4       ??_C@_0BH@OLLF@?2Device?2KeyboardClass0?$AA@ 0052a2d4     MainFrame.obj
 0002:000002f0       ??_C@_0L@MJOA@?$DN?$DN?$DN?$DN?$DN?$DN?$DN?$DN?$DN?$DN?$AA@ 0052a2f0     MainFrame.obj
 0002:00000300       ?messageMap@CRMOApp@@1UAFX_MSGMAP@@B 0052a300     RMO.obj
 0002:00000308       ?_messageEntries@CRMOApp@@0QBUAFX_MSGMAP_ENTRY@@B 0052a308     RMO.obj
 0002:00000348       ??_7CRMOApp@@6B@           0052a348     RMO.obj
 0002:00000410       ??_C@_00A@?$AA@            0052a410     RMO.obj
 0002:00000418       ??_7CRMOClientPipe@@6B@    0052a418     RMOClientPipe.obj
 0002:00000430       ??_C@_0P@PKJ@?B?5?n?a?q?k?s?f?h?b?$OA?m?h?h?$AA@ 0052a430     RMOClientPipe.obj
 0002:00000444       ??_C@_0O@PINH@?H?m?h?v?h?$OA?k?h?g?$OA?v?h?$PP?$AA@ 0052a444     RMOClientPipe.obj
 0002:00000454       ??_C@_0N@FEKO@?O?n?d?j?k?$PO?w?h?k?h?q?$PM?$AA@ 0052a454     RMOClientPipe.obj
 0002:00000464       ??_C@_0BG@BKMK@?Q?n?e?d?h?m?e?m?h?e?5?n?r?b?e?p?c?m?s?r?n?$AA@ 0052a464     RMOClientPipe.obj
 0002:00000480       ??_C@_0P@EBNN@?B?u?n?d?5?b?5?q?h?q?r?e?l?s?$AA@ 0052a480     RMOClientPipe.obj
 0002:00000494       ??_C@_0O@OJKO@?O?n?h?q?j?5?q?e?p?b?e?p?$OA?$AA@ 0052a494     RMOClientPipe.obj
 0002:000004a4       ??_C@_0M@BGHE@?N?a?p?$PL?b?5?k?h?m?h?h?$AA@ 0052a4a4     RMOClientPipe.obj
 0002:000004b4       ??_C@_06LNGA@?$MA?B?$MA?P?H?$NP?$AA@ 0052a4b4     RMOClientPipe.obj
 0002:000004bc       ??_C@_05ML@?B?$NL?G?N?B?$AA@ 0052a4bc     RMOClientPipe.obj
 0002:000004c4       ??_C@_0L@PAPH@?P?L?N?5?g?$OA?m?$PP?r?n?$AA@ 0052a4c4     RMOClientPipe.obj
 0002:000004d4       ??_C@_04KJMB@BUSY?$AA@     0052a4d4     RMOClientPipe.obj
 0002:000004e0       ?messageMap@CRMODlg@@1UAFX_MSGMAP@@B 0052a4e0     RMODlg.obj
 0002:000004e8       ?_messageEntries@CRMODlg@@0QBUAFX_MSGMAP_ENTRY@@B 0052a4e8     RMODlg.obj
 0002:00000544       ??_7CRMODlg@@6B@           0052a544     RMODlg.obj
 0002:0000064c       ??_7TBinaryData@@6B@       0052a64c     TBinaryData.obj
 0002:00000658       ??_7?$__TBD_TMemory@$0CAA@@@6B@ 0052a658     TBinaryData.obj
 0002:00000664       ??_7CThread@@6B@           0052a664     Thread.obj
 0002:00000670       ??_C@_01PKAG@?3?$AA@       0052a670     TZSSString.obj
 0002:00000674       ??_C@_0BM@DBNJ@?2?2GERMES?2pipe?2TlgCallCenter?$AA@ 0052a674     ClientNamedPipe.obj
 0002:00000694       ??_7CClientNamedPipe@@6B@  0052a694     ClientNamedPipe.obj
 0002:000006b0       ??_7?$TFixedSizeBinaryData@$0BAAA@@@6B@ 0052a6b0     ClientNamedPipe.obj
 0002:000006b8       ?_pfnUninitialized@@3Q6AHI@ZA 0052a6b8     nafxcwd:afxmem.obj
 0002:000006c0       ?classCTempWnd@CTempWnd@@2UCRuntimeClass@@B 0052a6c0     nafxcwd:wincore.obj
 0002:000006d8       ?classCWnd@CWnd@@2UCRuntimeClass@@B 0052a6d8     nafxcwd:wincore.obj
 0002:000006f0       ?messageMap@CWnd@@1UAFX_MSGMAP@@B 0052a6f0     nafxcwd:wincore.obj
 0002:000006f8       ?_messageEntries@CWnd@@0QBUAFX_MSGMAP_ENTRY@@B 0052a6f8     nafxcwd:wincore.obj
 0002:00000998       ?_afxOldWndProc@@3QBDB     0052a998     nafxcwd:wincore.obj
 0002:000009ac       ?_afxWnd@@3QBDB            0052a9ac     nafxcwd:wincore.obj
 0002:000009b8       ?_afxWndControlBar@@3QBDB  0052a9b8     nafxcwd:wincore.obj
 0002:000009cc       ?_afxWndMDIFrame@@3QBDB    0052a9cc     nafxcwd:wincore.obj
 0002:000009dc       ?_afxWndFrameOrView@@3QBDB 0052a9dc     nafxcwd:wincore.obj
 0002:000009f0       ?_afxWndOleControl@@3QBDB  0052a9f0     nafxcwd:wincore.obj
 0002:00000a08       ??_7CWnd@@6B@              0052aa08     nafxcwd:wincore.obj
 0002:00000acc       ??_7CTestCmdUI@@6B@        0052aacc     nafxcwd:wincore.obj
 0002:00000ae0       ??_7CTempWnd@@6B@          0052aae0     nafxcwd:wincore.obj
 0002:00000ba4       ??_7_AFX_CTL3D_STATE@@6B@  0052aba4     nafxcwd:wincore.obj
 0002:00000bac       ??_7CNoTrackObject@@6B@    0052abac     nafxcwd:wincore.obj
 0002:00000bc0       ??_7CResourceException@@6B@ 0052abc0     nafxcwd:afxinl2.obj
 0002:00000be0       ??_7CUserException@@6B@    0052abe0     nafxcwd:afxinl2.obj
 0002:00000c00       ??_7CGdiObject@@6B@        0052ac00     nafxcwd:afxinl2.obj
 0002:00000c18       ??_7CPen@@6B@              0052ac18     nafxcwd:afxinl2.obj
 0002:00000c30       ??_7CBrush@@6B@            0052ac30     nafxcwd:afxinl2.obj
 0002:00000c48       ??_7CFont@@6B@             0052ac48     nafxcwd:afxinl2.obj
 0002:00000c60       ??_7CBitmap@@6B@           0052ac60     nafxcwd:afxinl2.obj
 0002:00000c78       ??_7CPalette@@6B@          0052ac78     nafxcwd:afxinl2.obj
 0002:00000c90       ??_7CRgn@@6B@              0052ac90     nafxcwd:afxinl2.obj
 0002:00000ca8       ??_7CMenu@@6B@             0052aca8     nafxcwd:afxinl2.obj
 0002:00000cc8       ?classCTempGdiObject@CTempGdiObject@@2UCRuntimeClass@@B 0052acc8     nafxcwd:wingdi.obj
 0002:00000ce0       ?classCTempDC@CTempDC@@2UCRuntimeClass@@B 0052ace0     nafxcwd:wingdi.obj
 0002:00000cf8       ?classCRgn@CRgn@@2UCRuntimeClass@@B 0052acf8     nafxcwd:wingdi.obj
 0002:00000d10       ?classCPalette@CPalette@@2UCRuntimeClass@@B 0052ad10     nafxcwd:wingdi.obj
 0002:00000d28       ?classCBitmap@CBitmap@@2UCRuntimeClass@@B 0052ad28     nafxcwd:wingdi.obj
 0002:00000d40       ?classCFont@CFont@@2UCRuntimeClass@@B 0052ad40     nafxcwd:wingdi.obj
 0002:00000d58       ?classCBrush@CBrush@@2UCRuntimeClass@@B 0052ad58     nafxcwd:wingdi.obj
 0002:00000d70       ?classCPen@CPen@@2UCRuntimeClass@@B 0052ad70     nafxcwd:wingdi.obj
 0002:00000d88       ?classCGdiObject@CGdiObject@@2UCRuntimeClass@@B 0052ad88     nafxcwd:wingdi.obj
 0002:00000da0       ?classCPaintDC@CPaintDC@@2UCRuntimeClass@@B 0052ada0     nafxcwd:wingdi.obj
 0002:00000db8       ?classCWindowDC@CWindowDC@@2UCRuntimeClass@@B 0052adb8     nafxcwd:wingdi.obj
 0002:00000dd0       ?classCClientDC@CClientDC@@2UCRuntimeClass@@B 0052add0     nafxcwd:wingdi.obj
 0002:00000de8       ?classCDC@CDC@@2UCRuntimeClass@@B 0052ade8     nafxcwd:wingdi.obj
 0002:00000e00       ?classCUserException@CUserException@@2UCRuntimeClass@@B 0052ae00     nafxcwd:wingdi.obj
 0002:00000e18       ?classCResourceException@CResourceException@@2UCRuntimeClass@@B 0052ae18     nafxcwd:wingdi.obj
 0002:00000e34       ??_7CDC@@6B@               0052ae34     nafxcwd:wingdi.obj
 0002:00000eb4       ??_7CClientDC@@6B@         0052aeb4     nafxcwd:wingdi.obj
 0002:00000f34       ??_7CWindowDC@@6B@         0052af34     nafxcwd:wingdi.obj
 0002:00000fb4       ??_7CPaintDC@@6B@          0052afb4     nafxcwd:wingdi.obj
 0002:00001034       ??_7CTempDC@@6B@           0052b034     nafxcwd:wingdi.obj
 0002:000010b4       ??_7CTempGdiObject@@6B@    0052b0b4     nafxcwd:wingdi.obj
 0002:000010d8       ??_7CStatic@@6B@           0052b0d8     nafxcwd:afxinl3.obj
 0002:0000119c       ??_7CButton@@6B@           0052b19c     nafxcwd:afxinl3.obj
 0002:00001264       ??_7CListBox@@6B@          0052b264     nafxcwd:afxinl3.obj
 0002:00001340       ??_7CCheckListBox@@6B@     0052b340     nafxcwd:afxinl3.obj
 0002:00001420       ??_7CComboBox@@6B@         0052b420     nafxcwd:afxinl3.obj
 0002:000014f4       ??_7CEdit@@6B@             0052b4f4     nafxcwd:afxinl3.obj
 0002:000015b8       ??_7CScrollBar@@6B@        0052b5b8     nafxcwd:afxinl3.obj
 0002:00001678       ?classCCmdTarget@CCmdTarget@@2UCRuntimeClass@@B 0052b678     nafxcwd:cmdtarg.obj
 0002:00001690       ?_afxDot@@3QBEB            0052b690     nafxcwd:cmdtarg.obj
 0002:00001698       ?messageMap@CCmdTarget@@1UAFX_MSGMAP@@B 0052b698     nafxcwd:cmdtarg.obj
 0002:000016a0       ?_messageEntries@CCmdTarget@@0QBUAFX_MSGMAP_ENTRY@@B 0052b6a0     nafxcwd:cmdtarg.obj
 0002:000016b8       ?dispatchMap@CCmdTarget@@1UAFX_DISPMAP@@B 0052b6b8     nafxcwd:cmdtarg.obj
 0002:000016c8       ?_dispatchEntries@CCmdTarget@@0QBUAFX_DISPMAP_ENTRY@@B 0052b6c8     nafxcwd:cmdtarg.obj
 0002:000016e8       ?eventsinkMap@CCmdTarget@@1UAFX_EVENTSINKMAP@@B 0052b6e8     nafxcwd:cmdtarg.obj
 0002:000016f8       ?_eventsinkEntries@CCmdTarget@@0QBUAFX_EVENTSINKMAP_ENTRY@@B 0052b6f8     nafxcwd:cmdtarg.obj
 0002:00001720       ?interfaceMap@CCmdTarget@@1UAFX_INTERFACEMAP@@B 0052b720     nafxcwd:cmdtarg.obj
 0002:00001728       ?_interfaceEntries@CCmdTarget@@0QBUAFX_INTERFACEMAP_ENTRY@@B 0052b728     nafxcwd:cmdtarg.obj
 0002:00001738       ?connectionMap@CCmdTarget@@1UAFX_CONNECTIONMAP@@B 0052b738     nafxcwd:cmdtarg.obj
 0002:00001740       ?_connectionEntries@CCmdTarget@@0QBUAFX_CONNECTIONMAP_ENTRY@@B 0052b740     nafxcwd:cmdtarg.obj
 0002:00001748       ?commandMap@CCmdTarget@@1UAFX_OLECMDMAP@@B 0052b748     nafxcwd:cmdtarg.obj
 0002:00001750       ?_commandEntries@CCmdTarget@@0QBUAFX_OLECMDMAP_ENTRY@@B 0052b750     nafxcwd:cmdtarg.obj
 0002:00001760       ??_7CCmdTarget@@6B@        0052b760     nafxcwd:cmdtarg.obj
 0002:000017bc       ??_7CCmdUI@@6B@            0052b7bc     nafxcwd:cmdtarg.obj
 0002:000017fc       ??_7CObject@@6B@           0052b7fc     nafxcwd:afxinl1.obj
 0002:00001814       ??_7CException@@6B@        0052b814     nafxcwd:afxinl1.obj
 0002:00001834       ??_7CSimpleException@@6B@  0052b834     nafxcwd:afxinl1.obj
 0002:00001854       ??_7CMemoryException@@6B@  0052b854     nafxcwd:afxinl1.obj
 0002:00001874       ??_7CNotSupportedException@@6B@ 0052b874     nafxcwd:afxinl1.obj
 0002:00001894       ??_7CArchiveException@@6B@ 0052b894     nafxcwd:afxinl1.obj
 0002:000018b4       ??_7CFileException@@6B@    0052b8b4     nafxcwd:afxinl1.obj
 0002:000018d4       ??_7CCommonDialog@@6B@     0052b8d4     nafxcwd:afxinl1.obj
 0002:000019b0       ??_7CRectTracker@@6B@      0052b9b0     nafxcwd:afxinl1.obj
 0002:000019cc       ??_7CBitmapButton@@6B@     0052b9cc     nafxcwd:afxinl1.obj
 0002:00001a90       ?classCWinApp@CWinApp@@2UCRuntimeClass@@B 0052ba90     nafxcwd:appcore.obj
 0002:00001aa8       ?messageMap@CWinApp@@1UAFX_MSGMAP@@B 0052baa8     nafxcwd:appcore.obj
 0002:00001ab0       ?_messageEntries@CWinApp@@0QBUAFX_MSGMAP_ENTRY@@B 0052bab0     nafxcwd:appcore.obj
 0002:00001b10       ?_afxPreviewEntry@@3QBDB   0052bb10     nafxcwd:appcore.obj
 0002:00001b20       ?_afxPreviewSection@@3QBDB 0052bb20     nafxcwd:appcore.obj
 0002:00001b2c       ?_afxFileEntry@@3QBDB      0052bb2c     nafxcwd:appcore.obj
 0002:00001b34       ?_afxFileSection@@3QBDB    0052bb34     nafxcwd:appcore.obj
 0002:00001b4c       ??_7_AFX_WIN_STATE@@6B@    0052bb4c     nafxcwd:appcore.obj
 0002:00001b54       ??_7CWinApp@@6B@           0052bb54     nafxcwd:appcore.obj
 0002:00001bfc       ??_7CCommandLineInfo@@6B@  0052bbfc     nafxcwd:appcore.obj
 0002:00001c18       ?classCWinThread@CWinThread@@2UCRuntimeClass@@B 0052bc18     nafxcwd:thrdcore.obj
 0002:00001c34       ??_7CWinThread@@6B@        0052bc34     nafxcwd:thrdcore.obj
 0002:00001cbc       ??_7_AFX_CTL3D_THREAD@@6B@ 0052bcbc     nafxcwd:thrdcore.obj
 0002:00001cc0       ?classCDialog@CDialog@@2UCRuntimeClass@@B 0052bcc0     nafxcwd:dlgcore.obj
 0002:00001cd8       ?messageMap@CDialog@@1UAFX_MSGMAP@@B 0052bcd8     nafxcwd:dlgcore.obj
 0002:00001ce0       ?_messageEntries@CDialog@@0QBUAFX_MSGMAP_ENTRY@@B 0052bce0     nafxcwd:dlgcore.obj
 0002:00001dbc       ??_7CDialog@@6B@           0052bdbc     nafxcwd:dlgcore.obj
 0002:00001e98       ?classCNotSupportedException@CNotSupportedException@@2UCRuntimeClass@@B 0052be98     nafxcwd:except.obj
 0002:00001eb0       ?classCMemoryException@CMemoryException@@2UCRuntimeClass@@B 0052beb0     nafxcwd:except.obj
 0002:00001ec8       ?classCException@CException@@2UCRuntimeClass@@B 0052bec8     nafxcwd:except.obj
 0002:00001ee0       ?classCObject@CObject@@2UCRuntimeClass@@B 0052bee0     nafxcwd:objcore.obj
 0002:00001ef8       _IID_IDocHostUIHandlerDispatch 0052bef8     nafxcwd:objcore.obj
 0002:00001f08       _IID_IInternalConnection   0052bf08     nafxcwd:objcore.obj
 0002:00001f18       _IID_IAxWinAmbientDispatch 0052bf18     nafxcwd:objcore.obj
 0002:00001f28       _IID_IAxWinHostWindow      0052bf28     nafxcwd:objcore.obj
 0002:00001f38       _IID_IRegistrar            0052bf38     nafxcwd:objcore.obj
 0002:00001f48       _CLSID_Registrar           0052bf48     nafxcwd:objcore.obj
 0002:00001f58       _LIBID_ATLLib              0052bf58     nafxcwd:objcore.obj
 0002:00002550       ??_7_AFX_DEBUG_STATE@@6B@  0052c550     nafxcwd:dumpinit.obj
 0002:00002558       ??_7_AFX_THREAD_STATE@@6B@ 0052c558     nafxcwd:afxstate.obj
 0002:00002560       ??_7AFX_MODULE_STATE@@6B@  0052c560     nafxcwd:afxstate.obj
 0002:00002568       ??_7AFX_MODULE_THREAD_STATE@@6B@ 0052c568     nafxcwd:afxstate.obj
 0002:00002570       ??_7_AFX_BASE_MODULE_STATE@@6B@ 0052c570     nafxcwd:afxstate.obj
 0002:00002578       ??_7CHandleMap@@6B@        0052c578     nafxcwd:winhand.obj
 0002:00002580       ?classCMapPtrToPtr@CMapPtrToPtr@@2UCRuntimeClass@@B 0052c580     nafxcwd:map_pp.obj
 0002:0000259c       ??_7CMapPtrToPtr@@6B@      0052c59c     nafxcwd:map_pp.obj
 0002:000025b0       ?classCTempMenu@CTempMenu@@2UCRuntimeClass@@B 0052c5b0     nafxcwd:winmenu.obj
 0002:000025c8       ?classCMenu@CMenu@@2UCRuntimeClass@@B 0052c5c8     nafxcwd:winmenu.obj
 0002:000025e4       ??_7CTempMenu@@6B@         0052c5e4     nafxcwd:winmenu.obj
 0002:00002604       ??_7CThreadData@@6B@       0052c604     nafxcwd:afxtls.obj
 0002:00002608       ?classCPtrList@CPtrList@@2UCRuntimeClass@@B 0052c608     nafxcwd:list_p.obj
 0002:00002624       ??_7CPtrList@@6B@          0052c624     nafxcwd:list_p.obj
 0002:00002638       ?classCScrollBar@CScrollBar@@2UCRuntimeClass@@B 0052c638     nafxcwd:winctrl1.obj
 0002:00002650       ?classCEdit@CEdit@@2UCRuntimeClass@@B 0052c650     nafxcwd:winctrl1.obj
 0002:00002668       ?classCComboBox@CComboBox@@2UCRuntimeClass@@B 0052c668     nafxcwd:winctrl1.obj
 0002:00002680       ?classCListBox@CListBox@@2UCRuntimeClass@@B 0052c680     nafxcwd:winctrl1.obj
 0002:00002698       ?classCButton@CButton@@2UCRuntimeClass@@B 0052c698     nafxcwd:winctrl1.obj
 0002:000026b0       ?classCStatic@CStatic@@2UCRuntimeClass@@B 0052c6b0     nafxcwd:winctrl1.obj
 0002:000026c8       ?classCCheckListBox@CCheckListBox@@2UCRuntimeClass@@B 0052c6c8     nafxcwd:winctrl3.obj
 0002:000026e0       ?messageMap@CCheckListBox@@1UAFX_MSGMAP@@B 0052c6e0     nafxcwd:winctrl3.obj
 0002:000026e8       ?_messageEntries@CCheckListBox@@0QBUAFX_MSGMAP_ENTRY@@B 0052c6e8     nafxcwd:winctrl3.obj
 0002:00002854       ??_7_AFX_CHECKLIST_STATE@@6B@ 0052c854     nafxcwd:winctrl3.obj
 0002:00002858       ?classCArchiveException@CArchiveException@@2UCRuntimeClass@@B 0052c858     nafxcwd:arcex.obj
 0002:00002898       ?classCFileException@CFileException@@2UCRuntimeClass@@B 0052c898     nafxcwd:filex.obj
 0002:000028f8       ??_7CByteArray@@6B@        0052c8f8     nafxcwd:array_b.obj
 0002:00002910       ??_7CWordArray@@6B@        0052c910     nafxcwd:array_w.obj
 0002:00002928       ??_7CDWordArray@@6B@       0052c928     nafxcwd:array_d.obj
 0002:00002940       ?classCUIntArray@CUIntArray@@2UCRuntimeClass@@B 0052c940     nafxcwd:array_u.obj
 0002:0000295c       ??_7CUIntArray@@6B@        0052c95c     nafxcwd:array_u.obj
 0002:00002970       ?classCPtrArray@CPtrArray@@2UCRuntimeClass@@B 0052c970     nafxcwd:array_p.obj
 0002:0000298c       ??_7CPtrArray@@6B@         0052c98c     nafxcwd:array_p.obj
 0002:000029a4       ??_7CObArray@@6B@          0052c9a4     nafxcwd:array_o.obj
 0002:000029bc       ??_7CStringArray@@6B@      0052c9bc     nafxcwd:array_s.obj
 0002:000029d0       ?classCMapWordToPtr@CMapWordToPtr@@2UCRuntimeClass@@B 0052c9d0     nafxcwd:map_wp.obj
 0002:000029ec       ??_7CMapWordToPtr@@6B@     0052c9ec     nafxcwd:map_wp.obj
 0002:00002a00       ?classCMapPtrToWord@CMapPtrToWord@@2UCRuntimeClass@@B 0052ca00     nafxcwd:map_pw.obj
 0002:00002a1c       ??_7CMapPtrToWord@@6B@     0052ca1c     nafxcwd:map_pw.obj
 0002:00002a34       ??_7CMapWordToOb@@6B@      0052ca34     nafxcwd:map_wo.obj
 0002:00002a48       ?classCMapStringToPtr@CMapStringToPtr@@2UCRuntimeClass@@B 0052ca48     nafxcwd:map_sp.obj
 0002:00002a64       ??_7CMapStringToPtr@@6B@   0052ca64     nafxcwd:map_sp.obj
 0002:00002a7c       ??_7CMapStringToOb@@6B@    0052ca7c     nafxcwd:map_so.obj
 0002:00002a94       ??_7CMapStringToString@@6B@ 0052ca94     nafxcwd:map_ss.obj
 0002:00002aa8       ?messageMap@CCommonDialog@@1UAFX_MSGMAP@@B 0052caa8     nafxcwd:dlgcomm.obj
 0002:00002ab0       ?_messageEntries@CCommonDialog@@0QBUAFX_MSGMAP_ENTRY@@B 0052cab0     nafxcwd:dlgcomm.obj
 0002:00002ae0       ?classCFileDialog@CFileDialog@@2UCRuntimeClass@@B 0052cae0     nafxcwd:dlgfile.obj
 0002:00002afc       ??_7CFileDialog@@6B@       0052cafc     nafxcwd:dlgfile.obj
 0002:00002bf0       ?classCPropertySheetEx@CPropertySheetEx@@2UCRuntimeClass@@B 0052cbf0     nafxcwd:dlgprop.obj
 0002:00002c08       ?classCPropertyPageEx@CPropertyPageEx@@2UCRuntimeClass@@B 0052cc08     nafxcwd:dlgprop.obj
 0002:00002c20       ?classCPropertySheet@CPropertySheet@@2UCRuntimeClass@@B 0052cc20     nafxcwd:dlgprop.obj
 0002:00002c38       ?classCPropertyPage@CPropertyPage@@2UCRuntimeClass@@B 0052cc38     nafxcwd:dlgprop.obj
 0002:00002c50       ?_afxPropSheetIDs@@3QBHB   0052cc50     nafxcwd:dlgprop.obj
 0002:00002c60       ?messageMap@CPropertySheet@@1UAFX_MSGMAP@@B 0052cc60     nafxcwd:dlgprop.obj
 0002:00002c68       ?_messageEntries@CPropertySheet@@0QBUAFX_MSGMAP_ENTRY@@B 0052cc68     nafxcwd:dlgprop.obj
 0002:00002d28       ?messageMap@CPropertyPage@@1UAFX_MSGMAP@@B 0052cd28     nafxcwd:dlgprop.obj
 0002:00002d30       ?_messageEntries@CPropertyPage@@0QBUAFX_MSGMAP_ENTRY@@B 0052cd30     nafxcwd:dlgprop.obj
 0002:00002d7c       ??_7CPropertyPage@@6B@     0052cd7c     nafxcwd:dlgprop.obj
 0002:00002e78       ??_7CPropertySheet@@6B@    0052ce78     nafxcwd:dlgprop.obj
 0002:00002f48       ??_7CPropertyPageEx@@6B@   0052cf48     nafxcwd:dlgprop.obj
 0002:00003044       ??_7CPropertySheetEx@@6B@  0052d044     nafxcwd:dlgprop.obj
 0002:00003110       ?messageMap@CSplitterWnd@@1UAFX_MSGMAP@@B 0052d110     nafxcwd:winsplit.obj
 0002:00003118       ?_messageEntries@CSplitterWnd@@0QBUAFX_MSGMAP_ENTRY@@B 0052d118     nafxcwd:winsplit.obj
 0002:000032cc       ??_7CSplitterWnd@@6B@      0052d2cc     nafxcwd:winsplit.obj
 0002:000033f8       ?messageMap@CControlBar@@1UAFX_MSGMAP@@B 0052d3f8     nafxcwd:barcore.obj
 0002:00003400       ?_messageEntries@CControlBar@@0QBUAFX_MSGMAP_ENTRY@@B 0052d400     nafxcwd:barcore.obj
 0002:000035b4       ??_7CControlBar@@6B@       0052d5b4     nafxcwd:barcore.obj
 0002:000036a0       ?classCToolBar@CToolBar@@2UCRuntimeClass@@B 0052d6a0     nafxcwd:bartool.obj
 0002:000036b8       ?messageMap@CToolBar@@1UAFX_MSGMAP@@B 0052d6b8     nafxcwd:bartool.obj
 0002:000036c0       ?_messageEntries@CToolBar@@0QBUAFX_MSGMAP_ENTRY@@B 0052d6c0     nafxcwd:bartool.obj
 0002:000037f8       ?_afxSysColorMap@@3QBUAFX_COLORMAP@@B 0052d7f8     nafxcwd:bartool.obj
 0002:0000381c       ??_7CToolBar@@6B@          0052d81c     nafxcwd:bartool.obj
 0002:0000390c       ??_7CToolCmdUI@@6B@        0052d90c     nafxcwd:bartool.obj
 0002:00003920       ?classCDialogBar@CDialogBar@@2UCRuntimeClass@@B 0052d920     nafxcwd:bardlg.obj
 0002:00003938       ?messageMap@CDialogBar@@1UAFX_MSGMAP@@B 0052d938     nafxcwd:bardlg.obj
 0002:00003940       ?_messageEntries@CDialogBar@@0QBUAFX_MSGMAP_ENTRY@@B 0052d940     nafxcwd:bardlg.obj
 0002:00003974       ??_7CDialogBar@@6B@        0052d974     nafxcwd:bardlg.obj
 0002:00003a80       ?_afxRectInfo@@3QBUAFX_RECTINFO@@B 0052da80     nafxcwd:trckrect.obj
 0002:00003aa0       ?_afxHandleInfo@@3QBUAFX_HANDLEINFO@@B 0052daa0     nafxcwd:trckrect.obj
 0002:00003ba0       ?classCBitmapButton@CBitmapButton@@2UCRuntimeClass@@B 0052dba0     nafxcwd:winbtn.obj
 0002:00003bb8       ?classCControlBar@CControlBar@@2UCRuntimeClass@@B 0052dbb8     nafxcwd:winfrm.obj
 0002:00003bd0       ?classCView@CView@@2UCRuntimeClass@@B 0052dbd0     nafxcwd:winfrm.obj
 0002:00003be8       ?classCFrameWnd@CFrameWnd@@2UCRuntimeClass@@B 0052dbe8     nafxcwd:winfrm.obj
 0002:00003c00       ?messageMap@CFrameWnd@@1UAFX_MSGMAP@@B 0052dc00     nafxcwd:winfrm.obj
 0002:00003c08       ?_messageEntries@CFrameWnd@@0QBUAFX_MSGMAP_ENTRY@@B 0052dc08     nafxcwd:winfrm.obj
 0002:00004074       ??_7CFrameWnd@@6B@         0052e074     nafxcwd:winfrm.obj
 0002:00004174       ??_7CRecentFileList@@6B@   0052e174     nafxcwd:filelist.obj
 0002:00004190       ?classCDocTemplate@CDocTemplate@@2UCRuntimeClass@@B 0052e190     nafxcwd:doctempl.obj
 0002:000041ac       ??_7CDocTemplate@@6B@      0052e1ac     nafxcwd:doctempl.obj
 0002:00004240       ?classCColorDialog@CColorDialog@@2UCRuntimeClass@@B 0052e240     nafxcwd:dlgclr.obj
 0002:00004258       ?messageMap@CColorDialog@@1UAFX_MSGMAP@@B 0052e258     nafxcwd:dlgclr.obj
 0002:00004260       ?_messageEntries@CColorDialog@@0QBUAFX_MSGMAP_ENTRY@@B 0052e260     nafxcwd:dlgclr.obj
 0002:00004294       ??_7_AFX_COLOR_STATE@@6B@  0052e294     nafxcwd:dlgclr.obj
 0002:0000429c       ??_7CColorDialog@@6B@      0052e29c     nafxcwd:dlgclr.obj
 0002:0000437c       ??_7_AFX_PROPPAGEFONTINFO@@6B@ 0052e37c     nafxcwd:ccdata.obj
 0002:00004380       ?classCRichEditCtrl@CRichEditCtrl@@2UCRuntimeClass@@B 0052e380     nafxcwd:winctrl2.obj
 0002:00004398       ?classCTempImageList@CTempImageList@@2UCRuntimeClass@@B 0052e398     nafxcwd:winctrl2.obj
 0002:000043b0       ?classCImageList@CImageList@@2UCRuntimeClass@@B 0052e3b0     nafxcwd:winctrl2.obj
 0002:000043c8       ?classCStatusBarCtrl@CStatusBarCtrl@@2UCRuntimeClass@@B 0052e3c8     nafxcwd:winctrl2.obj
 0002:000043e0       ?classCToolBarCtrl@CToolBarCtrl@@2UCRuntimeClass@@B 0052e3e0     nafxcwd:winctrl2.obj
 0002:000043f8       ?classCListCtrl@CListCtrl@@2UCRuntimeClass@@B 0052e3f8     nafxcwd:winctrl2.obj
 0002:00004410       ?classCTreeCtrl@CTreeCtrl@@2UCRuntimeClass@@B 0052e410     nafxcwd:winctrl2.obj
 0002:00004428       ?classCTabCtrl@CTabCtrl@@2UCRuntimeClass@@B 0052e428     nafxcwd:winctrl2.obj
 0002:00004440       ?classCAnimateCtrl@CAnimateCtrl@@2UCRuntimeClass@@B 0052e440     nafxcwd:winctrl2.obj
 0002:00004458       ?classCHotKeyCtrl@CHotKeyCtrl@@2UCRuntimeClass@@B 0052e458     nafxcwd:winctrl2.obj
 0002:00004470       ?classCHeaderCtrl@CHeaderCtrl@@2UCRuntimeClass@@B 0052e470     nafxcwd:winctrl2.obj
 0002:00004488       ?classCComboBoxEx@CComboBoxEx@@2UCRuntimeClass@@B 0052e488     nafxcwd:winctrl2.obj
 0002:000044a0       ?classCProgressCtrl@CProgressCtrl@@2UCRuntimeClass@@B 0052e4a0     nafxcwd:winctrl2.obj
 0002:000044b8       ?classCSliderCtrl@CSliderCtrl@@2UCRuntimeClass@@B 0052e4b8     nafxcwd:winctrl2.obj
 0002:000044d0       ?classCSpinButtonCtrl@CSpinButtonCtrl@@2UCRuntimeClass@@B 0052e4d0     nafxcwd:winctrl2.obj
 0002:000044e8       ?classCDragListBox@CDragListBox@@2UCRuntimeClass@@B 0052e4e8     nafxcwd:winctrl2.obj
 0002:00004510       ?messageMap@CTabCtrl@@1UAFX_MSGMAP@@B 0052e510     nafxcwd:winctrl2.obj
 0002:00004518       ?_messageEntries@CTabCtrl@@0QBUAFX_MSGMAP_ENTRY@@B 0052e518     nafxcwd:winctrl2.obj
 0002:00004548       ?messageMap@CTreeCtrl@@1UAFX_MSGMAP@@B 0052e548     nafxcwd:winctrl2.obj
 0002:00004550       ?_messageEntries@CTreeCtrl@@0QBUAFX_MSGMAP_ENTRY@@B 0052e550     nafxcwd:winctrl2.obj
 0002:00004580       ?messageMap@CListCtrl@@1UAFX_MSGMAP@@B 0052e580     nafxcwd:winctrl2.obj
 0002:00004588       ?_messageEntries@CListCtrl@@0QBUAFX_MSGMAP_ENTRY@@B 0052e588     nafxcwd:winctrl2.obj
 0002:000045b8       ?messageMap@CToolBarCtrl@@1UAFX_MSGMAP@@B 0052e5b8     nafxcwd:winctrl2.obj
 0002:000045c0       ?_messageEntries@CToolBarCtrl@@0QBUAFX_MSGMAP_ENTRY@@B 0052e5c0     nafxcwd:winctrl2.obj
 0002:000045f4       ??_7CDragListBox@@6B@      0052e5f4     nafxcwd:winctrl2.obj
 0002:000046e4       ??_7CToolBarCtrl@@6B@      0052e6e4     nafxcwd:winctrl2.obj
 0002:000047a8       ??_7CStatusBarCtrl@@6B@    0052e7a8     nafxcwd:winctrl2.obj
 0002:00004870       ??_7CListCtrl@@6B@         0052e870     nafxcwd:winctrl2.obj
 0002:00004938       ??_7CTreeCtrl@@6B@         0052e938     nafxcwd:winctrl2.obj
 0002:000049fc       ??_7CSpinButtonCtrl@@6B@   0052e9fc     nafxcwd:winctrl2.obj
 0002:00004ac0       ??_7CSliderCtrl@@6B@       0052eac0     nafxcwd:winctrl2.obj
 0002:00004b84       ??_7CProgressCtrl@@6B@     0052eb84     nafxcwd:winctrl2.obj
 0002:00004c48       ??_7CHeaderCtrl@@6B@       0052ec48     nafxcwd:winctrl2.obj
 0002:00004d10       ??_7CHotKeyCtrl@@6B@       0052ed10     nafxcwd:winctrl2.obj
 0002:00004dd4       ??_7CTabCtrl@@6B@          0052edd4     nafxcwd:winctrl2.obj
 0002:00004e9c       ??_7CAnimateCtrl@@6B@      0052ee9c     nafxcwd:winctrl2.obj
 0002:00004f60       ??_7CRichEditCtrl@@6B@     0052ef60     nafxcwd:winctrl2.obj
 0002:00005024       ??_7CImageList@@6B@        0052f024     nafxcwd:winctrl2.obj
 0002:0000503c       ??_7CTempImageList@@6B@    0052f03c     nafxcwd:winctrl2.obj
 0002:00005050       ?classCCtrlView@CCtrlView@@2UCRuntimeClass@@B 0052f050     nafxcwd:viewcore.obj
 0002:00005068       ?classCSplitterWnd@CSplitterWnd@@2UCRuntimeClass@@B 0052f068     nafxcwd:viewcore.obj
 0002:00005080       ?messageMap@CCtrlView@@1UAFX_MSGMAP@@B 0052f080     nafxcwd:viewcore.obj
 0002:00005088       ?_messageEntries@CCtrlView@@0QBUAFX_MSGMAP_ENTRY@@B 0052f088     nafxcwd:viewcore.obj
 0002:000050b8       ?messageMap@CView@@1UAFX_MSGMAP@@B 0052f0b8     nafxcwd:viewcore.obj
 0002:000050c0       ?_messageEntries@CView@@0QBUAFX_MSGMAP_ENTRY@@B 0052f0c0     nafxcwd:viewcore.obj
 0002:000051e4       ??_7CView@@6B@             0052f1e4     nafxcwd:viewcore.obj
 0002:000052f8       ??_7CCtrlView@@6B@         0052f2f8     nafxcwd:viewcore.obj
 0002:00005408       ?classCScrollView@CScrollView@@2UCRuntimeClass@@B 0052f408     nafxcwd:viewscrl.obj
 0002:00005420       ?sizeDefault@CScrollView@@2UtagSIZE@@B 0052f420     nafxcwd:viewscrl.obj
 0002:00005428       ?messageMap@CScrollView@@1UAFX_MSGMAP@@B 0052f428     nafxcwd:viewscrl.obj
 0002:00005430       ?_messageEntries@CScrollView@@0QBUAFX_MSGMAP_ENTRY@@B 0052f430     nafxcwd:viewscrl.obj
 0002:000054ac       ??_7CScrollView@@6B@       0052f4ac     nafxcwd:viewscrl.obj
 0002:000055c0       ?classCToolTipCtrl@CToolTipCtrl@@2UCRuntimeClass@@B 0052f5c0     nafxcwd:tooltip.obj
 0002:000055d8       ?messageMap@CToolTipCtrl@@1UAFX_MSGMAP@@B 0052f5d8     nafxcwd:tooltip.obj
 0002:000055e0       ?_messageEntries@CToolTipCtrl@@0QBUAFX_MSGMAP_ENTRY@@B 0052f5e0     nafxcwd:tooltip.obj
 0002:0000565c       ??_7CToolTipCtrl@@6B@      0052f65c     nafxcwd:tooltip.obj
 0002:00005724       ??_7CDockContext@@6B@      0052f724     nafxcwd:dockcont.obj
 0002:00005730       ?classCFile@CFile@@2UCRuntimeClass@@B 0052f730     nafxcwd:filecore.obj
 0002:00005748       _afxIID_IShellLinkA        0052f748     nafxcwd:filecore.obj
 0002:00005758       _afxCLSID_ShellLink        0052f758     nafxcwd:filecore.obj
 0002:0000576c       ??_7CFile@@6B@             0052f76c     nafxcwd:filecore.obj
 0002:000057c8       ?classCDocManager@CDocManager@@2UCRuntimeClass@@B 0052f7c8     nafxcwd:docmgr.obj
 0002:000057e0       ?messageMap@CNewTypeDlg@@1UAFX_MSGMAP@@B 0052f7e0     nafxcwd:docmgr.obj
 0002:000057e8       ?_messageEntries@CNewTypeDlg@@0QBUAFX_MSGMAP_ENTRY@@B 0052f7e8     nafxcwd:docmgr.obj
 0002:00005818       ?_afxShellNewValue@@3QBDB  0052f818     nafxcwd:docmgr.obj
 0002:0000581c       ?_afxShellNewValueName@@3QBDB 0052f81c     nafxcwd:docmgr.obj
 0002:00005828       ?_afxDDEPrintTo@@3QBDB     0052f828     nafxcwd:docmgr.obj
 0002:00005848       ?_afxDDEPrint@@3QBDB       0052f848     nafxcwd:docmgr.obj
 0002:00005858       ?_afxDDEOpen@@3QBDB        0052f858     nafxcwd:docmgr.obj
 0002:00005868       ?_afxDDEExec@@3QBDB        0052f868     nafxcwd:docmgr.obj
 0002:00005870       ?_afxDDEArg@@3QBDB         0052f870     nafxcwd:docmgr.obj
 0002:00005878       ?_afxPrintToArg@@3QBDB     0052f878     nafxcwd:docmgr.obj
 0002:00005894       ?_afxPrintArg@@3QBDB       0052f894     nafxcwd:docmgr.obj
 0002:000058a0       ?_afxOpenArg@@3QBDB        0052f8a0     nafxcwd:docmgr.obj
 0002:000058a8       ?_afxCommand@@3QBDB        0052f8a8     nafxcwd:docmgr.obj
 0002:000058b0       ?_afxIconIndexFmt@@3QBDB   0052f8b0     nafxcwd:docmgr.obj
 0002:000058b4       ?_afxShellNewFmt@@3QBDB    0052f8b4     nafxcwd:docmgr.obj
 0002:000058c0       ?_afxDefaultIconFmt@@3QBDB 0052f8c0     nafxcwd:docmgr.obj
 0002:000058d0       ?_afxShellPrintToFmt@@3QBDB 0052f8d0     nafxcwd:docmgr.obj
 0002:000058e4       ?_afxShellPrintFmt@@3QBDB  0052f8e4     nafxcwd:docmgr.obj
 0002:000058f8       ?_afxShellOpenFmt@@3QBDB   0052f8f8     nafxcwd:docmgr.obj
 0002:00005910       ??_7CDocManager@@6B@       0052f910     nafxcwd:docmgr.obj
 0002:00005958       ??_7CNewTypeDlg@@6B@       0052f958     nafxcwd:docmgr.obj
 0002:00005a30       ?classCDocument@CDocument@@2UCRuntimeClass@@B 0052fa30     nafxcwd:doccore.obj
 0002:00005a48       ?messageMap@CDocument@@1UAFX_MSGMAP@@B 0052fa48     nafxcwd:doccore.obj
 0002:00005a50       ?_messageEntries@CDocument@@0QBUAFX_MSGMAP_ENTRY@@B 0052fa50     nafxcwd:doccore.obj
 0002:00005ab4       ??_7CDocument@@6B@         0052fab4     nafxcwd:doccore.obj
 0002:00005b70       ??_7CMirrorFile@@6B@       0052fb70     nafxcwd:doccore.obj
 0002:00005bd0       ??_7CArchiveStream@@6B@    0052fbd0     nafxcwd:arcstrm.obj
 0002:00005c08       ?classCMiniDockFrameWnd@CMiniDockFrameWnd@@2UCRuntimeClass@@B 0052fc08     nafxcwd:bardock.obj
 0002:00005c20       ?classCDockBar@CDockBar@@2UCRuntimeClass@@B 0052fc20     nafxcwd:bardock.obj
 0002:00005c38       ?messageMap@CMiniDockFrameWnd@@1UAFX_MSGMAP@@B 0052fc38     nafxcwd:bardock.obj
 0002:00005c40       ?_messageEntries@CMiniDockFrameWnd@@0QBUAFX_MSGMAP_ENTRY@@B 0052fc40     nafxcwd:bardock.obj
 0002:00005cb8       ?messageMap@CDockBar@@1UAFX_MSGMAP@@B 0052fcb8     nafxcwd:bardock.obj
 0002:00005cc0       ?_messageEntries@CDockBar@@0QBUAFX_MSGMAP_ENTRY@@B 0052fcc0     nafxcwd:bardock.obj
 0002:00005d54       ??_7CDockBar@@6B@          0052fd54     nafxcwd:bardock.obj
 0002:00005e44       ??_7CMiniDockFrameWnd@@6B@ 0052fe44     nafxcwd:bardock.obj
 0002:00005f48       ?classCMiniFrameWnd@CMiniFrameWnd@@2UCRuntimeClass@@B 0052ff48     nafxcwd:winmini.obj
 0002:00005f60       ?messageMap@CMiniFrameWnd@@1UAFX_MSGMAP@@B 0052ff60     nafxcwd:winmini.obj
 0002:00005f68       ?_messageEntries@CMiniFrameWnd@@0QBUAFX_MSGMAP_ENTRY@@B 0052ff68     nafxcwd:winmini.obj
 0002:000060ec       ??_7CMiniFrameWnd@@6B@     005300ec     nafxcwd:winmini.obj
 0002:000061e8       ?dwDockBarMap@CFrameWnd@@1QAY01$$CBKA 005301e8     nafxcwd:winfrm2.obj
 0002:0000620c       ??_7type_info@@6B@         0053020c     libcmtd:typinfo.obj
 0002:00006210       ??_C@_0O@FHMD@i386?2chkesp?4c?$AA@ 00530210     libcmtd:chkesp.obj
 0002:00006220       ??_C@_0NM@ELEE@The?5value?5of?5ESP?5was?5not?5properl@ 00530220     libcmtd:chkesp.obj
 0002:000062fc       ??_C@_0P@LNLA@format?5?$CB?$DN?5NULL?$AA@ 005302fc     libcmtd:sprintf.obj
 0002:0000630c       ??_C@_09NEAG@sprintf?4c?$AA@ 0053030c     libcmtd:sprintf.obj
 0002:00006318       ??_C@_0P@OOIN@string?5?$CB?$DN?5NULL?$AA@ 00530318     libcmtd:sprintf.obj
 0002:00006328       ??_C@_08CEA@onexit?4c?$AA@ 00530328     libcmtd:onexit.obj
 0002:00006364       ??_C@_06DPMO@Client?$AA@   00530364     libcmtd:dbgheap.obj
 0002:0000636c       ??_C@_06BAFM@Ignore?$AA@   0053036c     libcmtd:dbgheap.obj
 0002:00006374       ??_C@_03DICE@CRT?$AA@      00530374     libcmtd:dbgheap.obj
 0002:00006378       ??_C@_06BILL@Normal?$AA@   00530378     libcmtd:dbgheap.obj
 0002:00006380       ??_C@_04NEN@Free?$AA@      00530380     libcmtd:dbgheap.obj
 0002:00006388       ??_C@_0DC@CGID@Error?3?5memory?5allocation?3?5bad?5me@ 00530388     libcmtd:dbgheap.obj
 0002:000063bc       ??_C@_0CE@FMIA@Invalid?5allocation?5size?3?5?$CFu?5byte@ 005303bc     libcmtd:dbgheap.obj
 0002:000063e0       ??_C@_02DILL@?$CFs?$AA@    005303e0     libcmtd:dbgheap.obj
 0002:000063e4       ??_C@_0CB@CPBI@Client?5hook?5allocation?5failure?4?6@ 005303e4     libcmtd:dbgheap.obj
 0002:00006408       ??_C@_0DF@DKHF@Client?5hook?5allocation?5failure?5a@ 00530408     libcmtd:dbgheap.obj
 0002:00006440       ??_C@_09IMJC@dbgheap?4c?$AA@ 00530440     libcmtd:dbgheap.obj
 0002:0000644c       ??_C@_0BC@EPKL@_CrtCheckMemory?$CI?$CJ?$AA@ 0053044c     libcmtd:dbgheap.obj
 0002:00006460       ??_C@_0BK@JDHA@_pFirstBlock?5?$DN?$DN?5pOldBlock?$AA@ 00530460     libcmtd:dbgheap.obj
 0002:0000647c       ??_C@_0BJ@NMEF@_pLastBlock?5?$DN?$DN?5pOldBlock?$AA@ 0053047c     libcmtd:dbgheap.obj
 0002:00006498       ??_C@_0DC@BOCN@fRealloc?5?$HM?$HM?5?$CI?$CBfRealloc?5?$CG?$CG?5pNewBl@ 00530498     libcmtd:dbgheap.obj
 0002:000064cc       ??_C@_0DK@DKOM@_BLOCK_TYPE?$CIpOldBlock?9?$DOnBlockUse@ 005304cc     libcmtd:dbgheap.obj
 0002:00006508       ??_C@_0EF@EDKM@pOldBlock?9?$DOnLine?5?$DN?$DN?5IGNORE_LINE?5@ 00530508     libcmtd:dbgheap.obj
 0002:00006550       ??_C@_0CC@GPMO@_CrtIsValidHeapPointer?$CIpUserData@ 00530550     libcmtd:dbgheap.obj
 0002:00006574       ??_C@_0CN@FHGE@Allocation?5too?5large?5or?5negative@ 00530574     libcmtd:dbgheap.obj
 0002:000065a4       ??_C@_0CE@EAMN@Client?5hook?5re?9allocation?5failur@ 005305a4     libcmtd:dbgheap.obj
 0002:000065c8       ??_C@_0DI@KKMM@Client?5hook?5re?9allocation?5failur@ 005305c8     libcmtd:dbgheap.obj
 0002:00006600       ??_C@_0BG@JCEC@_pFirstBlock?5?$DN?$DN?5pHead?$AA@ 00530600     libcmtd:dbgheap.obj
 0002:00006618       ??_C@_0BF@NLNN@_pLastBlock?5?$DN?$DN?5pHead?$AA@ 00530618     libcmtd:dbgheap.obj
 0002:00006630       ??_C@_0BO@PLHH@pHead?9?$DOnBlockUse?5?$DN?$DN?5nBlockUse?$AA@ 00530630     libcmtd:dbgheap.obj
 0002:00006650       ??_C@_0DN@KKIO@pHead?9?$DOnLine?5?$DN?$DN?5IGNORE_LINE?5?$CG?$CG?5p@ 00530650     libcmtd:dbgheap.obj
 0002:00006690       ??_C@_0CK@OJNB@DAMAGE?3?5after?5?$CFhs?5block?5?$CI?$CD?$CFd?$CJ?5at@ 00530690     libcmtd:dbgheap.obj
 0002:000066bc       ??_C@_0CL@IJIL@DAMAGE?3?5before?5?$CFhs?5block?5?$CI?$CD?$CFd?$CJ?5a@ 005306bc     libcmtd:dbgheap.obj
 0002:000066e8       ??_C@_0CH@PHOC@_BLOCK_TYPE_IS_VALID?$CIpHead?9?$DOnBlo@ 005306e8     libcmtd:dbgheap.obj
 0002:00006710       ??_C@_0BL@MBNA@Client?5hook?5free?5failure?4?6?$AA@ 00530710     libcmtd:dbgheap.obj
 0002:0000672c       ??_C@_0DK@EKKL@memory?5check?5error?5at?50x?$CF08X?5?$DN?50@ 0053072c     libcmtd:dbgheap.obj
 0002:00006768       ??_C@_0CJ@GCII@?$CFhs?5located?5at?50x?$CF08X?5is?5?$CFu?5byte@ 00530768     libcmtd:dbgheap.obj
 0002:00006794       ??_C@_0CA@EJPI@?$CFhs?5allocated?5at?5file?5?$CFhs?$CI?$CFd?$CJ?4?6?$AA@ 00530794     libcmtd:dbgheap.obj
 0002:000067b4       ??_C@_0CJ@LHHG@DAMAGE?3?5on?5top?5of?5Free?5block?5at?5@ 005307b4     libcmtd:dbgheap.obj
 0002:000067e0       ??_C@_07GJHM@DAMAGED?$AA@  005307e0     libcmtd:dbgheap.obj
 0002:000067e8       ??_C@_0CL@ODIE@_heapchk?5fails?5with?5unknown?5retu@ 005307e8     libcmtd:dbgheap.obj
 0002:00006814       ??_C@_0CC@EHNC@_heapchk?5fails?5with?5_HEAPBADPTR?4@ 00530814     libcmtd:dbgheap.obj
 0002:00006838       ??_C@_0CC@JNDP@_heapchk?5fails?5with?5_HEAPBADEND?4@ 00530838     libcmtd:dbgheap.obj
 0002:0000685c       ??_C@_0CD@DNMG@_heapchk?5fails?5with?5_HEAPBADNODE@ 0053085c     libcmtd:dbgheap.obj
 0002:00006880       ??_C@_0CE@JMCB@_heapchk?5fails?5with?5_HEAPBADBEGI@ 00530880     libcmtd:dbgheap.obj
 0002:000068a4       ??_C@_0CD@MEMI@Bad?5memory?5block?5found?5at?50x?$CF08X@ 005308a4     libcmtd:dbgheap.obj
 0002:000068c8       ??_C@_0CI@GMAO@_CrtMemCheckPoint?3?5NULL?5state?5po@ 005308c8     libcmtd:dbgheap.obj
 0002:000068f0       ??_C@_0CI@MNAE@_CrtMemDifference?3?5NULL?5state?5po@ 005308f0     libcmtd:dbgheap.obj
 0002:00006918       ??_C@_0BH@PKIJ@Object?5dump?5complete?4?6?$AA@ 00530918     libcmtd:dbgheap.obj
 0002:00006930       ??_C@_0DB@DBPF@crt?5block?5at?50x?$CF08X?0?5subtype?5?$CFx?0@ 00530930     libcmtd:dbgheap.obj
 0002:00006964       ??_C@_0CI@JLM@normal?5block?5at?50x?$CF08X?0?5?$CFu?5bytes@ 00530964     libcmtd:dbgheap.obj
 0002:0000698c       ??_C@_0DE@PFEA@client?5block?5at?50x?$CF08X?0?5subtype?5@ 0053098c     libcmtd:dbgheap.obj
 0002:000069c0       ??_C@_06MBCE@?$HL?$CFld?$HN?5?$AA@ 005309c0     libcmtd:dbgheap.obj
 0002:000069c8       ??_C@_0L@BLDJ@?$CFhs?$CI?$CFd?$CJ?5?3?5?$AA@ 005309c8     libcmtd:dbgheap.obj
 0002:000069d4       ??_C@_0BE@FEMA@?$CDFile?5Error?$CD?$CI?$CFd?$CJ?5?3?5?$AA@ 005309d4     libcmtd:dbgheap.obj
 0002:000069e8       ??_C@_0BE@FPPM@Dumping?5objects?5?9?$DO?6?$AA@ 005309e8     libcmtd:dbgheap.obj
 0002:000069fc       ??_C@_0BA@POLM@?5Data?3?5?$DM?$CFs?$DO?5?$CFs?6?$AA@ 005309fc     libcmtd:dbgheap.obj
 0002:00006a0c       ??_C@_05JLAO@?$CF?42X?5?$AA@ 00530a0c     libcmtd:dbgheap.obj
 0002:00006a14       ??_C@_0BI@KONA@Detected?5memory?5leaks?$CB?6?$AA@ 00530a14     libcmtd:dbgheap.obj
 0002:00006a2c       ??_C@_0BP@LCCN@Total?5allocations?3?5?$CFld?5bytes?4?6?$AA@ 00530a2c     libcmtd:dbgheap.obj
 0002:00006a4c       ??_C@_0CB@COID@Largest?5number?5used?3?5?$CFld?5bytes?4?6@ 00530a4c     libcmtd:dbgheap.obj
 0002:00006a70       ??_C@_0BO@MEJD@?$CFld?5bytes?5in?5?$CFld?5?$CFhs?5Blocks?4?6?$AA@ 00530a70     libcmtd:dbgheap.obj
 0002:00006a90       ??_C@_0L@BOLO@threadex?4c?$AA@ 00530a90     libcmtd:threadex.obj
 0002:00006aac       ??_C@_0BB@BLL@Assertion?5Failed?$AA@ 00530aac     libcmtd:dbgrpt.obj
 0002:00006ac0       ??_C@_05CKBG@Error?$AA@    00530ac0     libcmtd:dbgrpt.obj
 0002:00006ac8       ??_C@_07JCGI@Warning?$AA@  00530ac8     libcmtd:dbgrpt.obj
 0002:00006ad0       ??_C@_0M@ODEP@?$CFs?$CI?$CFd?$CJ?5?3?5?$CFs?$AA@ 00530ad0     libcmtd:dbgrpt.obj
 0002:00006adc       ??_C@_01BJG@?6?$AA@        00530adc     libcmtd:dbgrpt.obj
 0002:00006ae0       ??_C@_01FEHD@?$AN?$AA@     00530ae0     libcmtd:dbgrpt.obj
 0002:00006ae4       ??_C@_0BC@OIMC@Assertion?5failed?$CB?$AA@ 00530ae4     libcmtd:dbgrpt.obj
 0002:00006af8       ??_C@_0BD@BEAK@Assertion?5failed?3?5?$AA@ 00530af8     libcmtd:dbgrpt.obj
 0002:00006b0c       ??_C@_0CL@LCCP@_CrtDbgReport?3?5String?5too?5long?5o@ 00530b0c     libcmtd:dbgrpt.obj
 0002:00006b38       ??_C@_0DC@EMDK@Second?5Chance?5Assertion?5Failed?3?5@ 00530b38     libcmtd:dbgrpt.obj
 0002:00006b6c       ??_C@_09NJAK@wsprintfA?$AA@ 00530b6c     libcmtd:dbgrpt.obj
 0002:00006b78       ??_C@_0L@HKL@user32?4dll?$AA@ 00530b78     libcmtd:dbgrpt.obj
 0002:00006b84       ??_C@_0CD@GCMD@Microsoft?5Visual?5C?$CL?$CL?5Debug?5Libra@ 00530b84     libcmtd:dbgrpt.obj
 0002:00006ba8       ??_C@_0FD@EBDD@Debug?5?$CFs?$CB?6?6Program?3?5?$CFs?$CFs?$CFs?$CFs?$CFs?$CFs@ 00530ba8     libcmtd:dbgrpt.obj
 0002:00006bfc       ??_C@_09DCKN@?6Module?3?5?$AA@ 00530bfc     libcmtd:dbgrpt.obj
 0002:00006c08       ??_C@_07HJII@?6File?3?5?$AA@ 00530c08     libcmtd:dbgrpt.obj
 0002:00006c10       ??_C@_07LFGN@?6Line?3?5?$AA@ 00530c10     libcmtd:dbgrpt.obj
 0002:00006c18       ??_C@_02JJJH@?6?6?$AA@     00530c18     libcmtd:dbgrpt.obj
 0002:00006c1c       ??_C@_0N@NOAB@Expression?3?5?$AA@ 00530c1c     libcmtd:dbgrpt.obj
 0002:00006c2c       ??_C@_0HD@BHFH@?6?6For?5information?5on?5how?5your?5pr@ 00530c2c     libcmtd:dbgrpt.obj
 0002:00006ca0       ??_C@_03NAME@?4?4?4?$AA@   00530ca0     libcmtd:dbgrpt.obj
 0002:00006ca4       ??_C@_0BH@NNCD@?$DMprogram?5name?5unknown?$DO?$AA@ 00530ca4     libcmtd:dbgrpt.obj
 0002:00006cbc       ??_C@_08GFHP@dbgrpt?4c?$AA@ 00530cbc     libcmtd:dbgrpt.obj
 0002:00006cc8       ??_C@_0BG@FBEA@szUserMessage?5?$CB?$DN?5NULL?$AA@ 00530cc8     libcmtd:dbgrpt.obj
 0002:00006ce0       ??_C@_0L@HE@vsprintf?4c?$AA@ 00530ce0     libcmtd:vsnprint.obj
 0002:00006cec       ??_C@_08LLGM@gmtime?4c?$AA@ 00530cec     libcmtd:gmtime.obj
 0002:00006cf8       ??_C@_07CJME@H?3mm?3ss?$AA@ 00530cf8     libcmtd:strftime.obj
 0002:00006d00       ??_C@_0BE@MHI@dddd?0?5MMMM?5dd?0?5yyyy?$AA@ 00530d00     libcmtd:strftime.obj
 0002:00006d14       ??_C@_06HCAD@M?1d?1yy?$AA@ 00530d14     libcmtd:strftime.obj
 0002:00006d1c       ??_C@_02DBLP@PM?$AA@       00530d1c     libcmtd:strftime.obj
 0002:00006d20       ??_C@_02ENLM@AM?$AA@       00530d20     libcmtd:strftime.obj
 0002:00006d24       ??_C@_08LIDF@December?$AA@ 00530d24     libcmtd:strftime.obj
 0002:00006d30       ??_C@_08NJLI@November?$AA@ 00530d30     libcmtd:strftime.obj
 0002:00006d3c       ??_C@_07IAMM@October?$AA@  00530d3c     libcmtd:strftime.obj
 0002:00006d44       ??_C@_09MKGD@September?$AA@ 00530d44     libcmtd:strftime.obj
 0002:00006d50       ??_C@_06PADP@August?$AA@   00530d50     libcmtd:strftime.obj
 0002:00006d58       ??_C@_04PIJO@July?$AA@     00530d58     libcmtd:strftime.obj
 0002:00006d60       ??_C@_04ICFP@June?$AA@     00530d60     libcmtd:strftime.obj
 0002:00006d68       ??_C@_05JFGC@April?$AA@    00530d68     libcmtd:strftime.obj
 0002:00006d70       ??_C@_05FGPD@March?$AA@    00530d70     libcmtd:strftime.obj
 0002:00006d78       ??_C@_08PGBA@February?$AA@ 00530d78     libcmtd:strftime.obj
 0002:00006d84       ??_C@_07BPKJ@January?$AA@  00530d84     libcmtd:strftime.obj
 0002:00006d8c       ??_C@_03PGJO@Dec?$AA@      00530d8c     libcmtd:strftime.obj
 0002:00006d90       ??_C@_03PDLM@Nov?$AA@      00530d90     libcmtd:strftime.obj
 0002:00006d94       ??_C@_03BLHK@Oct?$AA@      00530d94     libcmtd:strftime.obj
 0002:00006d98       ??_C@_03DPFM@Sep?$AA@      00530d98     libcmtd:strftime.obj
 0002:00006d9c       ??_C@_03CMCH@Aug?$AA@      00530d9c     libcmtd:strftime.obj
 0002:00006da0       ??_C@_03OBKI@Jul?$AA@      00530da0     libcmtd:strftime.obj
 0002:00006da4       ??_C@_03LEIG@Jun?$AA@      00530da4     libcmtd:strftime.obj
 0002:00006da8       ??_C@_03MGHB@May?$AA@      00530da8     libcmtd:strftime.obj
 0002:00006dac       ??_C@_03MJJM@Apr?$AA@      00530dac     libcmtd:strftime.obj
 0002:00006db0       ??_C@_03GNHA@Mar?$AA@      00530db0     libcmtd:strftime.obj
 0002:00006db4       ??_C@_03PICE@Feb?$AA@      00530db4     libcmtd:strftime.obj
 0002:00006db8       ??_C@_03IEIF@Jan?$AA@      00530db8     libcmtd:strftime.obj
 0002:00006dbc       ??_C@_08FAKH@Saturday?$AA@ 00530dbc     libcmtd:strftime.obj
 0002:00006dc8       ??_C@_06ONCK@Friday?$AA@   00530dc8     libcmtd:strftime.obj
 0002:00006dd0       ??_C@_08CCFO@Thursday?$AA@ 00530dd0     libcmtd:strftime.obj
 0002:00006ddc       ??_C@_09PBIN@Wednesday?$AA@ 00530ddc     libcmtd:strftime.obj
 0002:00006de8       ??_C@_07BMBC@Tuesday?$AA@  00530de8     libcmtd:strftime.obj
 0002:00006df0       ??_C@_06CHLK@Monday?$AA@   00530df0     libcmtd:strftime.obj
 0002:00006df8       ??_C@_06OOEM@Sunday?$AA@   00530df8     libcmtd:strftime.obj
 0002:00006e00       ??_C@_03MPKK@Sat?$AA@      00530e00     libcmtd:strftime.obj
 0002:00006e04       ??_C@_03FINJ@Fri?$AA@      00530e04     libcmtd:strftime.obj
 0002:00006e08       ??_C@_03HIKC@Thu?$AA@      00530e08     libcmtd:strftime.obj
 0002:00006e0c       ??_C@_03HECK@Wed?$AA@      00530e0c     libcmtd:strftime.obj
 0002:00006e10       ??_C@_03ECCP@Tue?$AA@      00530e10     libcmtd:strftime.obj
 0002:00006e14       ??_C@_03PIEP@Mon?$AA@      00530e14     libcmtd:strftime.obj
 0002:00006e18       ??_C@_03FHEP@Sun?$AA@      00530e18     libcmtd:strftime.obj
 0002:00006e1c       ??_C@_03MKGK@a?1p?$AA@     00530e1c     libcmtd:strftime.obj
 0002:00006e20       ??_C@_05BDJK@am?1pm?$AA@   00530e20     libcmtd:strftime.obj
 0002:00006e54       ??_C@_07PDLA@mlock?4c?$AA@ 00530e54     libcmtd:mlock.obj
 0002:00006ea4       ??_C@_0L@ENLJ@tidtable?4c?$AA@ 00530ea4     libcmtd:tidtable.obj
 0002:00006ee0       __real@8@3fff8000000000000000 00530ee0     libcmtd:testfdiv.obj
 0002:00006ee8       ??_C@_0BK@JEGK@IsProcessorFeaturePresent?$AA@ 00530ee8     libcmtd:testfdiv.obj
 0002:00006f04       ??_C@_08OBID@KERNEL32?$AA@ 00530f04     libcmtd:testfdiv.obj
 0002:00006f10       __real@8@00000000000000000000 00530f10     libcmtd:cvt.obj
 0002:00006f18       ??_C@_05OFLO@e?$CL000?$AA@ 00530f18     libcmtd:cvt.obj
 0002:00006f20       ??_C@_0DP@IHIN@?$CI?$CCinconsistent?5IOB?5fields?$CC?0?5stre@ 00530f20     libcmtd:_flsbuf.obj
 0002:00006f60       ??_C@_09LGEI@_flsbuf?4c?$AA@ 00530f60     libcmtd:_flsbuf.obj
 0002:00006f6c       ??_C@_0M@KJPK@str?5?$CB?$DN?5NULL?$AA@ 00530f6c     libcmtd:_flsbuf.obj
 0002:00006f78       ___lookuptable             00530f78     libcmtd:output.obj
 0002:00006fd4       ??_C@_1O@POHA@?$AA?$CI?$AAn?$AAu?$AAl?$AAl?$AA?$CJ?$AA?$AA@ 00530fd4     libcmtd:output.obj
 0002:00006fe4       ??_C@_06ONKE@?$CInull?$CJ?$AA@ 00530fe4     libcmtd:output.obj
 0002:00006fec       ??_C@_08MIHI@output?4c?$AA@ 00530fec     libcmtd:output.obj
 0002:00006ff8       ??_C@_0P@PIHB@ch?5?$CB?$DN?5_T?$CI?8?20?8?$CJ?$AA@ 00530ff8     libcmtd:output.obj
 0002:00007008       ??_C@_09IGKD@stdenvp?4c?$AA@ 00531008     libcmtd:stdenvp.obj
 0002:00007014       ??_C@_09MPMN@stdargv?4c?$AA@ 00531014     libcmtd:stdargv.obj
 0002:00007020       ??_C@_07BNNE@a_env?4c?$AA@ 00531020     libcmtd:a_env.obj
 0002:00007028       ??_C@_08KFDJ@ioinit?4c?$AA@ 00531028     libcmtd:ioinit.obj
 0002:00007034       ??_C@_0P@GGKG@runtime?5error?5?$AA@ 00531034     libcmtd:crt0msg.obj
 0002:00007044       ??_C@_02PIMC@?$AN?6?$AA@   00531044     libcmtd:crt0msg.obj
 0002:00007048       ??_C@_0O@DELO@TLOSS?5error?$AN?6?$AA@ 00531048     libcmtd:crt0msg.obj
 0002:00007058       ??_C@_0N@OMLL@SING?5error?$AN?6?$AA@ 00531058     libcmtd:crt0msg.obj
 0002:00007068       ??_C@_0P@OJAK@DOMAIN?5error?$AN?6?$AA@ 00531068     libcmtd:crt0msg.obj
 0002:00007078       ??_C@_0CF@EANP@R6028?$AN?6?9?5unable?5to?5initialize?5he@ 00531078     libcmtd:crt0msg.obj
 0002:000070a0       ??_C@_0DF@ECGN@R6027?$AN?6?9?5not?5enough?5space?5for?5lo@ 005310a0     libcmtd:crt0msg.obj
 0002:000070d8       ??_C@_0DF@FKAC@R6026?$AN?6?9?5not?5enough?5space?5for?5st@ 005310d8     libcmtd:crt0msg.obj
 0002:00007110       ??_C@_0CG@DPMN@R6025?$AN?6?9?5pure?5virtual?5function?5c@ 00531110     libcmtd:crt0msg.obj
 0002:00007138       ??_C@_0DF@CKIP@R6024?$AN?6?9?5not?5enough?5space?5for?5_o@ 00531138     libcmtd:crt0msg.obj
 0002:00007170       ??_C@_0CJ@GGOE@R6019?$AN?6?9?5unable?5to?5open?5console?5@ 00531170     libcmtd:crt0msg.obj
 0002:0000719c       ??_C@_0CB@LBOB@R6018?$AN?6?9?5unexpected?5heap?5error?$AN?6@ 0053119c     libcmtd:crt0msg.obj
 0002:000071c0       ??_C@_0CN@FPEG@R6017?$AN?6?9?5unexpected?5multithread?5@ 005311c0     libcmtd:crt0msg.obj
 0002:000071f0       ??_C@_0CM@OBIC@R6016?$AN?6?9?5not?5enough?5space?5for?5th@ 005311f0     libcmtd:crt0msg.obj
 0002:0000721c       ??_C@_0CB@HPAL@?$AN?6abnormal?5program?5termination?$AN?6@ 0053121c     libcmtd:crt0msg.obj
 0002:00007240       ??_C@_0CM@JOOB@R6009?$AN?6?9?5not?5enough?5space?5for?5en@ 00531240     libcmtd:crt0msg.obj
 0002:0000726c       ??_C@_0CK@OIBL@R6008?$AN?6?9?5not?5enough?5space?5for?5ar@ 0053126c     libcmtd:crt0msg.obj
 0002:00007298       ??_C@_0CF@LKPB@R6002?$AN?6?9?5floating?5point?5not?5load@ 00531298     libcmtd:crt0msg.obj
 0002:000072c0       ??_C@_0CF@JPDF@Microsoft?5Visual?5C?$CL?$CL?5Runtime?5Lib@ 005312c0     libcmtd:crt0msg.obj
 0002:000072e8       ??_C@_0BK@DEOK@Runtime?5Error?$CB?6?6Program?3?5?$AA@ 005312e8     libcmtd:crt0msg.obj
 0002:00007304       ??_C@_01A@?$AA?$AA@        00531304     libcmtd:a_map.obj
 0002:00007308       ??_C@_13A@?$AA?$AA?$AA?$AA@ 00531308     libcmtd:a_map.obj
 0002:00007328       ??_C@_07FOIK@a_cmp?4c?$AA@ 00531328     libcmtd:a_cmp.obj
 0002:00007330       ??_C@_0DN@PPKB@cchCount1?$DN?$DN0?5?$CG?$CG?5cchCount2?$DN?$DN1?5?$HM?$HM?5@ 00531330     libcmtd:a_cmp.obj
 0002:00007388       ??_C@_08CNMA@winsig?4c?$AA@ 00531388     libcmtd:winsig.obj
 0002:00007394       ??_C@_0BD@NJFP@GetLastActivePopup?$AA@ 00531394     libcmtd:crtmbox.obj
 0002:000073a8       ??_C@_0BA@GILI@GetActiveWindow?$AA@ 005313a8     libcmtd:crtmbox.obj
 0002:000073b8       ??_C@_0M@PKCK@MessageBoxA?$AA@ 005313b8     libcmtd:crtmbox.obj
 0002:000073c4       ___dnames                  005313c4     libcmtd:timeset.obj
 0002:000073dc       ___mnames                  005313dc     libcmtd:timeset.obj
 0002:00007404       ??_C@_07DEKI@tzset?4c?$AA@ 00531404     libcmtd:tzset.obj
 0002:0000740c       ??_C@_02JHIA@TZ?$AA@       0053140c     libcmtd:tzset.obj
 0002:00007410       ??_C@_09JDKJ@asctime?4c?$AA@ 00531410     libcmtd:asctime.obj
 0002:0000742c       ??_C@_07PCLE@LC_TIME?$AA@  0053142c     libcmtd:setlocal.obj
 0002:00007434       ??_C@_0L@NKG@LC_NUMERIC?$AA@ 00531434     libcmtd:setlocal.obj
 0002:00007440       ??_C@_0M@CBIH@LC_MONETARY?$AA@ 00531440     libcmtd:setlocal.obj
 0002:0000744c       ??_C@_08LFGE@LC_CTYPE?$AA@ 0053144c     libcmtd:setlocal.obj
 0002:00007458       ??_C@_0L@CFLC@LC_COLLATE?$AA@ 00531458     libcmtd:setlocal.obj
 0002:00007464       ??_C@_06GCPK@LC_ALL?$AA@   00531464     libcmtd:setlocal.obj
 0002:0000746c       ??_C@_01FAJB@?$DL?$AA@     0053146c     libcmtd:setlocal.obj
 0002:00007470       ??_C@_02BGDO@?$DN?$DL?$AA@ 00531470     libcmtd:setlocal.obj
 0002:00007474       ??_C@_0L@MOEE@setlocal?4c?$AA@ 00531474     libcmtd:setlocal.obj
 0002:00007480       ??_C@_01KPOD@?$DN?$AA@     00531480     libcmtd:setlocal.obj
 0002:00007484       ??_C@_03DBOJ@_?4?0?$AA@    00531484     libcmtd:setlocal.obj
 0002:00007488       ??_C@_01PJCK@?4?$AA@       00531488     libcmtd:setlocal.obj
 0002:0000748c       ??_C@_01NON@_?$AA@         0053148c     libcmtd:setlocal.obj
 0002:00007490       ??_C@_09EMDO@_getbuf?4c?$AA@ 00531490     libcmtd:_getbuf.obj
 0002:0000749c       ??_C@_07HPAH@_file?4c?$AA@ 0053149c     libcmtd:_file.obj
 0002:000074a4       ??_C@_0L@EEGJ@inittime?4c?$AA@ 005314a4     libcmtd:inittime.obj
 0002:000074b0       ??_C@_09IMJJ@initnum?4c?$AA@ 005314b0     libcmtd:initnum.obj
 0002:000074bc       ??_C@_09KPNI@initmon?4c?$AA@ 005314bc     libcmtd:initmon.obj
 0002:000074c8       ??_C@_0L@COIL@initctyp?4c?$AA@ 005314c8     libcmtd:initctyp.obj
 0002:000074d4       ??_C@_08OBJD@Paraguay?$AA@ 005314d4     libcmtd:getqloc.obj
 0002:000074e0       ??_C@_07GLKH@Uruguay?$AA@  005314e0     libcmtd:getqloc.obj
 0002:000074e8       ??_C@_05FPFC@Chile?$AA@    005314e8     libcmtd:getqloc.obj
 0002:000074f0       ??_C@_07IIGF@Ecuador?$AA@  005314f0     libcmtd:getqloc.obj
 0002:000074f8       ??_C@_09PKAL@Argentina?$AA@ 005314f8     libcmtd:getqloc.obj
 0002:00007504       ??_C@_04LKAH@Peru?$AA@     00531504     libcmtd:getqloc.obj
 0002:0000750c       ??_C@_08NEEM@Colombia?$AA@ 0053150c     libcmtd:getqloc.obj
 0002:00007518       ??_C@_09ODEB@Venezuela?$AA@ 00531518     libcmtd:getqloc.obj
 0002:00007524       ??_C@_0BD@CLEL@Dominican?5Republic?$AA@ 00531524     libcmtd:getqloc.obj
 0002:00007538       ??_C@_0N@MDGL@South?5Africa?$AA@ 00531538     libcmtd:getqloc.obj
 0002:00007548       ??_C@_06NKBG@Panama?$AA@   00531548     libcmtd:getqloc.obj
 0002:00007550       ??_C@_0L@BMHO@Luxembourg?$AA@ 00531550     libcmtd:getqloc.obj
 0002:0000755c       ??_C@_0L@IMDK@Costa?5Rica?$AA@ 0053155c     libcmtd:getqloc.obj
 0002:00007568       ??_C@_0M@BLJF@Switzerland?$AA@ 00531568     libcmtd:getqloc.obj
 0002:00007574       ??_C@_09KBOL@Guatemala?$AA@ 00531574     libcmtd:getqloc.obj
 0002:00007580       ??_C@_06JNAK@Canada?$AA@   00531580     libcmtd:getqloc.obj
 0002:00007588       ??_C@_0BG@OLLP@Spanish?5?9?5Modern?5Sort?$AA@ 00531588     libcmtd:getqloc.obj
 0002:000075a0       ??_C@_09IDKE@Australia?$AA@ 005315a0     libcmtd:getqloc.obj
 0002:000075ac       ??_C@_07JJJJ@English?$AA@  005315ac     libcmtd:getqloc.obj
 0002:000075b4       ??_C@_07NMDO@Austria?$AA@  005315b4     libcmtd:getqloc.obj
 0002:000075bc       ??_C@_06DEFE@German?$AA@   005315bc     libcmtd:getqloc.obj
 0002:000075c4       ??_C@_07JAIH@Belgium?$AA@  005315c4     libcmtd:getqloc.obj
 0002:000075cc       ??_C@_06BNLJ@Mexico?$AA@   005315cc     libcmtd:getqloc.obj
 0002:000075d4       ??_C@_07JHAG@Spanish?$AA@  005315d4     libcmtd:getqloc.obj
 0002:000075dc       ??_C@_06DADE@Basque?$AA@   005315dc     libcmtd:getqloc.obj
 0002:000075e4       ??_C@_06ENFP@Sweden?$AA@   005315e4     libcmtd:getqloc.obj
 0002:000075ec       ??_C@_07JPMH@Swedish?$AA@  005315ec     libcmtd:getqloc.obj
 0002:000075f4       ??_C@_07IEKF@Iceland?$AA@  005315f4     libcmtd:getqloc.obj
 0002:000075fc       ??_C@_09KNEA@Icelandic?$AA@ 005315fc     libcmtd:getqloc.obj
 0002:00007608       ??_C@_06IJOD@France?$AA@   00531608     libcmtd:getqloc.obj
 0002:00007610       ??_C@_06EINI@French?$AA@   00531610     libcmtd:getqloc.obj
 0002:00007618       ??_C@_07FOOE@Finland?$AA@  00531618     libcmtd:getqloc.obj
 0002:00007620       ??_C@_07OJOM@Finnish?$AA@  00531620     libcmtd:getqloc.obj
 0002:00007628       ??_C@_05FFAC@Spain?$AA@    00531628     libcmtd:getqloc.obj
 0002:00007630       ??_C@_0BL@BIHM@Spanish?5?9?5Traditional?5Sort?$AA@ 00531630     libcmtd:getqloc.obj
 0002:0000764c       ??_C@_0O@GLHB@united?9states?$AA@ 0053164c     libcmtd:getqloc.obj
 0002:0000765c       ??_C@_0P@IIKK@united?9kingdom?$AA@ 0053165c     libcmtd:getqloc.obj
 0002:0000766c       ??_C@_0BC@FHBO@trinidad?5?$CG?5tobago?$AA@ 0053166c     libcmtd:getqloc.obj
 0002:00007680       ??_C@_0M@BDFM@south?9korea?$AA@ 00531680     libcmtd:getqloc.obj
 0002:0000768c       ??_C@_0N@CKFA@south?9africa?$AA@ 0053168c     libcmtd:getqloc.obj
 0002:0000769c       ??_C@_0M@HNHN@south?5korea?$AA@ 0053169c     libcmtd:getqloc.obj
 0002:000076a8       ??_C@_0N@MKDO@south?5africa?$AA@ 005316a8     libcmtd:getqloc.obj
 0002:000076b8       ??_C@_06KFFJ@slovak?$AA@   005316b8     libcmtd:getqloc.obj
 0002:000076c0       ??_C@_0M@NMAC@puerto?9rico?$AA@ 005316c0     libcmtd:getqloc.obj
 0002:000076cc       ??_C@_08EJOH@pr?9china?$AA@ 005316cc     libcmtd:getqloc.obj
 0002:000076d8       ??_C@_08CHMG@pr?5china?$AA@ 005316d8     libcmtd:getqloc.obj
 0002:000076e4       ??_C@_02OCJK@nz?$AA@       005316e4     libcmtd:getqloc.obj
 0002:000076e8       ??_C@_0M@MMKA@new?9zealand?$AA@ 005316e8     libcmtd:getqloc.obj
 0002:000076f4       ??_C@_09MGEH@hong?9kong?$AA@ 005316f4     libcmtd:getqloc.obj
 0002:00007700       ??_C@_07CCAK@holland?$AA@  00531700     libcmtd:getqloc.obj
 0002:00007708       ??_C@_0O@MEPL@great?5britain?$AA@ 00531708     libcmtd:getqloc.obj
 0002:00007718       ??_C@_07LGIB@england?$AA@  00531718     libcmtd:getqloc.obj
 0002:00007720       ??_C@_05BMOA@czech?$AA@    00531720     libcmtd:getqloc.obj
 0002:00007728       ??_C@_05NMPB@china?$AA@    00531728     libcmtd:getqloc.obj
 0002:00007730       ??_C@_07GN@britain?$AA@    00531730     libcmtd:getqloc.obj
 0002:00007738       ??_C@_07DLAK@america?$AA@  00531738     libcmtd:getqloc.obj
 0002:00007740       ??_C@_03IPEP@usa?$AA@      00531740     libcmtd:getqloc.obj
 0002:00007744       ??_C@_02PILH@us?$AA@       00531744     libcmtd:getqloc.obj
 0002:00007748       ??_C@_02FHP@uk?$AA@        00531748     libcmtd:getqloc.obj
 0002:0000774c       ??_C@_05DEAI@swiss?$AA@    0053174c     libcmtd:getqloc.obj
 0002:00007754       ??_C@_0BA@LIAF@swedish?9finland?$AA@ 00531754     libcmtd:getqloc.obj
 0002:00007764       ??_C@_0BC@FMEG@spanish?9venezuela?$AA@ 00531764     libcmtd:getqloc.obj
 0002:00007778       ??_C@_0BA@BNMG@spanish?9uruguay?$AA@ 00531778     libcmtd:getqloc.obj
 0002:00007788       ??_C@_0BE@BKDJ@spanish?9puerto?5rico?$AA@ 00531788     libcmtd:getqloc.obj
 0002:0000779c       ??_C@_0N@JIBL@spanish?9peru?$AA@ 0053179c     libcmtd:getqloc.obj
 0002:000077ac       ??_C@_0BB@OGOF@spanish?9paraguay?$AA@ 005317ac     libcmtd:getqloc.obj
 0002:000077c0       ??_C@_0P@LLFA@spanish?9panama?$AA@ 005317c0     libcmtd:getqloc.obj
 0002:000077d0       ??_C@_0BC@BBJM@spanish?9nicaragua?$AA@ 005317d0     libcmtd:getqloc.obj
 0002:000077e4       ??_C@_0P@NJBN@spanish?9modern?$AA@ 005317e4     libcmtd:getqloc.obj
 0002:000077f4       ??_C@_0BA@NHDN@spanish?9mexican?$AA@ 005317f4     libcmtd:getqloc.obj
 0002:00007804       ??_C@_0BB@JHOJ@spanish?9honduras?$AA@ 00531804     libcmtd:getqloc.obj
 0002:00007818       ??_C@_0BC@BOOM@spanish?9guatemala?$AA@ 00531818     libcmtd:getqloc.obj
 0002:0000782c       ??_C@_0BE@EELI@spanish?9el?5salvador?$AA@ 0053182c     libcmtd:getqloc.obj
 0002:00007840       ??_C@_0BA@POAE@spanish?9ecuador?$AA@ 00531840     libcmtd:getqloc.obj
 0002:00007850       ??_C@_0BL@LDKN@spanish?9dominican?5republic?$AA@ 00531850     libcmtd:getqloc.obj
 0002:0000786c       ??_C@_0BD@HPMH@spanish?9costa?5rica?$AA@ 0053186c     libcmtd:getqloc.obj
 0002:00007880       ??_C@_0BB@NDDK@spanish?9colombia?$AA@ 00531880     libcmtd:getqloc.obj
 0002:00007894       ??_C@_0O@BJHA@spanish?9chile?$AA@ 00531894     libcmtd:getqloc.obj
 0002:000078a4       ??_C@_0BA@OBNG@spanish?9bolivia?$AA@ 005318a4     libcmtd:getqloc.obj
 0002:000078b4       ??_C@_0BC@EFAM@spanish?9argentina?$AA@ 005318b4     libcmtd:getqloc.obj
 0002:000078c8       ??_C@_0BF@KMMM@portuguese?9brazilian?$AA@ 005318c8     libcmtd:getqloc.obj
 0002:000078e0       ??_C@_0BC@BAAE@norwegian?9nynorsk?$AA@ 005318e0     libcmtd:getqloc.obj
 0002:000078f4       ??_C@_0BB@PBHK@norwegian?9bokmal?$AA@ 005318f4     libcmtd:getqloc.obj
 0002:00007908       ??_C@_09EHKL@norwegian?$AA@ 00531908     libcmtd:getqloc.obj
 0002:00007914       ??_C@_0O@BEAN@italian?9swiss?$AA@ 00531914     libcmtd:getqloc.obj
 0002:00007924       ??_C@_0O@OIFK@irish?9english?$AA@ 00531924     libcmtd:getqloc.obj
 0002:00007934       ??_C@_0N@NBPL@german?9swiss?$AA@ 00531934     libcmtd:getqloc.obj
 0002:00007944       ??_C@_0BC@ICFJ@german?9luxembourg?$AA@ 00531944     libcmtd:getqloc.obj
 0002:00007958       ??_C@_0BE@GGPC@german?9lichtenstein?$AA@ 00531958     libcmtd:getqloc.obj
 0002:0000796c       ??_C@_0BA@MKDC@german?9austrian?$AA@ 0053196c     libcmtd:getqloc.obj
 0002:0000797c       ??_C@_0N@ODNB@french?9swiss?$AA@ 0053197c     libcmtd:getqloc.obj
 0002:0000798c       ??_C@_0BC@MGCM@french?9luxembourg?$AA@ 0053198c     libcmtd:getqloc.obj
 0002:000079a0       ??_C@_0BA@NABK@french?9canadian?$AA@ 005319a0     libcmtd:getqloc.obj
 0002:000079b0       ??_C@_0P@CJNO@french?9belgian?$AA@ 005319b0     libcmtd:getqloc.obj
 0002:000079c0       ??_C@_0M@LJOL@english?9usa?$AA@ 005319c0     libcmtd:getqloc.obj
 0002:000079cc       ??_C@_0L@FMNC@english?9us?$AA@ 005319cc     libcmtd:getqloc.obj
 0002:000079d8       ??_C@_0L@KBBK@english?9uk?$AA@ 005319d8     libcmtd:getqloc.obj
 0002:000079e4       ??_C@_0BK@NDDE@english?9trinidad?5y?5tobago?$AA@ 005319e4     libcmtd:getqloc.obj
 0002:00007a00       ??_C@_0BF@LKML@english?9south?5africa?$AA@ 00531a00     libcmtd:getqloc.obj
 0002:00007a18       ??_C@_0L@EGPP@english?9nz?$AA@ 00531a18     libcmtd:getqloc.obj
 0002:00007a24       ??_C@_0BA@HLH@english?9jamaica?$AA@ 00531a24     libcmtd:getqloc.obj
 0002:00007a34       ??_C@_0M@PMJI@english?9ire?$AA@ 00531a34     libcmtd:getqloc.obj
 0002:00007a40       ??_C@_0BC@HINE@english?9caribbean?$AA@ 00531a40     libcmtd:getqloc.obj
 0002:00007a54       ??_C@_0M@DCFH@english?9can?$AA@ 00531a54     libcmtd:getqloc.obj
 0002:00007a60       ??_C@_0P@DGHK@english?9belize?$AA@ 00531a60     libcmtd:getqloc.obj
 0002:00007a70       ??_C@_0M@FLHK@english?9aus?$AA@ 00531a70     libcmtd:getqloc.obj
 0002:00007a7c       ??_C@_0BB@HNCK@english?9american?$AA@ 00531a7c     libcmtd:getqloc.obj
 0002:00007a90       ??_C@_0O@PAMI@dutch?9belgian?$AA@ 00531a90     libcmtd:getqloc.obj
 0002:00007aa0       ??_C@_0BE@FPEJ@chinese?9traditional?$AA@ 00531aa0     libcmtd:getqloc.obj
 0002:00007ab4       ??_C@_0BC@CHFL@chinese?9singapore?$AA@ 00531ab4     libcmtd:getqloc.obj
 0002:00007ac8       ??_C@_0BD@DCMH@chinese?9simplified?$AA@ 00531ac8     libcmtd:getqloc.obj
 0002:00007adc       ??_C@_0BB@JMOE@chinese?9hongkong?$AA@ 00531adc     libcmtd:getqloc.obj
 0002:00007af0       ??_C@_07NGFN@chinese?$AA@  00531af0     libcmtd:getqloc.obj
 0002:00007af8       ??_C@_03PCOI@chi?$AA@      00531af8     libcmtd:getqloc.obj
 0002:00007afc       ??_C@_03FIHP@chh?$AA@      00531afc     libcmtd:getqloc.obj
 0002:00007b00       ??_C@_08HFLO@canadian?$AA@ 00531b00     libcmtd:getqloc.obj
 0002:00007b0c       ??_C@_07INIJ@belgian?$AA@  00531b0c     libcmtd:getqloc.obj
 0002:00007b14       ??_C@_0L@LCCA@australian?$AA@ 00531b14     libcmtd:getqloc.obj
 0002:00007b20       ??_C@_0BB@BJIO@american?9english?$AA@ 00531b20     libcmtd:getqloc.obj
 0002:00007b34       ??_C@_0BB@DAGO@american?5english?$AA@ 00531b34     libcmtd:getqloc.obj
 0002:00007b48       ??_C@_08HENB@american?$AA@ 00531b48     libcmtd:getqloc.obj
 0002:00007b54       ??_C@_03DGJE@OCP?$AA@      00531b54     libcmtd:getqloc.obj
 0002:00007b58       ??_C@_03EKFG@ACP?$AA@      00531b58     libcmtd:getqloc.obj
 0002:00007b5c       ??_C@_06PAPI@1?$CDQNAN?$AA@ 00531b5c     libcmtd:x10fout.obj
 0002:00007b64       ??_C@_05BGNL@1?$CDINF?$AA@ 00531b64     libcmtd:x10fout.obj
 0002:00007b6c       ??_C@_05EDPF@1?$CDIND?$AA@ 00531b6c     libcmtd:x10fout.obj
 0002:00007b74       ??_C@_06LKFM@1?$CDSNAN?$AA@ 00531b74     libcmtd:x10fout.obj
 0002:00007b7c       ??_C@_09LNLM@osfinfo?4c?$AA@ 00531b7c     libcmtd:osfinfo.obj
 0002:00007b88       ??_C@_0L@EJNO@wtombenv?4c?$AA@ 00531b88     libcmtd:wtombenv.obj
 0002:00007b94       ??_C@_0L@HKCB@inithelp?4c?$AA@ 00531b94     libcmtd:inithelp.obj
 0002:00007bb8       ??_C@_08PHBD@fclose?4c?$AA@ 00531bb8     libcmtd:fclose.obj
 0002:00007bc4       ??_C@_0P@FHEA@stream?5?$CB?$DN?5NULL?$AA@ 00531bc4     libcmtd:fclose.obj
 0002:00007bd4       ??_C@_08FEIK@setenv?4c?$AA@ 00531bd4     libcmtd:setenv.obj
 0002:00007bfc       ??_C@_0L@JIE@_freebuf?4c?$AA@ 00531bfc     libcmtd:_freebuf.obj
 0002:00007c08       _IID_IPropertyBag          00531c08     uuid:oaidl_i.obj
 0002:00007c18       _IID_IErrorLog             00531c18     uuid:oaidl_i.obj
 0002:00007c28       _IID_IRecordInfo           00531c28     uuid:oaidl_i.obj
 0002:00007c38       _IID_ITypeMarshal          00531c38     uuid:oaidl_i.obj
 0002:00007c48       _IID_ITypeFactory          00531c48     uuid:oaidl_i.obj
 0002:00007c58       _IID_ISupportErrorInfo     00531c58     uuid:oaidl_i.obj
 0002:00007c68       _IID_ICreateErrorInfo      00531c68     uuid:oaidl_i.obj
 0002:00007c78       _IID_IErrorInfo            00531c78     uuid:oaidl_i.obj
 0002:00007c88       _IID_ITypeChangeEvents     00531c88     uuid:oaidl_i.obj
 0002:00007c98       _IID_ITypeLib2             00531c98     uuid:oaidl_i.obj
 0002:00007ca8       _IID_ITypeLib              00531ca8     uuid:oaidl_i.obj
 0002:00007cb8       _IID_ITypeInfo2            00531cb8     uuid:oaidl_i.obj
 0002:00007cc8       _IID_ITypeInfo             00531cc8     uuid:oaidl_i.obj
 0002:00007cd8       _IID_ITypeComp             00531cd8     uuid:oaidl_i.obj
 0002:00007ce8       _IID_IEnumVARIANT          00531ce8     uuid:oaidl_i.obj
 0002:00007cf8       _IID_IDispatch             00531cf8     uuid:oaidl_i.obj
 0002:00007d08       _IID_ICreateTypeLib2       00531d08     uuid:oaidl_i.obj
 0002:00007d18       _IID_ICreateTypeLib        00531d18     uuid:oaidl_i.obj
 0002:00007d28       _IID_ICreateTypeInfo2      00531d28     uuid:oaidl_i.obj
 0002:00007d38       _IID_ICreateTypeInfo       00531d38     uuid:oaidl_i.obj
 0002:00007d48       _IID_IEnumOLEVERB          00531d48     uuid:oleidl_i.obj
 0002:00007d58       _IID_IDropTarget           00531d58     uuid:oleidl_i.obj
 0002:00007d68       _IID_IDropSource           00531d68     uuid:oleidl_i.obj
 0002:00007d78       _IID_IViewObject2          00531d78     uuid:oleidl_i.obj
 0002:00007d88       _IID_IViewObject           00531d88     uuid:oleidl_i.obj
 0002:00007d98       _IID_IContinue             00531d98     uuid:oleidl_i.obj
 0002:00007da8       _IID_IOleInPlaceSite       00531da8     uuid:oleidl_i.obj
 0002:00007db8       _IID_IOleInPlaceObject     00531db8     uuid:oleidl_i.obj
 0002:00007dc8       _IID_IOleInPlaceFrame      00531dc8     uuid:oleidl_i.obj
 0002:00007dd8       _IID_IOleInPlaceActiveObject 00531dd8     uuid:oleidl_i.obj
 0002:00007de8       _IID_IOleInPlaceUIWindow   00531de8     uuid:oleidl_i.obj
 0002:00007df8       _IID_IOleItemContainer     00531df8     uuid:oleidl_i.obj
 0002:00007e08       _IID_IOleLink              00531e08     uuid:oleidl_i.obj
 0002:00007e18       _IID_IOleWindow            00531e18     uuid:oleidl_i.obj
 0002:00007e28       _IID_IOleObject            00531e28     uuid:oleidl_i.obj
 0002:00007e38       _IID_IOleClientSite        00531e38     uuid:oleidl_i.obj
 0002:00007e48       _IID_IOleContainer         00531e48     uuid:oleidl_i.obj
 0002:00007e58       _IID_IParseDisplayName     00531e58     uuid:oleidl_i.obj
 0002:00007e68       _IID_IOleCacheControl      00531e68     uuid:oleidl_i.obj
 0002:00007e78       _IID_IOleCache2            00531e78     uuid:oleidl_i.obj
 0002:00007e88       _IID_IOleCache             00531e88     uuid:oleidl_i.obj
 0002:00007e98       _IID_IOleAdviseHolder      00531e98     uuid:oleidl_i.obj
 0002:00007ea8       _IID_IClassFactory         00531ea8     uuid:unknwn_i.obj
 0002:00007eb8       _IID_AsyncIUnknown         00531eb8     uuid:unknwn_i.obj
 0002:00007ec8       _IID_IUnknown              00531ec8     uuid:unknwn_i.obj
 0002:00007ed8       _IID_IInitializeSpy        00531ed8     uuid:objidl_i.obj
 0002:00007ee8       _IID_IProcessInitControl   00531ee8     uuid:objidl_i.obj
 0002:00007ef8       _IID_IComThreadingInfo     00531ef8     uuid:objidl_i.obj
 0002:00007f08       _IID_ISurrogateService     00531f08     uuid:objidl_i.obj
 0002:00007f18       _IID_IProcessLock          00531f18     uuid:objidl_i.obj
 0002:00007f28       _IID_IObjContext           00531f28     uuid:objidl_i.obj
 0002:00007f38       _IID_IContext              00531f38     uuid:objidl_i.obj
 0002:00007f48       _IID_IEnumContextProps     00531f48     uuid:objidl_i.obj
 0002:00007f58       _IID_IDummyHICONIncluder   00531f58     uuid:objidl_i.obj
 0002:00007f68       _IID_IThumbnailExtractor   00531f68     uuid:objidl_i.obj
 0002:00007f78       _IID_AsyncIPipeDouble      00531f78     uuid:objidl_i.obj
 0002:00007f88       _IID_IPipeDouble           00531f88     uuid:objidl_i.obj
 0002:00007f98       _IID_AsyncIPipeLong        00531f98     uuid:objidl_i.obj
 0002:00007fa8       _IID_IPipeLong             00531fa8     uuid:objidl_i.obj
 0002:00007fb8       _IID_AsyncIPipeByte        00531fb8     uuid:objidl_i.obj
 0002:00007fc8       _IID_IPipeByte             00531fc8     uuid:objidl_i.obj
 0002:00007fd8       _IID_IAddrExclusionControl 00531fd8     uuid:objidl_i.obj
 0002:00007fe8       _IID_IAddrTrackingControl  00531fe8     uuid:objidl_i.obj
 0002:00007ff8       _IID_IForegroundTransfer   00531ff8     uuid:objidl_i.obj
 0002:00008008       _IID_IUrlMon               00532008     uuid:objidl_i.obj
 0002:00008018       _IID_IWaitMultiple         00532018     uuid:objidl_i.obj
 0002:00008028       _IID_IReleaseMarshalBuffers 00532028     uuid:objidl_i.obj
 0002:00008038       _IID_IRpcHelper            00532038     uuid:objidl_i.obj
 0002:00008048       _IID_ICallFactory          00532048     uuid:objidl_i.obj
 0002:00008058       _IID_IAsyncManager         00532058     uuid:objidl_i.obj
 0002:00008068       _IID_ICancelMethodCalls    00532068     uuid:objidl_i.obj
 0002:00008078       _IID_ISynchronizeMutex     00532078     uuid:objidl_i.obj
 0002:00008088       _IID_ISynchronizeContainer 00532088     uuid:objidl_i.obj
 0002:00008098       _IID_ISynchronizeEvent     00532098     uuid:objidl_i.obj
 0002:000080a8       _IID_ISynchronizeHandle    005320a8     uuid:objidl_i.obj
 0002:000080b8       _IID_ISynchronize          005320b8     uuid:objidl_i.obj
 0002:000080c8       _IID_IDirectWriterLock     005320c8     uuid:objidl_i.obj
 0002:000080d8       _IID_IGlobalInterfaceTable 005320d8     uuid:objidl_i.obj
 0002:000080e8       _IID_ISurrogate            005320e8     uuid:objidl_i.obj
 0002:000080f8       _IID_IOplockStorage        005320f8     uuid:objidl_i.obj
 0002:00008108       _IID_ITimeAndNoticeControl 00532108     uuid:objidl_i.obj
 0002:00008118       _IID_IBlockingLock         00532118     uuid:objidl_i.obj
 0002:00008128       _IID_ILayoutStorage        00532128     uuid:objidl_i.obj
 0002:00008138       _IID_IProgressNotify       00532138     uuid:objidl_i.obj
 0002:00008148       _IID_IFillLockBytes        00532148     uuid:objidl_i.obj
 0002:00008158       _IID_IRpcOptions           00532158     uuid:objidl_i.obj
 0002:00008168       _IID_IClassActivator       00532168     uuid:objidl_i.obj
 0002:00008178       _IID_IServerSecurity       00532178     uuid:objidl_i.obj
 0002:00008188       _IID_IClientSecurity       00532188     uuid:objidl_i.obj
 0002:00008198       _IID_IChannelHook          00532198     uuid:objidl_i.obj
 0002:000081a8       _IID_IPSFactoryBuffer      005321a8     uuid:objidl_i.obj
 0002:000081b8       _IID_IRpcStubBuffer        005321b8     uuid:objidl_i.obj
 0002:000081c8       _IID_IRpcProxyBuffer       005321c8     uuid:objidl_i.obj
 0002:000081d8       _IID_IRpcSyntaxNegotiate   005321d8     uuid:objidl_i.obj
 0002:000081e8       _IID_IRpcChannelBuffer3    005321e8     uuid:objidl_i.obj
 0002:000081f8       _IID_IAsyncRpcChannelBuffer 005321f8     uuid:objidl_i.obj
 0002:00008208       _IID_IRpcChannelBuffer2    00532208     uuid:objidl_i.obj
 0002:00008218       _IID_IRpcChannelBuffer     00532218     uuid:objidl_i.obj
 0002:00008228       _IID_IMessageFilter        00532228     uuid:objidl_i.obj
 0002:00008238       _IID_IDataAdviseHolder     00532238     uuid:objidl_i.obj
 0002:00008248       _IID_IDataObject           00532248     uuid:objidl_i.obj
 0002:00008258       _IID_AsyncIAdviseSink2     00532258     uuid:objidl_i.obj
 0002:00008268       _IID_IAdviseSink2          00532268     uuid:objidl_i.obj
 0002:00008278       _IID_AsyncIAdviseSink      00532278     uuid:objidl_i.obj
 0002:00008288       _IID_IAdviseSink           00532288     uuid:objidl_i.obj
 0002:00008298       _IID_IRootStorage          00532298     uuid:objidl_i.obj
 0002:000082a8       _IID_IEnumSTATDATA         005322a8     uuid:objidl_i.obj
 0002:000082b8       _IID_IEnumFORMATETC        005322b8     uuid:objidl_i.obj
 0002:000082c8       _IID_ILockBytes            005322c8     uuid:objidl_i.obj
 0002:000082d8       _IID_IPersistStorage       005322d8     uuid:objidl_i.obj
 0002:000082e8       _IID_IPersistFile          005322e8     uuid:objidl_i.obj
 0002:000082f8       _IID_IStorage              005322f8     uuid:objidl_i.obj
 0002:00008308       _IID_IEnumSTATSTG          00532308     uuid:objidl_i.obj
 0002:00008318       _IID_IStream               00532318     uuid:objidl_i.obj
 0002:00008328       _IID_ISequentialStream     00532328     uuid:objidl_i.obj
 0002:00008338       _IID_IEnumString           00532338     uuid:objidl_i.obj
 0002:00008348       _IID_IROTData              00532348     uuid:objidl_i.obj
 0002:00008358       _IID_IMoniker              00532358     uuid:objidl_i.obj
 0002:00008368       _IID_IPersistStream        00532368     uuid:objidl_i.obj
 0002:00008378       _IID_IPersist              00532378     uuid:objidl_i.obj
 0002:00008388       _IID_IRunningObjectTable   00532388     uuid:objidl_i.obj
 0002:00008398       _IID_IRunnableObject       00532398     uuid:objidl_i.obj
 0002:000083a8       _IID_IEnumMoniker          005323a8     uuid:objidl_i.obj
 0002:000083b8       _IID_IBindCtx              005323b8     uuid:objidl_i.obj
 0002:000083c8       _IID_IEnumUnknown          005323c8     uuid:objidl_i.obj
 0002:000083d8       _IID_IInternalUnknown      005323d8     uuid:objidl_i.obj
 0002:000083e8       _IID_AsyncIMultiQI         005323e8     uuid:objidl_i.obj
 0002:000083f8       _IID_IMultiQI              005323f8     uuid:objidl_i.obj
 0002:00008408       _IID_IExternalConnection   00532408     uuid:objidl_i.obj
 0002:00008418       _IID_IStdMarshalInfo       00532418     uuid:objidl_i.obj
 0002:00008428       _IID_IMallocSpy            00532428     uuid:objidl_i.obj
 0002:00008438       _IID_IMalloc               00532438     uuid:objidl_i.obj
 0002:00008448       _IID_IMarshal2             00532448     uuid:objidl_i.obj
 0002:00008458       _IID_IMarshal              00532458     uuid:objidl_i.obj
 0002:00008468       ??_C@_02LFBD@0x?$AA@       00532468     libcimtd:ostrptr.obj
 0002:0000846c       ??_C@_02MHAC@?$CFp?$AA@    0053246c     libcimtd:ostrptr.obj
 0002:00008474       ??_7ostream@@6B@           00532474     libcimtd:ostream.obj
 0002:00008478       ??_8ostream@@7B@           00532478     libcimtd:ostream.obj
 0002:00008484       ??_7ostream_withassign@@6B@ 00532484     libcimtd:ostream.obj
 0002:00008488       ??_8ostream_withassign@@7B@ 00532488     libcimtd:ostream.obj
 0002:00008490       ??_C@_02A@?$AA?$AA?$AA@    00532490     libcimtd:ostrint.obj
 0002:00008494       ?basefield@ios@@2JB        00532494     libcimtd:_ios.obj
 0002:00008498       ?adjustfield@ios@@2JB      00532498     libcimtd:_ios.obj
 0002:0000849c       ?floatfield@ios@@2JB       0053249c     libcimtd:_ios.obj
 0002:000084a4       ??_7ios@@6B@               005324a4     libcimtd:_ios.obj
 0002:000084a8       _mpctcdef                  005324a8     ctl3d32s:CTL3D.OBJ
 0002:00008568       _mpicvSysColor             00532568     ctl3d32s:CTL3D.OBJ
 0002:00009ff8       ??_R1A@?0A@A@CThread@@8    00533ff8     HookService.obj
 0002:0000a018       ??_R1A@?0A@A@CHookService@@8 00534018     HookService.obj
 0002:0000a038       ??_R2CHookService@@8       00534038     HookService.obj
 0002:0000a048       ??_R3CHookService@@8       00534048     HookService.obj
 0002:0000a060       ??_R4CHookService@@6B@     00534060     HookService.obj
 0002:0000a078       ??_R1A@?0A@A@CObject@@8    00534078     MainFrame.obj
 0002:0000a098       ??_R1A@?0A@A@CCmdTarget@@8 00534098     MainFrame.obj
 0002:0000a0b8       ??_R1A@?0A@A@CWnd@@8       005340b8     MainFrame.obj
 0002:0000a0d8       ??_R1A@?0A@A@CMainFrame@@8 005340d8     MainFrame.obj
 0002:0000a0f8       ??_R2CMainFrame@@8         005340f8     MainFrame.obj
 0002:0000a110       ??_R3CMainFrame@@8         00534110     MainFrame.obj
 0002:0000a128       ??_R4CMainFrame@@6B@       00534128     MainFrame.obj
 0002:0000a140       ??_R1A@?0A@A@CWinThread@@8 00534140     RMO.obj
 0002:0000a160       ??_R1A@?0A@A@CWinApp@@8    00534160     RMO.obj
 0002:0000a180       ??_R1A@?0A@A@CRMOApp@@8    00534180     RMO.obj
 0002:0000a1a0       ??_R2CRMOApp@@8            005341a0     RMO.obj
 0002:0000a1c0       ??_R3CRMOApp@@8            005341c0     RMO.obj
 0002:0000a1d8       ??_R4CRMOApp@@6B@          005341d8     RMO.obj
 0002:0000a1f0       ??_R1A@?0A@A@CClientNamedPipe@@8 005341f0     RMOClientPipe.obj
 0002:0000a210       ??_R1A@?0A@A@CRMOClientPipe@@8 00534210     RMOClientPipe.obj
 0002:0000a230       ??_R2CRMOClientPipe@@8     00534230     RMOClientPipe.obj
 0002:0000a240       ??_R3CRMOClientPipe@@8     00534240     RMOClientPipe.obj
 0002:0000a258       ??_R4CRMOClientPipe@@6B@   00534258     RMOClientPipe.obj
 0002:0000a270       ??_R1A@?0A@A@CDialog@@8    00534270     RMODlg.obj
 0002:0000a290       ??_R1A@?0A@A@CRMODlg@@8    00534290     RMODlg.obj
 0002:0000a2b0       ??_R2CRMODlg@@8            005342b0     RMODlg.obj
 0002:0000a2d0       ??_R3CRMODlg@@8            005342d0     RMODlg.obj
 0002:0000a2e8       ??_R4CRMODlg@@6B@          005342e8     RMODlg.obj
 0002:0000a300       ??_R1A@?0A@8?$__TBD_TMemory@$0CAA@@@8 00534300     TBinaryData.obj
 0002:0000a320       ??_R1A@?0A@A@TBinaryData@@8 00534320     TBinaryData.obj
 0002:0000a340       ??_R2TBinaryData@@8        00534340     TBinaryData.obj
 0002:0000a350       ??_R3TBinaryData@@8        00534350     TBinaryData.obj
 0002:0000a368       ??_R4TBinaryData@@6B@      00534368     TBinaryData.obj
 0002:0000a380       ??_R1A@?0A@A@?$__TBD_TMemory@$0CAA@@@8 00534380     TBinaryData.obj
 0002:0000a39c       ??_R2?$__TBD_TMemory@$0CAA@@@8 0053439c     TBinaryData.obj
 0002:0000a3a8       ??_R3?$__TBD_TMemory@$0CAA@@@8 005343a8     TBinaryData.obj
 0002:0000a3c0       ??_R4?$__TBD_TMemory@$0CAA@@@6B@ 005343c0     TBinaryData.obj
 0002:0000a3d8       ??_R2CThread@@8            005343d8     Thread.obj
 0002:0000a3e0       ??_R3CThread@@8            005343e0     Thread.obj
 0002:0000a3f8       ??_R4CThread@@6B@          005343f8     Thread.obj
 0002:0000a410       ??_R2CClientNamedPipe@@8   00534410     ClientNamedPipe.obj
 0002:0000a420       ??_R3CClientNamedPipe@@8   00534420     ClientNamedPipe.obj
 0002:0000a438       ??_R4CClientNamedPipe@@6B@ 00534438     ClientNamedPipe.obj
 0002:0000a450       ??_R1A@?0A@A@?$TFixedSizeBinaryData@$0BAAA@@@8 00534450     ClientNamedPipe.obj
 0002:0000a46c       ??_R2?$TFixedSizeBinaryData@$0BAAA@@@8 0053446c     ClientNamedPipe.obj
 0002:0000a478       ??_R3?$TFixedSizeBinaryData@$0BAAA@@@8 00534478     ClientNamedPipe.obj
 0002:0000a490       ??_R4?$TFixedSizeBinaryData@$0BAAA@@@6B@ 00534490     ClientNamedPipe.obj
 0002:0000a4a8       ??_R2CWnd@@8               005344a8     nafxcwd:wincore.obj
 0002:0000a4b8       ??_R3CWnd@@8               005344b8     nafxcwd:wincore.obj
 0002:0000a4c8       ??_R4CWnd@@6B@             005344c8     nafxcwd:wincore.obj
 0002:0000a4e0       ??_R1A@?0A@A@CCmdUI@@8     005344e0     nafxcwd:wincore.obj
 0002:0000a4f8       ??_R1A@?0A@A@CTestCmdUI@@8 005344f8     nafxcwd:wincore.obj
 0002:0000a510       ??_R2CTestCmdUI@@8         00534510     nafxcwd:wincore.obj
 0002:0000a520       ??_R3CTestCmdUI@@8         00534520     nafxcwd:wincore.obj
 0002:0000a530       ??_R4CTestCmdUI@@6B@       00534530     nafxcwd:wincore.obj
 0002:0000a548       ??_R1A@?0A@A@CTempWnd@@8   00534548     nafxcwd:wincore.obj
 0002:0000a560       ??_R2CTempWnd@@8           00534560     nafxcwd:wincore.obj
 0002:0000a578       ??_R3CTempWnd@@8           00534578     nafxcwd:wincore.obj
 0002:0000a588       ??_R4CTempWnd@@6B@         00534588     nafxcwd:wincore.obj
 0002:0000a5a0       ??_R1A@?0A@A@CNoTrackObject@@8 005345a0     nafxcwd:wincore.obj
 0002:0000a5b8       ??_R1A@?0A@A@_AFX_CTL3D_STATE@@8 005345b8     nafxcwd:wincore.obj
 0002:0000a5d0       ??_R2_AFX_CTL3D_STATE@@8   005345d0     nafxcwd:wincore.obj
 0002:0000a5e0       ??_R3_AFX_CTL3D_STATE@@8   005345e0     nafxcwd:wincore.obj
 0002:0000a5f0       ??_R4_AFX_CTL3D_STATE@@6B@ 005345f0     nafxcwd:wincore.obj
 0002:0000a604       ??_R2CNoTrackObject@@8     00534604     nafxcwd:wincore.obj
 0002:0000a610       ??_R3CNoTrackObject@@8     00534610     nafxcwd:wincore.obj
 0002:0000a620       ??_R4CNoTrackObject@@6B@   00534620     nafxcwd:wincore.obj
 0002:0000a638       ??_R1A@?0A@A@CException@@8 00534638     nafxcwd:afxinl2.obj
 0002:0000a650       ??_R1A@?0A@A@CSimpleException@@8 00534650     nafxcwd:afxinl2.obj
 0002:0000a668       ??_R1A@?0A@A@CResourceException@@8 00534668     nafxcwd:afxinl2.obj
 0002:0000a680       ??_R2CResourceException@@8 00534680     nafxcwd:afxinl2.obj
 0002:0000a698       ??_R3CResourceException@@8 00534698     nafxcwd:afxinl2.obj
 0002:0000a6a8       ??_R4CResourceException@@6B@ 005346a8     nafxcwd:afxinl2.obj
 0002:0000a6c0       ??_R1A@?0A@A@CUserException@@8 005346c0     nafxcwd:afxinl2.obj
 0002:0000a6d8       ??_R2CUserException@@8     005346d8     nafxcwd:afxinl2.obj
 0002:0000a6f0       ??_R3CUserException@@8     005346f0     nafxcwd:afxinl2.obj
 0002:0000a700       ??_R4CUserException@@6B@   00534700     nafxcwd:afxinl2.obj
 0002:0000a718       ??_R1A@?0A@A@CGdiObject@@8 00534718     nafxcwd:afxinl2.obj
 0002:0000a730       ??_R2CGdiObject@@8         00534730     nafxcwd:afxinl2.obj
 0002:0000a740       ??_R3CGdiObject@@8         00534740     nafxcwd:afxinl2.obj
 0002:0000a750       ??_R4CGdiObject@@6B@       00534750     nafxcwd:afxinl2.obj
 0002:0000a768       ??_R1A@?0A@A@CPen@@8       00534768     nafxcwd:afxinl2.obj
 0002:0000a780       ??_R2CPen@@8               00534780     nafxcwd:afxinl2.obj
 0002:0000a790       ??_R3CPen@@8               00534790     nafxcwd:afxinl2.obj
 0002:0000a7a0       ??_R4CPen@@6B@             005347a0     nafxcwd:afxinl2.obj
 0002:0000a7b8       ??_R1A@?0A@A@CBrush@@8     005347b8     nafxcwd:afxinl2.obj
 0002:0000a7d0       ??_R2CBrush@@8             005347d0     nafxcwd:afxinl2.obj
 0002:0000a7e0       ??_R3CBrush@@8             005347e0     nafxcwd:afxinl2.obj
 0002:0000a7f0       ??_R4CBrush@@6B@           005347f0     nafxcwd:afxinl2.obj
 0002:0000a808       ??_R1A@?0A@A@CFont@@8      00534808     nafxcwd:afxinl2.obj
 0002:0000a820       ??_R2CFont@@8              00534820     nafxcwd:afxinl2.obj
 0002:0000a830       ??_R3CFont@@8              00534830     nafxcwd:afxinl2.obj
 0002:0000a840       ??_R4CFont@@6B@            00534840     nafxcwd:afxinl2.obj
 0002:0000a858       ??_R1A@?0A@A@CBitmap@@8    00534858     nafxcwd:afxinl2.obj
 0002:0000a870       ??_R2CBitmap@@8            00534870     nafxcwd:afxinl2.obj
 0002:0000a880       ??_R3CBitmap@@8            00534880     nafxcwd:afxinl2.obj
 0002:0000a890       ??_R4CBitmap@@6B@          00534890     nafxcwd:afxinl2.obj
 0002:0000a8a8       ??_R1A@?0A@A@CPalette@@8   005348a8     nafxcwd:afxinl2.obj
 0002:0000a8c0       ??_R2CPalette@@8           005348c0     nafxcwd:afxinl2.obj
 0002:0000a8d0       ??_R3CPalette@@8           005348d0     nafxcwd:afxinl2.obj
 0002:0000a8e0       ??_R4CPalette@@6B@         005348e0     nafxcwd:afxinl2.obj
 0002:0000a8f8       ??_R1A@?0A@A@CRgn@@8       005348f8     nafxcwd:afxinl2.obj
 0002:0000a910       ??_R2CRgn@@8               00534910     nafxcwd:afxinl2.obj
 0002:0000a920       ??_R3CRgn@@8               00534920     nafxcwd:afxinl2.obj
 0002:0000a930       ??_R4CRgn@@6B@             00534930     nafxcwd:afxinl2.obj
 0002:0000a948       ??_R1A@?0A@A@CMenu@@8      00534948     nafxcwd:afxinl2.obj
 0002:0000a960       ??_R2CMenu@@8              00534960     nafxcwd:afxinl2.obj
 0002:0000a970       ??_R3CMenu@@8              00534970     nafxcwd:afxinl2.obj
 0002:0000a980       ??_R4CMenu@@6B@            00534980     nafxcwd:afxinl2.obj
 0002:0000a998       ??_R1A@?0A@A@CDC@@8        00534998     nafxcwd:wingdi.obj
 0002:0000a9b0       ??_R2CDC@@8                005349b0     nafxcwd:wingdi.obj
 0002:0000a9c0       ??_R3CDC@@8                005349c0     nafxcwd:wingdi.obj
 0002:0000a9d0       ??_R4CDC@@6B@              005349d0     nafxcwd:wingdi.obj
 0002:0000a9e8       ??_R1A@?0A@A@CClientDC@@8  005349e8     nafxcwd:wingdi.obj
 0002:0000aa00       ??_R2CClientDC@@8          00534a00     nafxcwd:wingdi.obj
 0002:0000aa10       ??_R3CClientDC@@8          00534a10     nafxcwd:wingdi.obj
 0002:0000aa20       ??_R4CClientDC@@6B@        00534a20     nafxcwd:wingdi.obj
 0002:0000aa38       ??_R1A@?0A@A@CWindowDC@@8  00534a38     nafxcwd:wingdi.obj
 0002:0000aa50       ??_R2CWindowDC@@8          00534a50     nafxcwd:wingdi.obj
 0002:0000aa60       ??_R3CWindowDC@@8          00534a60     nafxcwd:wingdi.obj
 0002:0000aa70       ??_R4CWindowDC@@6B@        00534a70     nafxcwd:wingdi.obj
 0002:0000aa88       ??_R1A@?0A@A@CPaintDC@@8   00534a88     nafxcwd:wingdi.obj
 0002:0000aaa0       ??_R2CPaintDC@@8           00534aa0     nafxcwd:wingdi.obj
 0002:0000aab0       ??_R3CPaintDC@@8           00534ab0     nafxcwd:wingdi.obj
 0002:0000aac0       ??_R4CPaintDC@@6B@         00534ac0     nafxcwd:wingdi.obj
 0002:0000aad8       ??_R1A@?0A@A@CTempDC@@8    00534ad8     nafxcwd:wingdi.obj
 0002:0000aaf0       ??_R2CTempDC@@8            00534af0     nafxcwd:wingdi.obj
 0002:0000ab00       ??_R3CTempDC@@8            00534b00     nafxcwd:wingdi.obj
 0002:0000ab10       ??_R4CTempDC@@6B@          00534b10     nafxcwd:wingdi.obj
 0002:0000ab28       ??_R1A@?0A@A@CTempGdiObject@@8 00534b28     nafxcwd:wingdi.obj
 0002:0000ab40       ??_R2CTempGdiObject@@8     00534b40     nafxcwd:wingdi.obj
 0002:0000ab50       ??_R3CTempGdiObject@@8     00534b50     nafxcwd:wingdi.obj
 0002:0000ab60       ??_R4CTempGdiObject@@6B@   00534b60     nafxcwd:wingdi.obj
 0002:0000ab78       ??_R1A@?0A@A@CStatic@@8    00534b78     nafxcwd:afxinl3.obj
 0002:0000ab90       ??_R2CStatic@@8            00534b90     nafxcwd:afxinl3.obj
 0002:0000aba8       ??_R3CStatic@@8            00534ba8     nafxcwd:afxinl3.obj
 0002:0000abb8       ??_R4CStatic@@6B@          00534bb8     nafxcwd:afxinl3.obj
 0002:0000abd0       ??_R1A@?0A@A@CButton@@8    00534bd0     nafxcwd:afxinl3.obj
 0002:0000abe8       ??_R2CButton@@8            00534be8     nafxcwd:afxinl3.obj
 0002:0000ac00       ??_R3CButton@@8            00534c00     nafxcwd:afxinl3.obj
 0002:0000ac10       ??_R4CButton@@6B@          00534c10     nafxcwd:afxinl3.obj
 0002:0000ac28       ??_R1A@?0A@A@CListBox@@8   00534c28     nafxcwd:afxinl3.obj
 0002:0000ac40       ??_R2CListBox@@8           00534c40     nafxcwd:afxinl3.obj
 0002:0000ac58       ??_R3CListBox@@8           00534c58     nafxcwd:afxinl3.obj
 0002:0000ac68       ??_R4CListBox@@6B@         00534c68     nafxcwd:afxinl3.obj
 0002:0000ac80       ??_R1A@?0A@A@CCheckListBox@@8 00534c80     nafxcwd:afxinl3.obj
 0002:0000ac98       ??_R2CCheckListBox@@8      00534c98     nafxcwd:afxinl3.obj
 0002:0000acb0       ??_R3CCheckListBox@@8      00534cb0     nafxcwd:afxinl3.obj
 0002:0000acc0       ??_R4CCheckListBox@@6B@    00534cc0     nafxcwd:afxinl3.obj
 0002:0000acd8       ??_R1A@?0A@A@CComboBox@@8  00534cd8     nafxcwd:afxinl3.obj
 0002:0000acf0       ??_R2CComboBox@@8          00534cf0     nafxcwd:afxinl3.obj
 0002:0000ad08       ??_R3CComboBox@@8          00534d08     nafxcwd:afxinl3.obj
 0002:0000ad18       ??_R4CComboBox@@6B@        00534d18     nafxcwd:afxinl3.obj
 0002:0000ad30       ??_R1A@?0A@A@CEdit@@8      00534d30     nafxcwd:afxinl3.obj
 0002:0000ad48       ??_R2CEdit@@8              00534d48     nafxcwd:afxinl3.obj
 0002:0000ad60       ??_R3CEdit@@8              00534d60     nafxcwd:afxinl3.obj
 0002:0000ad70       ??_R4CEdit@@6B@            00534d70     nafxcwd:afxinl3.obj
 0002:0000ad88       ??_R1A@?0A@A@CScrollBar@@8 00534d88     nafxcwd:afxinl3.obj
 0002:0000ada0       ??_R2CScrollBar@@8         00534da0     nafxcwd:afxinl3.obj
 0002:0000adb8       ??_R3CScrollBar@@8         00534db8     nafxcwd:afxinl3.obj
 0002:0000adc8       ??_R4CScrollBar@@6B@       00534dc8     nafxcwd:afxinl3.obj
 0002:0000ade0       ??_R2CCmdTarget@@8         00534de0     nafxcwd:cmdtarg.obj
 0002:0000adf0       ??_R3CCmdTarget@@8         00534df0     nafxcwd:cmdtarg.obj
 0002:0000ae00       ??_R4CCmdTarget@@6B@       00534e00     nafxcwd:cmdtarg.obj
 0002:0000ae14       ??_R2CCmdUI@@8             00534e14     nafxcwd:cmdtarg.obj
 0002:0000ae20       ??_R3CCmdUI@@8             00534e20     nafxcwd:cmdtarg.obj
 0002:0000ae30       ??_R4CCmdUI@@6B@           00534e30     nafxcwd:cmdtarg.obj
 0002:0000ae44       ??_R2CObject@@8            00534e44     nafxcwd:afxinl1.obj
 0002:0000ae50       ??_R3CObject@@8            00534e50     nafxcwd:afxinl1.obj
 0002:0000ae60       ??_R4CObject@@6B@          00534e60     nafxcwd:afxinl1.obj
 0002:0000ae78       ??_R2CException@@8         00534e78     nafxcwd:afxinl1.obj
 0002:0000ae88       ??_R3CException@@8         00534e88     nafxcwd:afxinl1.obj
 0002:0000ae98       ??_R4CException@@6B@       00534e98     nafxcwd:afxinl1.obj
 0002:0000aeb0       ??_R2CSimpleException@@8   00534eb0     nafxcwd:afxinl1.obj
 0002:0000aec0       ??_R3CSimpleException@@8   00534ec0     nafxcwd:afxinl1.obj
 0002:0000aed0       ??_R4CSimpleException@@6B@ 00534ed0     nafxcwd:afxinl1.obj
 0002:0000aee8       ??_R1A@?0A@A@CMemoryException@@8 00534ee8     nafxcwd:afxinl1.obj
 0002:0000af00       ??_R2CMemoryException@@8   00534f00     nafxcwd:afxinl1.obj
 0002:0000af18       ??_R3CMemoryException@@8   00534f18     nafxcwd:afxinl1.obj
 0002:0000af28       ??_R4CMemoryException@@6B@ 00534f28     nafxcwd:afxinl1.obj
 0002:0000af40       ??_R1A@?0A@A@CNotSupportedException@@8 00534f40     nafxcwd:afxinl1.obj
 0002:0000af58       ??_R2CNotSupportedException@@8 00534f58     nafxcwd:afxinl1.obj
 0002:0000af70       ??_R3CNotSupportedException@@8 00534f70     nafxcwd:afxinl1.obj
 0002:0000af80       ??_R4CNotSupportedException@@6B@ 00534f80     nafxcwd:afxinl1.obj
 0002:0000af98       ??_R1A@?0A@A@CArchiveException@@8 00534f98     nafxcwd:afxinl1.obj
 0002:0000afb0       ??_R2CArchiveException@@8  00534fb0     nafxcwd:afxinl1.obj
 0002:0000afc0       ??_R3CArchiveException@@8  00534fc0     nafxcwd:afxinl1.obj
 0002:0000afd0       ??_R4CArchiveException@@6B@ 00534fd0     nafxcwd:afxinl1.obj
 0002:0000afe8       ??_R1A@?0A@A@CFileException@@8 00534fe8     nafxcwd:afxinl1.obj
 0002:0000b000       ??_R2CFileException@@8     00535000     nafxcwd:afxinl1.obj
 0002:0000b010       ??_R3CFileException@@8     00535010     nafxcwd:afxinl1.obj
 0002:0000b020       ??_R4CFileException@@6B@   00535020     nafxcwd:afxinl1.obj
 0002:0000b038       ??_R1A@?0A@A@CCommonDialog@@8 00535038     nafxcwd:afxinl1.obj
 0002:0000b050       ??_R2CCommonDialog@@8      00535050     nafxcwd:afxinl1.obj
 0002:0000b068       ??_R3CCommonDialog@@8      00535068     nafxcwd:afxinl1.obj
 0002:0000b078       ??_R4CCommonDialog@@6B@    00535078     nafxcwd:afxinl1.obj
 0002:0000b090       ??_R1A@?0A@A@CRectTracker@@8 00535090     nafxcwd:afxinl1.obj
 0002:0000b0a8       ??_R2CRectTracker@@8       005350a8     nafxcwd:afxinl1.obj
 0002:0000b0b0       ??_R3CRectTracker@@8       005350b0     nafxcwd:afxinl1.obj
 0002:0000b0c0       ??_R4CRectTracker@@6B@     005350c0     nafxcwd:afxinl1.obj
 0002:0000b0d8       ??_R1A@?0A@A@CBitmapButton@@8 005350d8     nafxcwd:afxinl1.obj
 0002:0000b0f0       ??_R2CBitmapButton@@8      005350f0     nafxcwd:afxinl1.obj
 0002:0000b108       ??_R3CBitmapButton@@8      00535108     nafxcwd:afxinl1.obj
 0002:0000b118       ??_R4CBitmapButton@@6B@    00535118     nafxcwd:afxinl1.obj
 0002:0000b130       ??_R1A@?0A@A@_AFX_WIN_STATE@@8 00535130     nafxcwd:appcore.obj
 0002:0000b148       ??_R2_AFX_WIN_STATE@@8     00535148     nafxcwd:appcore.obj
 0002:0000b158       ??_R3_AFX_WIN_STATE@@8     00535158     nafxcwd:appcore.obj
 0002:0000b168       ??_R4_AFX_WIN_STATE@@6B@   00535168     nafxcwd:appcore.obj
 0002:0000b180       ??_R2CWinApp@@8            00535180     nafxcwd:appcore.obj
 0002:0000b198       ??_R3CWinApp@@8            00535198     nafxcwd:appcore.obj
 0002:0000b1a8       ??_R4CWinApp@@6B@          005351a8     nafxcwd:appcore.obj
 0002:0000b1c0       ??_R1A@?0A@A@CCommandLineInfo@@8 005351c0     nafxcwd:appcore.obj
 0002:0000b1d8       ??_R2CCommandLineInfo@@8   005351d8     nafxcwd:appcore.obj
 0002:0000b1e8       ??_R3CCommandLineInfo@@8   005351e8     nafxcwd:appcore.obj
 0002:0000b1f8       ??_R4CCommandLineInfo@@6B@ 005351f8     nafxcwd:appcore.obj
 0002:0000b210       ??_R2CWinThread@@8         00535210     nafxcwd:thrdcore.obj
 0002:0000b220       ??_R3CWinThread@@8         00535220     nafxcwd:thrdcore.obj
 0002:0000b230       ??_R4CWinThread@@6B@       00535230     nafxcwd:thrdcore.obj
 0002:0000b248       ??_R1A@?0A@A@_AFX_CTL3D_THREAD@@8 00535248     nafxcwd:thrdcore.obj
 0002:0000b260       ??_R2_AFX_CTL3D_THREAD@@8  00535260     nafxcwd:thrdcore.obj
 0002:0000b270       ??_R3_AFX_CTL3D_THREAD@@8  00535270     nafxcwd:thrdcore.obj
 0002:0000b280       ??_R4_AFX_CTL3D_THREAD@@6B@ 00535280     nafxcwd:thrdcore.obj
 0002:0000b298       ??_R2CDialog@@8            00535298     nafxcwd:dlgcore.obj
 0002:0000b2b0       ??_R3CDialog@@8            005352b0     nafxcwd:dlgcore.obj
 0002:0000b2c0       ??_R4CDialog@@6B@          005352c0     nafxcwd:dlgcore.obj
 0002:0000b2d8       ??_R1A@?0A@A@_AFX_DEBUG_STATE@@8 005352d8     nafxcwd:dumpinit.obj
 0002:0000b2f0       ??_R2_AFX_DEBUG_STATE@@8   005352f0     nafxcwd:dumpinit.obj
 0002:0000b300       ??_R3_AFX_DEBUG_STATE@@8   00535300     nafxcwd:dumpinit.obj
 0002:0000b310       ??_R4_AFX_DEBUG_STATE@@6B@ 00535310     nafxcwd:dumpinit.obj
 0002:0000b328       ??_R1A@?0A@A@_AFX_THREAD_STATE@@8 00535328     nafxcwd:afxstate.obj
 0002:0000b340       ??_R2_AFX_THREAD_STATE@@8  00535340     nafxcwd:afxstate.obj
 0002:0000b350       ??_R3_AFX_THREAD_STATE@@8  00535350     nafxcwd:afxstate.obj
 0002:0000b360       ??_R4_AFX_THREAD_STATE@@6B@ 00535360     nafxcwd:afxstate.obj
 0002:0000b378       ??_R1A@?0A@A@AFX_MODULE_STATE@@8 00535378     nafxcwd:afxstate.obj
 0002:0000b390       ??_R2AFX_MODULE_STATE@@8   00535390     nafxcwd:afxstate.obj
 0002:0000b3a0       ??_R3AFX_MODULE_STATE@@8   005353a0     nafxcwd:afxstate.obj
 0002:0000b3b0       ??_R4AFX_MODULE_STATE@@6B@ 005353b0     nafxcwd:afxstate.obj
 0002:0000b3c8       ??_R1A@?0A@A@AFX_MODULE_THREAD_STATE@@8 005353c8     nafxcwd:afxstate.obj
 0002:0000b3e0       ??_R2AFX_MODULE_THREAD_STATE@@8 005353e0     nafxcwd:afxstate.obj
 0002:0000b3f0       ??_R3AFX_MODULE_THREAD_STATE@@8 005353f0     nafxcwd:afxstate.obj
 0002:0000b400       ??_R4AFX_MODULE_THREAD_STATE@@6B@ 00535400     nafxcwd:afxstate.obj
 0002:0000b418       ??_R1A@?0A@A@_AFX_BASE_MODULE_STATE@@8 00535418     nafxcwd:afxstate.obj
 0002:0000b430       ??_R2_AFX_BASE_MODULE_STATE@@8 00535430     nafxcwd:afxstate.obj
 0002:0000b440       ??_R3_AFX_BASE_MODULE_STATE@@8 00535440     nafxcwd:afxstate.obj
 0002:0000b450       ??_R4_AFX_BASE_MODULE_STATE@@6B@ 00535450     nafxcwd:afxstate.obj
 0002:0000b468       ??_R1A@?0A@A@CHandleMap@@8 00535468     nafxcwd:winhand.obj
 0002:0000b480       ??_R2CHandleMap@@8         00535480     nafxcwd:winhand.obj
 0002:0000b488       ??_R3CHandleMap@@8         00535488     nafxcwd:winhand.obj
 0002:0000b498       ??_R4CHandleMap@@6B@       00535498     nafxcwd:winhand.obj
 0002:0000b4b0       ??_R1A@?0A@A@CMapPtrToPtr@@8 005354b0     nafxcwd:map_pp.obj
 0002:0000b4c8       ??_R2CMapPtrToPtr@@8       005354c8     nafxcwd:map_pp.obj
 0002:0000b4d8       ??_R3CMapPtrToPtr@@8       005354d8     nafxcwd:map_pp.obj
 0002:0000b4e8       ??_R4CMapPtrToPtr@@6B@     005354e8     nafxcwd:map_pp.obj
 0002:0000b500       ??_R1A@?0A@A@CTempMenu@@8  00535500     nafxcwd:winmenu.obj
 0002:0000b518       ??_R2CTempMenu@@8          00535518     nafxcwd:winmenu.obj
 0002:0000b528       ??_R3CTempMenu@@8          00535528     nafxcwd:winmenu.obj
 0002:0000b538       ??_R4CTempMenu@@6B@        00535538     nafxcwd:winmenu.obj
 0002:0000b550       ??_R1A@?0A@A@CThreadData@@8 00535550     nafxcwd:afxtls.obj
 0002:0000b568       ??_R2CThreadData@@8        00535568     nafxcwd:afxtls.obj
 0002:0000b578       ??_R3CThreadData@@8        00535578     nafxcwd:afxtls.obj
 0002:0000b588       ??_R4CThreadData@@6B@      00535588     nafxcwd:afxtls.obj
 0002:0000b5a0       ??_R1A@?0A@A@CPtrList@@8   005355a0     nafxcwd:list_p.obj
 0002:0000b5b8       ??_R2CPtrList@@8           005355b8     nafxcwd:list_p.obj
 0002:0000b5c8       ??_R3CPtrList@@8           005355c8     nafxcwd:list_p.obj
 0002:0000b5d8       ??_R4CPtrList@@6B@         005355d8     nafxcwd:list_p.obj
 0002:0000b5f0       ??_R1A@?0A@A@_AFX_CHECKLIST_STATE@@8 005355f0     nafxcwd:winctrl3.obj
 0002:0000b608       ??_R2_AFX_CHECKLIST_STATE@@8 00535608     nafxcwd:winctrl3.obj
 0002:0000b618       ??_R3_AFX_CHECKLIST_STATE@@8 00535618     nafxcwd:winctrl3.obj
 0002:0000b628       ??_R4_AFX_CHECKLIST_STATE@@6B@ 00535628     nafxcwd:winctrl3.obj
 0002:0000b640       ??_R1A@?0A@A@CByteArray@@8 00535640     nafxcwd:array_b.obj
 0002:0000b658       ??_R2CByteArray@@8         00535658     nafxcwd:array_b.obj
 0002:0000b668       ??_R3CByteArray@@8         00535668     nafxcwd:array_b.obj
 0002:0000b678       ??_R4CByteArray@@6B@       00535678     nafxcwd:array_b.obj
 0002:0000b690       ??_R1A@?0A@A@CWordArray@@8 00535690     nafxcwd:array_w.obj
 0002:0000b6a8       ??_R2CWordArray@@8         005356a8     nafxcwd:array_w.obj
 0002:0000b6b8       ??_R3CWordArray@@8         005356b8     nafxcwd:array_w.obj
 0002:0000b6c8       ??_R4CWordArray@@6B@       005356c8     nafxcwd:array_w.obj
 0002:0000b6e0       ??_R1A@?0A@A@CDWordArray@@8 005356e0     nafxcwd:array_d.obj
 0002:0000b6f8       ??_R2CDWordArray@@8        005356f8     nafxcwd:array_d.obj
 0002:0000b708       ??_R3CDWordArray@@8        00535708     nafxcwd:array_d.obj
 0002:0000b718       ??_R4CDWordArray@@6B@      00535718     nafxcwd:array_d.obj
 0002:0000b730       ??_R1A@?0A@A@CUIntArray@@8 00535730     nafxcwd:array_u.obj
 0002:0000b748       ??_R2CUIntArray@@8         00535748     nafxcwd:array_u.obj
 0002:0000b758       ??_R3CUIntArray@@8         00535758     nafxcwd:array_u.obj
 0002:0000b768       ??_R4CUIntArray@@6B@       00535768     nafxcwd:array_u.obj
 0002:0000b780       ??_R1A@?0A@A@CPtrArray@@8  00535780     nafxcwd:array_p.obj
 0002:0000b798       ??_R2CPtrArray@@8          00535798     nafxcwd:array_p.obj
 0002:0000b7a8       ??_R3CPtrArray@@8          005357a8     nafxcwd:array_p.obj
 0002:0000b7b8       ??_R4CPtrArray@@6B@        005357b8     nafxcwd:array_p.obj
 0002:0000b7d0       ??_R1A@?0A@A@CObArray@@8   005357d0     nafxcwd:array_o.obj
 0002:0000b7e8       ??_R2CObArray@@8           005357e8     nafxcwd:array_o.obj
 0002:0000b7f8       ??_R3CObArray@@8           005357f8     nafxcwd:array_o.obj
 0002:0000b808       ??_R4CObArray@@6B@         00535808     nafxcwd:array_o.obj
 0002:0000b820       ??_R1A@?0A@A@CStringArray@@8 00535820     nafxcwd:array_s.obj
 0002:0000b838       ??_R2CStringArray@@8       00535838     nafxcwd:array_s.obj
 0002:0000b848       ??_R3CStringArray@@8       00535848     nafxcwd:array_s.obj
 0002:0000b858       ??_R4CStringArray@@6B@     00535858     nafxcwd:array_s.obj
 0002:0000b870       ??_R1A@?0A@A@CMapWordToPtr@@8 00535870     nafxcwd:map_wp.obj
 0002:0000b888       ??_R2CMapWordToPtr@@8      00535888     nafxcwd:map_wp.obj
 0002:0000b898       ??_R3CMapWordToPtr@@8      00535898     nafxcwd:map_wp.obj
 0002:0000b8a8       ??_R4CMapWordToPtr@@6B@    005358a8     nafxcwd:map_wp.obj
 0002:0000b8c0       ??_R1A@?0A@A@CMapPtrToWord@@8 005358c0     nafxcwd:map_pw.obj
 0002:0000b8d8       ??_R2CMapPtrToWord@@8      005358d8     nafxcwd:map_pw.obj
 0002:0000b8e8       ??_R3CMapPtrToWord@@8      005358e8     nafxcwd:map_pw.obj
 0002:0000b8f8       ??_R4CMapPtrToWord@@6B@    005358f8     nafxcwd:map_pw.obj
 0002:0000b910       ??_R1A@?0A@A@CMapWordToOb@@8 00535910     nafxcwd:map_wo.obj
 0002:0000b928       ??_R2CMapWordToOb@@8       00535928     nafxcwd:map_wo.obj
 0002:0000b938       ??_R3CMapWordToOb@@8       00535938     nafxcwd:map_wo.obj
 0002:0000b948       ??_R4CMapWordToOb@@6B@     00535948     nafxcwd:map_wo.obj
 0002:0000b960       ??_R1A@?0A@A@CMapStringToPtr@@8 00535960     nafxcwd:map_sp.obj
 0002:0000b978       ??_R2CMapStringToPtr@@8    00535978     nafxcwd:map_sp.obj
 0002:0000b988       ??_R3CMapStringToPtr@@8    00535988     nafxcwd:map_sp.obj
 0002:0000b998       ??_R4CMapStringToPtr@@6B@  00535998     nafxcwd:map_sp.obj
 0002:0000b9b0       ??_R1A@?0A@A@CMapStringToOb@@8 005359b0     nafxcwd:map_so.obj
 0002:0000b9c8       ??_R2CMapStringToOb@@8     005359c8     nafxcwd:map_so.obj
 0002:0000b9d8       ??_R3CMapStringToOb@@8     005359d8     nafxcwd:map_so.obj
 0002:0000b9e8       ??_R4CMapStringToOb@@6B@   005359e8     nafxcwd:map_so.obj
 0002:0000ba00       ??_R1A@?0A@A@CMapStringToString@@8 00535a00     nafxcwd:map_ss.obj
 0002:0000ba18       ??_R2CMapStringToString@@8 00535a18     nafxcwd:map_ss.obj
 0002:0000ba28       ??_R3CMapStringToString@@8 00535a28     nafxcwd:map_ss.obj
 0002:0000ba38       ??_R4CMapStringToString@@6B@ 00535a38     nafxcwd:map_ss.obj
 0002:0000ba50       ??_R1A@?0A@A@CFileDialog@@8 00535a50     nafxcwd:dlgfile.obj
 0002:0000ba68       ??_R2CFileDialog@@8        00535a68     nafxcwd:dlgfile.obj
 0002:0000ba88       ??_R3CFileDialog@@8        00535a88     nafxcwd:dlgfile.obj
 0002:0000ba98       ??_R4CFileDialog@@6B@      00535a98     nafxcwd:dlgfile.obj
 0002:0000bab0       ??_R1A@?0A@A@CPropertyPage@@8 00535ab0     nafxcwd:dlgprop.obj
 0002:0000bac8       ??_R2CPropertyPage@@8      00535ac8     nafxcwd:dlgprop.obj
 0002:0000bae0       ??_R3CPropertyPage@@8      00535ae0     nafxcwd:dlgprop.obj
 0002:0000baf0       ??_R4CPropertyPage@@6B@    00535af0     nafxcwd:dlgprop.obj
 0002:0000bb08       ??_R1A@?0A@A@CPropertySheet@@8 00535b08     nafxcwd:dlgprop.obj
 0002:0000bb20       ??_R2CPropertySheet@@8     00535b20     nafxcwd:dlgprop.obj
 0002:0000bb38       ??_R3CPropertySheet@@8     00535b38     nafxcwd:dlgprop.obj
 0002:0000bb48       ??_R4CPropertySheet@@6B@   00535b48     nafxcwd:dlgprop.obj
 0002:0000bb60       ??_R1A@?0A@A@CPropertyPageEx@@8 00535b60     nafxcwd:dlgprop.obj
 0002:0000bb78       ??_R2CPropertyPageEx@@8    00535b78     nafxcwd:dlgprop.obj
 0002:0000bb98       ??_R3CPropertyPageEx@@8    00535b98     nafxcwd:dlgprop.obj
 0002:0000bba8       ??_R4CPropertyPageEx@@6B@  00535ba8     nafxcwd:dlgprop.obj
 0002:0000bbc0       ??_R1A@?0A@A@CPropertySheetEx@@8 00535bc0     nafxcwd:dlgprop.obj
 0002:0000bbd8       ??_R2CPropertySheetEx@@8   00535bd8     nafxcwd:dlgprop.obj
 0002:0000bbf0       ??_R3CPropertySheetEx@@8   00535bf0     nafxcwd:dlgprop.obj
 0002:0000bc00       ??_R4CPropertySheetEx@@6B@ 00535c00     nafxcwd:dlgprop.obj
 0002:0000bc18       ??_R1A@?0A@A@CSplitterWnd@@8 00535c18     nafxcwd:winsplit.obj
 0002:0000bc30       ??_R2CSplitterWnd@@8       00535c30     nafxcwd:winsplit.obj
 0002:0000bc48       ??_R3CSplitterWnd@@8       00535c48     nafxcwd:winsplit.obj
 0002:0000bc58       ??_R4CSplitterWnd@@6B@     00535c58     nafxcwd:winsplit.obj
 0002:0000bc70       ??_R1A@?0A@A@CControlBar@@8 00535c70     nafxcwd:barcore.obj
 0002:0000bc88       ??_R2CControlBar@@8        00535c88     nafxcwd:barcore.obj
 0002:0000bca0       ??_R3CControlBar@@8        00535ca0     nafxcwd:barcore.obj
 0002:0000bcb0       ??_R4CControlBar@@6B@      00535cb0     nafxcwd:barcore.obj
 0002:0000bcc8       ??_R1A@?0A@A@CToolBar@@8   00535cc8     nafxcwd:bartool.obj
 0002:0000bce0       ??_R2CToolBar@@8           00535ce0     nafxcwd:bartool.obj
 0002:0000bcf8       ??_R3CToolBar@@8           00535cf8     nafxcwd:bartool.obj
 0002:0000bd08       ??_R4CToolBar@@6B@         00535d08     nafxcwd:bartool.obj
 0002:0000bd20       ??_R1A@?0A@A@CToolCmdUI@@8 00535d20     nafxcwd:bartool.obj
 0002:0000bd38       ??_R2CToolCmdUI@@8         00535d38     nafxcwd:bartool.obj
 0002:0000bd48       ??_R3CToolCmdUI@@8         00535d48     nafxcwd:bartool.obj
 0002:0000bd58       ??_R4CToolCmdUI@@6B@       00535d58     nafxcwd:bartool.obj
 0002:0000bd70       ??_R1A@?0A@A@CDialogBar@@8 00535d70     nafxcwd:bardlg.obj
 0002:0000bd88       ??_R2CDialogBar@@8         00535d88     nafxcwd:bardlg.obj
 0002:0000bda0       ??_R3CDialogBar@@8         00535da0     nafxcwd:bardlg.obj
 0002:0000bdb0       ??_R4CDialogBar@@6B@       00535db0     nafxcwd:bardlg.obj
 0002:0000bdc8       ??_R1A@?0A@A@CFrameWnd@@8  00535dc8     nafxcwd:winfrm.obj
 0002:0000bde0       ??_R2CFrameWnd@@8          00535de0     nafxcwd:winfrm.obj
 0002:0000bdf8       ??_R3CFrameWnd@@8          00535df8     nafxcwd:winfrm.obj
 0002:0000be08       ??_R4CFrameWnd@@6B@        00535e08     nafxcwd:winfrm.obj
 0002:0000be20       ??_R1A@?0A@A@CRecentFileList@@8 00535e20     nafxcwd:filelist.obj
 0002:0000be38       ??_R2CRecentFileList@@8    00535e38     nafxcwd:filelist.obj
 0002:0000be40       ??_R3CRecentFileList@@8    00535e40     nafxcwd:filelist.obj
 0002:0000be50       ??_R4CRecentFileList@@6B@  00535e50     nafxcwd:filelist.obj
 0002:0000be68       ??_R1A@?0A@A@CDocTemplate@@8 00535e68     nafxcwd:doctempl.obj
 0002:0000be80       ??_R2CDocTemplate@@8       00535e80     nafxcwd:doctempl.obj
 0002:0000be90       ??_R3CDocTemplate@@8       00535e90     nafxcwd:doctempl.obj
 0002:0000bea0       ??_R4CDocTemplate@@6B@     00535ea0     nafxcwd:doctempl.obj
 0002:0000beb8       ??_R1A@?0A@A@_AFX_COLOR_STATE@@8 00535eb8     nafxcwd:dlgclr.obj
 0002:0000bed0       ??_R2_AFX_COLOR_STATE@@8   00535ed0     nafxcwd:dlgclr.obj
 0002:0000bee0       ??_R3_AFX_COLOR_STATE@@8   00535ee0     nafxcwd:dlgclr.obj
 0002:0000bef0       ??_R4_AFX_COLOR_STATE@@6B@ 00535ef0     nafxcwd:dlgclr.obj
 0002:0000bf08       ??_R1A@?0A@A@CColorDialog@@8 00535f08     nafxcwd:dlgclr.obj
 0002:0000bf20       ??_R2CColorDialog@@8       00535f20     nafxcwd:dlgclr.obj
 0002:0000bf40       ??_R3CColorDialog@@8       00535f40     nafxcwd:dlgclr.obj
 0002:0000bf50       ??_R4CColorDialog@@6B@     00535f50     nafxcwd:dlgclr.obj
 0002:0000bf68       ??_R1A@?0A@A@_AFX_PROPPAGEFONTINFO@@8 00535f68     nafxcwd:ccdata.obj
 0002:0000bf80       ??_R2_AFX_PROPPAGEFONTINFO@@8 00535f80     nafxcwd:ccdata.obj
 0002:0000bf90       ??_R3_AFX_PROPPAGEFONTINFO@@8 00535f90     nafxcwd:ccdata.obj
 0002:0000bfa0       ??_R4_AFX_PROPPAGEFONTINFO@@6B@ 00535fa0     nafxcwd:ccdata.obj
 0002:0000bfb8       ??_R1A@?0A@A@CDragListBox@@8 00535fb8     nafxcwd:winctrl2.obj
 0002:0000bfd0       ??_R2CDragListBox@@8       00535fd0     nafxcwd:winctrl2.obj
 0002:0000bfe8       ??_R3CDragListBox@@8       00535fe8     nafxcwd:winctrl2.obj
 0002:0000bff8       ??_R4CDragListBox@@6B@     00535ff8     nafxcwd:winctrl2.obj
 0002:0000c010       ??_R1A@?0A@A@CToolBarCtrl@@8 00536010     nafxcwd:winctrl2.obj
 0002:0000c028       ??_R2CToolBarCtrl@@8       00536028     nafxcwd:winctrl2.obj
 0002:0000c040       ??_R3CToolBarCtrl@@8       00536040     nafxcwd:winctrl2.obj
 0002:0000c050       ??_R4CToolBarCtrl@@6B@     00536050     nafxcwd:winctrl2.obj
 0002:0000c068       ??_R1A@?0A@A@CStatusBarCtrl@@8 00536068     nafxcwd:winctrl2.obj
 0002:0000c080       ??_R2CStatusBarCtrl@@8     00536080     nafxcwd:winctrl2.obj
 0002:0000c098       ??_R3CStatusBarCtrl@@8     00536098     nafxcwd:winctrl2.obj
 0002:0000c0a8       ??_R4CStatusBarCtrl@@6B@   005360a8     nafxcwd:winctrl2.obj
 0002:0000c0c0       ??_R1A@?0A@A@CListCtrl@@8  005360c0     nafxcwd:winctrl2.obj
 0002:0000c0d8       ??_R2CListCtrl@@8          005360d8     nafxcwd:winctrl2.obj
 0002:0000c0f0       ??_R3CListCtrl@@8          005360f0     nafxcwd:winctrl2.obj
 0002:0000c100       ??_R4CListCtrl@@6B@        00536100     nafxcwd:winctrl2.obj
 0002:0000c118       ??_R1A@?0A@A@CTreeCtrl@@8  00536118     nafxcwd:winctrl2.obj
 0002:0000c130       ??_R2CTreeCtrl@@8          00536130     nafxcwd:winctrl2.obj
 0002:0000c148       ??_R3CTreeCtrl@@8          00536148     nafxcwd:winctrl2.obj
 0002:0000c158       ??_R4CTreeCtrl@@6B@        00536158     nafxcwd:winctrl2.obj
 0002:0000c170       ??_R1A@?0A@A@CSpinButtonCtrl@@8 00536170     nafxcwd:winctrl2.obj
 0002:0000c188       ??_R2CSpinButtonCtrl@@8    00536188     nafxcwd:winctrl2.obj
 0002:0000c1a0       ??_R3CSpinButtonCtrl@@8    005361a0     nafxcwd:winctrl2.obj
 0002:0000c1b0       ??_R4CSpinButtonCtrl@@6B@  005361b0     nafxcwd:winctrl2.obj
 0002:0000c1c8       ??_R1A@?0A@A@CSliderCtrl@@8 005361c8     nafxcwd:winctrl2.obj
 0002:0000c1e0       ??_R2CSliderCtrl@@8        005361e0     nafxcwd:winctrl2.obj
 0002:0000c1f8       ??_R3CSliderCtrl@@8        005361f8     nafxcwd:winctrl2.obj
 0002:0000c208       ??_R4CSliderCtrl@@6B@      00536208     nafxcwd:winctrl2.obj
 0002:0000c220       ??_R1A@?0A@A@CProgressCtrl@@8 00536220     nafxcwd:winctrl2.obj
 0002:0000c238       ??_R2CProgressCtrl@@8      00536238     nafxcwd:winctrl2.obj
 0002:0000c250       ??_R3CProgressCtrl@@8      00536250     nafxcwd:winctrl2.obj
 0002:0000c260       ??_R4CProgressCtrl@@6B@    00536260     nafxcwd:winctrl2.obj
 0002:0000c278       ??_R1A@?0A@A@CHeaderCtrl@@8 00536278     nafxcwd:winctrl2.obj
 0002:0000c290       ??_R2CHeaderCtrl@@8        00536290     nafxcwd:winctrl2.obj
 0002:0000c2a8       ??_R3CHeaderCtrl@@8        005362a8     nafxcwd:winctrl2.obj
 0002:0000c2b8       ??_R4CHeaderCtrl@@6B@      005362b8     nafxcwd:winctrl2.obj
 0002:0000c2d0       ??_R1A@?0A@A@CHotKeyCtrl@@8 005362d0     nafxcwd:winctrl2.obj
 0002:0000c2e8       ??_R2CHotKeyCtrl@@8        005362e8     nafxcwd:winctrl2.obj
 0002:0000c300       ??_R3CHotKeyCtrl@@8        00536300     nafxcwd:winctrl2.obj
 0002:0000c310       ??_R4CHotKeyCtrl@@6B@      00536310     nafxcwd:winctrl2.obj
 0002:0000c328       ??_R1A@?0A@A@CTabCtrl@@8   00536328     nafxcwd:winctrl2.obj
 0002:0000c340       ??_R2CTabCtrl@@8           00536340     nafxcwd:winctrl2.obj
 0002:0000c358       ??_R3CTabCtrl@@8           00536358     nafxcwd:winctrl2.obj
 0002:0000c368       ??_R4CTabCtrl@@6B@         00536368     nafxcwd:winctrl2.obj
 0002:0000c380       ??_R1A@?0A@A@CAnimateCtrl@@8 00536380     nafxcwd:winctrl2.obj
 0002:0000c398       ??_R2CAnimateCtrl@@8       00536398     nafxcwd:winctrl2.obj
 0002:0000c3b0       ??_R3CAnimateCtrl@@8       005363b0     nafxcwd:winctrl2.obj
 0002:0000c3c0       ??_R4CAnimateCtrl@@6B@     005363c0     nafxcwd:winctrl2.obj
 0002:0000c3d8       ??_R1A@?0A@A@CRichEditCtrl@@8 005363d8     nafxcwd:winctrl2.obj
 0002:0000c3f0       ??_R2CRichEditCtrl@@8      005363f0     nafxcwd:winctrl2.obj
 0002:0000c408       ??_R3CRichEditCtrl@@8      00536408     nafxcwd:winctrl2.obj
 0002:0000c418       ??_R4CRichEditCtrl@@6B@    00536418     nafxcwd:winctrl2.obj
 0002:0000c430       ??_R1A@?0A@A@CImageList@@8 00536430     nafxcwd:winctrl2.obj
 0002:0000c448       ??_R2CImageList@@8         00536448     nafxcwd:winctrl2.obj
 0002:0000c458       ??_R3CImageList@@8         00536458     nafxcwd:winctrl2.obj
 0002:0000c468       ??_R4CImageList@@6B@       00536468     nafxcwd:winctrl2.obj
 0002:0000c480       ??_R1A@?0A@A@CTempImageList@@8 00536480     nafxcwd:winctrl2.obj
 0002:0000c498       ??_R2CTempImageList@@8     00536498     nafxcwd:winctrl2.obj
 0002:0000c4a8       ??_R3CTempImageList@@8     005364a8     nafxcwd:winctrl2.obj
 0002:0000c4b8       ??_R4CTempImageList@@6B@   005364b8     nafxcwd:winctrl2.obj
 0002:0000c4d0       ??_R1A@?0A@A@CView@@8      005364d0     nafxcwd:viewcore.obj
 0002:0000c4e8       ??_R2CView@@8              005364e8     nafxcwd:viewcore.obj
 0002:0000c500       ??_R3CView@@8              00536500     nafxcwd:viewcore.obj
 0002:0000c510       ??_R4CView@@6B@            00536510     nafxcwd:viewcore.obj
 0002:0000c528       ??_R1A@?0A@A@CCtrlView@@8  00536528     nafxcwd:viewcore.obj
 0002:0000c540       ??_R2CCtrlView@@8          00536540     nafxcwd:viewcore.obj
 0002:0000c558       ??_R3CCtrlView@@8          00536558     nafxcwd:viewcore.obj
 0002:0000c568       ??_R4CCtrlView@@6B@        00536568     nafxcwd:viewcore.obj
 0002:0000c580       ??_R1A@?0A@A@CScrollView@@8 00536580     nafxcwd:viewscrl.obj
 0002:0000c598       ??_R2CScrollView@@8        00536598     nafxcwd:viewscrl.obj
 0002:0000c5b0       ??_R3CScrollView@@8        005365b0     nafxcwd:viewscrl.obj
 0002:0000c5c0       ??_R4CScrollView@@6B@      005365c0     nafxcwd:viewscrl.obj
 0002:0000c5d8       ??_R1A@?0A@A@CToolTipCtrl@@8 005365d8     nafxcwd:tooltip.obj
 0002:0000c5f0       ??_R2CToolTipCtrl@@8       005365f0     nafxcwd:tooltip.obj
 0002:0000c608       ??_R3CToolTipCtrl@@8       00536608     nafxcwd:tooltip.obj
 0002:0000c618       ??_R4CToolTipCtrl@@6B@     00536618     nafxcwd:tooltip.obj
 0002:0000c630       ??_R1A@?0A@A@CDockContext@@8 00536630     nafxcwd:dockcont.obj
 0002:0000c648       ??_R2CDockContext@@8       00536648     nafxcwd:dockcont.obj
 0002:0000c650       ??_R3CDockContext@@8       00536650     nafxcwd:dockcont.obj
 0002:0000c660       ??_R4CDockContext@@6B@     00536660     nafxcwd:dockcont.obj
 0002:0000c678       ??_R1A@?0A@A@CFile@@8      00536678     nafxcwd:filecore.obj
 0002:0000c690       ??_R2CFile@@8              00536690     nafxcwd:filecore.obj
 0002:0000c6a0       ??_R3CFile@@8              005366a0     nafxcwd:filecore.obj
 0002:0000c6b0       ??_R4CFile@@6B@            005366b0     nafxcwd:filecore.obj
 0002:0000c6c8       ??_R1A@?0A@A@CDocManager@@8 005366c8     nafxcwd:docmgr.obj
 0002:0000c6e0       ??_R2CDocManager@@8        005366e0     nafxcwd:docmgr.obj
 0002:0000c6f0       ??_R3CDocManager@@8        005366f0     nafxcwd:docmgr.obj
 0002:0000c700       ??_R4CDocManager@@6B@      00536700     nafxcwd:docmgr.obj
 0002:0000c718       ??_R1A@?0A@A@CNewTypeDlg@@8 00536718     nafxcwd:docmgr.obj
 0002:0000c730       ??_R2CNewTypeDlg@@8        00536730     nafxcwd:docmgr.obj
 0002:0000c748       ??_R3CNewTypeDlg@@8        00536748     nafxcwd:docmgr.obj
 0002:0000c758       ??_R4CNewTypeDlg@@6B@      00536758     nafxcwd:docmgr.obj
 0002:0000c770       ??_R1A@?0A@A@CDocument@@8  00536770     nafxcwd:doccore.obj
 0002:0000c788       ??_R2CDocument@@8          00536788     nafxcwd:doccore.obj
 0002:0000c798       ??_R3CDocument@@8          00536798     nafxcwd:doccore.obj
 0002:0000c7a8       ??_R4CDocument@@6B@        005367a8     nafxcwd:doccore.obj
 0002:0000c7c0       ??_R1A@?0A@A@CMirrorFile@@8 005367c0     nafxcwd:doccore.obj
 0002:0000c7d8       ??_R2CMirrorFile@@8        005367d8     nafxcwd:doccore.obj
 0002:0000c7e8       ??_R3CMirrorFile@@8        005367e8     nafxcwd:doccore.obj
 0002:0000c7f8       ??_R4CMirrorFile@@6B@      005367f8     nafxcwd:doccore.obj
 0002:0000c810       ??_R1A@?0A@A@IUnknown@@8   00536810     nafxcwd:arcstrm.obj
 0002:0000c828       ??_R1A@?0A@A@ISequentialStream@@8 00536828     nafxcwd:arcstrm.obj
 0002:0000c840       ??_R1A@?0A@A@IStream@@8    00536840     nafxcwd:arcstrm.obj
 0002:0000c858       ??_R1A@?0A@A@CArchiveStream@@8 00536858     nafxcwd:arcstrm.obj
 0002:0000c870       ??_R2CArchiveStream@@8     00536870     nafxcwd:arcstrm.obj
 0002:0000c888       ??_R3CArchiveStream@@8     00536888     nafxcwd:arcstrm.obj
 0002:0000c898       ??_R4CArchiveStream@@6B@   00536898     nafxcwd:arcstrm.obj
 0002:0000c8b0       ??_R1A@?0A@A@CDockBar@@8   005368b0     nafxcwd:bardock.obj
 0002:0000c8c8       ??_R2CDockBar@@8           005368c8     nafxcwd:bardock.obj
 0002:0000c8e0       ??_R3CDockBar@@8           005368e0     nafxcwd:bardock.obj
 0002:0000c8f0       ??_R4CDockBar@@6B@         005368f0     nafxcwd:bardock.obj
 0002:0000c908       ??_R1A@?0A@A@CMiniFrameWnd@@8 00536908     nafxcwd:bardock.obj
 0002:0000c920       ??_R1A@?0A@A@CMiniDockFrameWnd@@8 00536920     nafxcwd:bardock.obj
 0002:0000c938       ??_R2CMiniDockFrameWnd@@8  00536938     nafxcwd:bardock.obj
 0002:0000c958       ??_R3CMiniDockFrameWnd@@8  00536958     nafxcwd:bardock.obj
 0002:0000c968       ??_R4CMiniDockFrameWnd@@6B@ 00536968     nafxcwd:bardock.obj
 0002:0000c980       ??_R2CMiniFrameWnd@@8      00536980     nafxcwd:winmini.obj
 0002:0000c998       ??_R3CMiniFrameWnd@@8      00536998     nafxcwd:winmini.obj
 0002:0000c9a8       ??_R4CMiniFrameWnd@@6B@    005369a8     nafxcwd:winmini.obj
 0002:0000c9c0       ??_R1A@?0A@A@type_info@@8  005369c0     libcmtd:typinfo.obj
 0002:0000c9d8       ??_R2type_info@@8          005369d8     libcmtd:typinfo.obj
 0002:0000c9e0       ??_R3type_info@@8          005369e0     libcmtd:typinfo.obj
 0002:0000c9f0       ??_R4type_info@@6B@        005369f0     libcmtd:typinfo.obj
 0002:0000ca08       ??_R1A@A@3BA@ios@@8        00536a08     libcimtd:ostream.obj
 0002:0000ca20       ??_R1A@?0A@A@ostream@@8    00536a20     libcimtd:ostream.obj
 0002:0000ca38       ??_R2ostream@@8            00536a38     libcimtd:ostream.obj
 0002:0000ca48       ??_R3ostream@@8            00536a48     libcimtd:ostream.obj
 0002:0000ca58       ??_R4ostream@@6B@          00536a58     libcimtd:ostream.obj
 0002:0000ca70       ??_R1A@?0A@A@ostream_withassign@@8 00536a70     libcimtd:ostream.obj
 0002:0000ca88       ??_R2ostream_withassign@@8 00536a88     libcimtd:ostream.obj
 0002:0000ca98       ??_R3ostream_withassign@@8 00536a98     libcimtd:ostream.obj
 0002:0000caa8       ??_R4ostream_withassign@@6B@ 00536aa8     libcimtd:ostream.obj
 0002:0000cac0       ??_R1A@?0A@A@ios@@8        00536ac0     libcimtd:_ios.obj
 0002:0000cad8       ??_R2ios@@8                00536ad8     libcimtd:_ios.obj
 0002:0000cae0       ??_R3ios@@8                00536ae0     libcimtd:_ios.obj
 0002:0000caf0       ??_R4ios@@6B@              00536af0     libcimtd:_ios.obj
 0002:0000d5b0       __CT??_R0?AVEFSBDException@?$TFixedSizeBinaryData@$0BAAA@@@@81 005375b0     RMOClientPipe.obj
 0002:0000d5d0       __CT??_R0?AVENoDataForRead@?$TFixedSizeBinaryData@$0BAAA@@@@81 005375d0     RMOClientPipe.obj
 0002:0000d5f0       __CTA2?AVENoDataForRead@?$TFixedSizeBinaryData@$0BAAA@@@ 005375f0     RMOClientPipe.obj
 0002:0000d600       __TI2?AVENoDataForRead@?$TFixedSizeBinaryData@$0BAAA@@@ 00537600     RMOClientPipe.obj
 0002:0000d6d8       __CT??_R0?AVNoDataForRead@TBinaryData@@@81 005376d8     TBinaryData.obj
 0002:0000d6f8       __CTA1?AVNoDataForRead@TBinaryData@@ 005376f8     TBinaryData.obj
 0002:0000d700       __TI1?AVNoDataForRead@TBinaryData@@ 00537700     TBinaryData.obj
 0002:0000d718       __CT??_R0?AVCEBadIndex@TUIList@@@81 00537718     TUIList.obj
 0002:0000d738       __CTA1?AVCEBadIndex@TUIList@@ 00537738     TUIList.obj
 0002:0000d740       __TI1?AVCEBadIndex@TUIList@@ 00537740     TUIList.obj
 0002:0000d758       __CT??_R0?AVCEBadIndex@TUI64List@@@81 00537758     TUIList.obj
 0002:0000d778       __CTA1?AVCEBadIndex@TUI64List@@ 00537778     TUIList.obj
 0002:0000d780       __TI1?AVCEBadIndex@TUI64List@@ 00537780     TUIList.obj
 0002:0000d798       __CT??_R0?AVEQueueEmpty@TCSEVUI32Queue@@@81 00537798     TUIList.obj
 0002:0000d7b8       __CTA1?AVEQueueEmpty@TCSEVUI32Queue@@ 005377b8     TUIList.obj
 0002:0000d7c0       __TI1?AVEQueueEmpty@TCSEVUI32Queue@@ 005377c0     TUIList.obj
 0002:0000d7d8       __CT??_R0?AVEQueueEmpty@TCSEVUI64Queue@@@81 005377d8     TUIList.obj
 0002:0000d7f8       __CTA1?AVEQueueEmpty@TCSEVUI64Queue@@ 005377f8     TUIList.obj
 0002:0000d800       __TI1?AVEQueueEmpty@TCSEVUI64Queue@@ 00537800     TUIList.obj
 0002:0000d900       __CT??_R0?AVEEndOfSession@CClientNamedPipe@@@81 00537900     ClientNamedPipe.obj
 0002:0000d920       __CTA1?AVEEndOfSession@CClientNamedPipe@@ 00537920     ClientNamedPipe.obj
 0002:0000d928       __CT??_R0?AVIOPipeException@CClientNamedPipe@@@81 00537928     ClientNamedPipe.obj
 0002:0000d948       __CTA1?AVIOPipeException@CClientNamedPipe@@ 00537948     ClientNamedPipe.obj
 0002:0000d950       __TI1?AVEEndOfSession@CClientNamedPipe@@ 00537950     ClientNamedPipe.obj
 0002:0000d968       __TI1?AVIOPipeException@CClientNamedPipe@@ 00537968     ClientNamedPipe.obj
 0002:0000daa0       __CT??_R0?AVEObjectTooLong@?$TFixedSizeBinaryData@$0BAAA@@@@81 00537aa0     ClientNamedPipe.obj
 0002:0000dac0       __CTA2?AVEObjectTooLong@?$TFixedSizeBinaryData@$0BAAA@@@ 00537ac0     ClientNamedPipe.obj
 0002:0000dad0       __TI2?AVEObjectTooLong@?$TFixedSizeBinaryData@$0BAAA@@@ 00537ad0     ClientNamedPipe.obj
 0002:0000e140       __CT??_R0PAX@84            00538140     nafxcwd:wingdi.obj
 0002:0000e160       __CT??_R0PAVCObject@@@84   00538160     nafxcwd:wingdi.obj
 0002:0000e180       __CT??_R0PAVCException@@@84 00538180     nafxcwd:wingdi.obj
 0002:0000e1a0       __CT??_R0PAVCSimpleException@@@84 005381a0     nafxcwd:wingdi.obj
 0002:0000e1c0       __CT??_R0PAVCResourceException@@@84 005381c0     nafxcwd:wingdi.obj
 0002:0000e1e0       __CTA5PAVCResourceException@@ 005381e0     nafxcwd:wingdi.obj
 0002:0000e1f8       __TI5PAVCResourceException@@ 005381f8     nafxcwd:wingdi.obj
 0002:0000e208       __CT??_R0PAVCUserException@@@84 00538208     nafxcwd:wingdi.obj
 0002:0000e228       __CTA5PAVCUserException@@  00538228     nafxcwd:wingdi.obj
 0002:0000e240       __TI5PAVCUserException@@   00538240     nafxcwd:wingdi.obj
 0002:0000e850       __CT??_R0PAVCMemoryException@@@84 00538850     nafxcwd:except.obj
 0002:0000e870       __CTA5PAVCMemoryException@@ 00538870     nafxcwd:except.obj
 0002:0000e888       __TI5PAVCMemoryException@@ 00538888     nafxcwd:except.obj
 0002:0000e898       __CT??_R0PAVCNotSupportedException@@@84 00538898     nafxcwd:except.obj
 0002:0000e8b8       __CTA5PAVCNotSupportedException@@ 005388b8     nafxcwd:except.obj
 0002:0000e8d0       __TI5PAVCNotSupportedException@@ 005388d0     nafxcwd:except.obj
 0002:0000f0b8       __CT??_R0PAVCArchiveException@@@84 005390b8     nafxcwd:arcex.obj
 0002:0000f0d8       __CTA4PAVCArchiveException@@ 005390d8     nafxcwd:arcex.obj
 0002:0000f0f0       __TI4PAVCArchiveException@@ 005390f0     nafxcwd:arcex.obj
 0002:0000f158       __CT??_R0PAVCFileException@@@84 00539158     nafxcwd:filex.obj
 0002:0000f178       __CTA4PAVCFileException@@  00539178     nafxcwd:filex.obj
 0002:0000f190       __TI4PAVCFileException@@   00539190     nafxcwd:filex.obj
 0003:00000000       ___xc_a                    0053d000     libcmtd:crt0init.obj
 0003:000004cc       ___xc_z                    0053d4cc     libcmtd:crt0init.obj
 0003:000005d0       ___xi_a                    0053d5d0     libcmtd:crt0init.obj
 0003:000008e8       ___xi_z                    0053d8e8     libcmtd:crt0init.obj
 0003:000009ec       ___xp_a                    0053d9ec     libcmtd:crt0init.obj
 0003:00000bf4       ___xp_z                    0053dbf4     libcmtd:crt0init.obj
 0003:00000cf8       ___xt_a                    0053dcf8     libcmtd:crt0init.obj
 0003:00000f00       ___xt_z                    0053df00     libcmtd:crt0init.obj
 0003:00001048       ??_R0?AVCThread@@@8        0053e048     HookService.obj
 0003:00001068       ??_R0?AVCHookService@@@8   0053e068     HookService.obj
 0003:000010b0       ?DataLength@@3KA           0053e0b0     MainFrame.obj
 0003:000010c0       ??_R0?AVCObject@@@8        0053e0c0     MainFrame.obj
 0003:000010e0       ??_R0?AVCCmdTarget@@@8     0053e0e0     MainFrame.obj
 0003:00001100       ??_R0?AVCWnd@@@8           0053e100     MainFrame.obj
 0003:00001118       ??_R0?AVCMainFrame@@@8     0053e118     MainFrame.obj
 0003:00001160       ??_R0?AVCWinThread@@@8     0053e160     RMO.obj
 0003:00001180       ??_R0?AVCWinApp@@@8        0053e180     RMO.obj
 0003:000011a0       ??_R0?AVCRMOApp@@@8        0053e1a0     RMO.obj
 0003:000011bc       ?__LINE__Var@?1??InitInstance@CRMOApp@@UAEHXZ@4FA 0053e1bc     RMO.obj
 0003:000011f8       ??_R0?AVCClientNamedPipe@@@8 0053e1f8     RMOClientPipe.obj
 0003:00001220       ??_R0?AVCRMOClientPipe@@@8 0053e220     RMOClientPipe.obj
 0003:00001248       ??_R0?AVEFSBDException@?$TFixedSizeBinaryData@$0BAAA@@@@8 0053e248     RMOClientPipe.obj
 0003:00001290       ??_R0?AVENoDataForRead@?$TFixedSizeBinaryData@$0BAAA@@@@8 0053e290     RMOClientPipe.obj
 0003:00001308       ??_R0?AVCDialog@@@8        0053e308     RMODlg.obj
 0003:00001328       ??_R0?AVCRMODlg@@@8        0053e328     RMODlg.obj
 0003:00001348       ??_R0?AV?$__TBD_TMemory@$0CAA@@@@8 0053e348     TBinaryData.obj
 0003:00001378       ??_R0?AVTBinaryData@@@8    0053e378     TBinaryData.obj
 0003:00001398       ??_R0?AVNoDataForRead@TBinaryData@@@8 0053e398     TBinaryData.obj
 0003:000013f0       ??_R0?AVCEBadIndex@TUIList@@@8 0053e3f0     TUIList.obj
 0003:00001418       ??_R0?AVCEBadIndex@TUI64List@@@8 0053e418     TUIList.obj
 0003:00001448       ??_R0?AVEQueueEmpty@TCSEVUI32Queue@@@8 0053e448     TUIList.obj
 0003:00001480       ??_R0?AVEQueueEmpty@TCSEVUI64Queue@@@8 0053e480     TUIList.obj
 0003:000014b8       ??_R0?AVEEndOfSession@CClientNamedPipe@@@8 0053e4b8     ClientNamedPipe.obj
 0003:000014f0       ??_R0?AVIOPipeException@CClientNamedPipe@@@8 0053e4f0     ClientNamedPipe.obj
 0003:00001528       ??_R0?AV?$TFixedSizeBinaryData@$0BAAA@@@@8 0053e528     ClientNamedPipe.obj
 0003:00001560       ??_R0?AVEObjectTooLong@?$TFixedSizeBinaryData@$0BAAA@@@@8 0053e560     ClientNamedPipe.obj
 0003:000015a8       ?_afxNewHandler@@3P6AHI@ZA 0053e5a8     nafxcwd:afxmem.obj
 0003:000015ac       ?pfnAllocHook@@3P6GHIHJ@ZA 0053e5ac     nafxcwd:afxmem.obj
 0003:00001ac8       ??_R0PAVCException@@@8     0053eac8     nafxcwd:wincore.obj
 0003:00001ae8       ??_R0?AVCCmdUI@@@8         0053eae8     nafxcwd:wincore.obj
 0003:00001b00       ??_R0?AVCTestCmdUI@@@8     0053eb00     nafxcwd:wincore.obj
 0003:00001b20       ??_R0PAVCUserException@@@8 0053eb20     nafxcwd:wincore.obj
 0003:00001b40       ??_R0?AVCTempWnd@@@8       0053eb40     nafxcwd:wincore.obj
 0003:00001b58       ??_C@_0CH@KFAI@E?3?28168?2vc98?2mfc?2mfc?2include?2afx@ 0053eb58     nafxcwd:wincore.obj
 0003:00001b80       ??_R0?AVCNoTrackObject@@@8 0053eb80     nafxcwd:wincore.obj
 0003:00001ba0       ??_R0?AV_AFX_CTL3D_STATE@@@8 0053eba0     nafxcwd:wincore.obj
 0003:00001bc0       ??_R0?AVCException@@@8     0053ebc0     nafxcwd:afxinl2.obj
 0003:00001be0       ??_R0?AVCSimpleException@@@8 0053ebe0     nafxcwd:afxinl2.obj
 0003:00001c00       ??_R0?AVCResourceException@@@8 0053ec00     nafxcwd:afxinl2.obj
 0003:00001c28       ??_R0?AVCUserException@@@8 0053ec28     nafxcwd:afxinl2.obj
 0003:00001c48       ??_R0?AVCGdiObject@@@8     0053ec48     nafxcwd:afxinl2.obj
 0003:00001c68       ??_R0?AVCPen@@@8           0053ec68     nafxcwd:afxinl2.obj
 0003:00001c80       ??_R0?AVCBrush@@@8         0053ec80     nafxcwd:afxinl2.obj
 0003:00001c98       ??_R0?AVCFont@@@8          0053ec98     nafxcwd:afxinl2.obj
 0003:00001cb0       ??_R0?AVCBitmap@@@8        0053ecb0     nafxcwd:afxinl2.obj
 0003:00001cc8       ??_R0?AVCPalette@@@8       0053ecc8     nafxcwd:afxinl2.obj
 0003:00001ce0       ??_R0?AVCRgn@@@8           0053ece0     nafxcwd:afxinl2.obj
 0003:00001cf8       ??_R0?AVCMenu@@@8          0053ecf8     nafxcwd:afxinl2.obj
 0003:000021c8       ??_R0?AVCDC@@@8            0053f1c8     nafxcwd:wingdi.obj
 0003:000021e0       ??_R0?AVCClientDC@@@8      0053f1e0     nafxcwd:wingdi.obj
 0003:000021f8       ??_R0?AVCWindowDC@@@8      0053f1f8     nafxcwd:wingdi.obj
 0003:00002210       ??_R0?AVCPaintDC@@@8       0053f210     nafxcwd:wingdi.obj
 0003:00002228       ??_R0?AVCTempDC@@@8        0053f228     nafxcwd:wingdi.obj
 0003:00002240       ??_R0?AVCTempGdiObject@@@8 0053f240     nafxcwd:wingdi.obj
 0003:00002260       ??_R0PAX@8                 0053f260     nafxcwd:wingdi.obj
 0003:00002270       ??_R0PAVCObject@@@8        0053f270     nafxcwd:wingdi.obj
 0003:00002288       ??_R0PAVCSimpleException@@@8 0053f288     nafxcwd:wingdi.obj
 0003:000022a8       ??_R0PAVCResourceException@@@8 0053f2a8     nafxcwd:wingdi.obj
 0003:000022d0       ??_R0?AVCStatic@@@8        0053f2d0     nafxcwd:afxinl3.obj
 0003:000022e8       ??_R0?AVCButton@@@8        0053f2e8     nafxcwd:afxinl3.obj
 0003:00002300       ??_R0?AVCListBox@@@8       0053f300     nafxcwd:afxinl3.obj
 0003:00002318       ??_R0?AVCCheckListBox@@@8  0053f318     nafxcwd:afxinl3.obj
 0003:00002338       ??_R0?AVCComboBox@@@8      0053f338     nafxcwd:afxinl3.obj
 0003:00002350       ??_R0?AVCEdit@@@8          0053f350     nafxcwd:afxinl3.obj
 0003:00002368       ??_R0?AVCScrollBar@@@8     0053f368     nafxcwd:afxinl3.obj
 0003:0000239c       ?_dispatchEntryCount@CCmdTarget@@0IA 0053f39c     nafxcwd:cmdtarg.obj
 0003:000023a0       ?_dwStockPropMask@CCmdTarget@@0KA 0053f3a0     nafxcwd:cmdtarg.obj
 0003:000023a4       ?_eventsinkEntryCount@CCmdTarget@@0IA 0053f3a4     nafxcwd:cmdtarg.obj
 0003:00002560       ??_R0?AVCMemoryException@@@8 0053f560     nafxcwd:afxinl1.obj
 0003:00002580       ??_R0?AVCNotSupportedException@@@8 0053f580     nafxcwd:afxinl1.obj
 0003:000025a8       ??_R0?AVCArchiveException@@@8 0053f5a8     nafxcwd:afxinl1.obj
 0003:000025c8       ??_R0?AVCFileException@@@8 0053f5c8     nafxcwd:afxinl1.obj
 0003:000025e8       ??_R0?AVCCommonDialog@@@8  0053f5e8     nafxcwd:afxinl1.obj
 0003:00002608       ??_R0?AVCRectTracker@@@8   0053f608     nafxcwd:afxinl1.obj
 0003:00002628       ??_R0?AVCBitmapButton@@@8  0053f628     nafxcwd:afxinl1.obj
 0003:00002644       ?_afxPchNil@@3PBDB         0053f644     nafxcwd:strcore.obj
 0003:00002648       ?_afxDataNil@@3PAUCStringData@@A 0053f648     nafxcwd:strcore.obj
 0003:0000264c       ?_afxInitData@@3PAHA       0053f64c     nafxcwd:strcore.obj
 0003:00002700       ?bStaticInit@CDocManager@@2HA 0053f700     nafxcwd:appcore.obj
 0003:00002948       ??_R0?AV_AFX_WIN_STATE@@@8 0053f948     nafxcwd:appcore.obj
 0003:00002968       ??_R0?AVCCommandLineInfo@@@8 0053f968     nafxcwd:appcore.obj
 0003:00002988       ??_C@_0CG@NLNA@E?3?28168?2vc98?2mfc?2mfc?2include?2afx@ 0053f988     nafxcwd:appcore.obj
 0003:00002cc8       ??_R0?AV_AFX_CTL3D_THREAD@@@8 0053fcc8     nafxcwd:thrdcore.obj
 0003:00003248       ??_R0PAVCMemoryException@@@8 00540248     nafxcwd:except.obj
 0003:00003268       ??_R0PAVCNotSupportedException@@@8 00540268     nafxcwd:except.obj
 0003:000033f0       ?GUID_ATLVer30@ATL@@3U_GUID@@A 005403f0     nafxcwd:objcore.obj
 0003:00004128       ??_R0?AV_AFX_DEBUG_STATE@@@8 00541128     nafxcwd:dumpinit.obj
 0003:00004158       ??_R0?AV_AFX_THREAD_STATE@@@8 00541158     nafxcwd:afxstate.obj
 0003:00004178       ??_R0?AVAFX_MODULE_STATE@@@8 00541178     nafxcwd:afxstate.obj
 0003:00004198       ??_R0?AVAFX_MODULE_THREAD_STATE@@@8 00541198     nafxcwd:afxstate.obj
 0003:000041c0       ??_R0?AV_AFX_BASE_MODULE_STATE@@@8 005411c0     nafxcwd:afxstate.obj
 0003:00004238       ??_R0?AVCHandleMap@@@8     00541238     nafxcwd:winhand.obj
 0003:000043a8       ??_R0?AVCMapPtrToPtr@@@8   005413a8     nafxcwd:map_pp.obj
 0003:00004510       ??_R0?AVCTempMenu@@@8      00541510     nafxcwd:winmenu.obj
 0003:00004540       ??_R0?AUCThreadData@@@8    00541540     nafxcwd:afxtls.obj
 0003:000045b0       ??_R0PAVCArchiveException@@@8 005415b0     nafxcwd:arccore.obj
 0003:00004608       ??_R0?AVCPtrList@@@8       00541608     nafxcwd:list_p.obj
 0003:000046c8       ??_R0?AV_AFX_CHECKLIST_STATE@@@8 005416c8     nafxcwd:winctrl3.obj
 0003:000048d8       ??_R0PAVCFileException@@@8 005418d8     nafxcwd:filex.obj
 0003:00004a08       ?classCByteArray@CByteArray@@2UCRuntimeClass@@A 00541a08     nafxcwd:array_b.obj
 0003:00004a50       ??_R0?AVCByteArray@@@8     00541a50     nafxcwd:array_b.obj
 0003:00004a80       ?classCWordArray@CWordArray@@2UCRuntimeClass@@A 00541a80     nafxcwd:array_w.obj
 0003:00004ac8       ??_R0?AVCWordArray@@@8     00541ac8     nafxcwd:array_w.obj
 0003:00004af8       ?classCDWordArray@CDWordArray@@2UCRuntimeClass@@A 00541af8     nafxcwd:array_d.obj
 0003:00004b40       ??_R0?AVCDWordArray@@@8    00541b40     nafxcwd:array_d.obj
 0003:00004b98       ??_R0?AVCUIntArray@@@8     00541b98     nafxcwd:array_u.obj
 0003:00004bf0       ??_R0?AVCPtrArray@@@8      00541bf0     nafxcwd:array_p.obj
 0003:00004c18       ?classCObArray@CObArray@@2UCRuntimeClass@@A 00541c18     nafxcwd:array_o.obj
 0003:00004c60       ??_R0?AVCObArray@@@8       00541c60     nafxcwd:array_o.obj
 0003:00004c88       ?classCStringArray@CStringArray@@2UCRuntimeClass@@A 00541c88     nafxcwd:array_s.obj
 0003:00004cd8       ??_R0?AVCStringArray@@@8   00541cd8     nafxcwd:array_s.obj
 0003:00004d38       ??_R0?AVCMapWordToPtr@@@8  00541d38     nafxcwd:map_wp.obj
 0003:00004d98       ??_R0?AVCMapPtrToWord@@@8  00541d98     nafxcwd:map_pw.obj
 0003:00004dc8       ?classCMapWordToOb@CMapWordToOb@@2UCRuntimeClass@@A 00541dc8     nafxcwd:map_wo.obj
 0003:00004e18       ??_R0?AVCMapWordToOb@@@8   00541e18     nafxcwd:map_wo.obj
 0003:00004e78       ??_R0?AVCMapStringToPtr@@@8 00541e78     nafxcwd:map_sp.obj
 0003:00004ea8       ?classCMapStringToOb@CMapStringToOb@@2UCRuntimeClass@@A 00541ea8     nafxcwd:map_so.obj
 0003:00004ef8       ??_R0?AVCMapStringToOb@@@8 00541ef8     nafxcwd:map_so.obj
 0003:00004f28       ?classCMapStringToString@CMapStringToString@@2UCRuntimeClass@@A 00541f28     nafxcwd:map_ss.obj
 0003:00004f78       ??_R0?AVCMapStringToString@@@8 00541f78     nafxcwd:map_ss.obj
 0003:00005238       ??_R0?AVCFileDialog@@@8    00542238     nafxcwd:dlgfile.obj
 0003:00005500       ?_afxPropSheetButtons@@3PAHA 00542500     nafxcwd:dlgprop.obj
 0003:00005510       ??_R0?AVCPropertyPage@@@8  00542510     nafxcwd:dlgprop.obj
 0003:00005530       ??_R0?AVCPropertySheet@@@8 00542530     nafxcwd:dlgprop.obj
 0003:00005550       ??_R0?AVCPropertyPageEx@@@8 00542550     nafxcwd:dlgprop.obj
 0003:00005570       ??_R0?AVCPropertySheetEx@@@8 00542570     nafxcwd:dlgprop.obj
 0003:00005c38       ??_R0?AVCSplitterWnd@@@8   00542c38     nafxcwd:winsplit.obj
 0003:00005cf0       ??_R0?AVCControlBar@@@8    00542cf0     nafxcwd:barcore.obj
 0003:00005d18       ?_afxComCtlVersion@@3HA    00542d18     nafxcwd:bartool.obj
 0003:00005d1c       ?_afxDropDownWidth@@3HA    00542d1c     nafxcwd:bartool.obj
 0003:00005e88       ??_R0?AVCToolBar@@@8       00542e88     nafxcwd:bartool.obj
 0003:00005ea0       ??_R0?AVCToolCmdUI@@@8     00542ea0     nafxcwd:bartool.obj
 0003:00005f18       ??_R0?AVCDialogBar@@@8     00542f18     nafxcwd:bardlg.obj
 0003:00006368       ??_R0?AVCFrameWnd@@@8      00543368     nafxcwd:winfrm.obj
 0003:000063c0       ??_R0?AVCRecentFileList@@@8 005433c0     nafxcwd:filelist.obj
 0003:000066a8       ??_R0?AVCDocTemplate@@@8   005436a8     nafxcwd:doctempl.obj
 0003:00006868       ??_R0?AV_AFX_COLOR_STATE@@@8 00543868     nafxcwd:dlgclr.obj
 0003:00006888       ??_R0?AVCColorDialog@@@8   00543888     nafxcwd:dlgclr.obj
 0003:000068e0       ??_R0?AU_AFX_PROPPAGEFONTINFO@@@8 005438e0     nafxcwd:ccdata.obj
 0003:00006ac0       ??_R0?AVCDragListBox@@@8   00543ac0     nafxcwd:winctrl2.obj
 0003:00006ae0       ??_R0?AVCToolBarCtrl@@@8   00543ae0     nafxcwd:winctrl2.obj
 0003:00006b00       ??_R0?AVCStatusBarCtrl@@@8 00543b00     nafxcwd:winctrl2.obj
 0003:00006b20       ??_R0?AVCListCtrl@@@8      00543b20     nafxcwd:winctrl2.obj
 0003:00006b38       ??_R0?AVCTreeCtrl@@@8      00543b38     nafxcwd:winctrl2.obj
 0003:00006b50       ??_R0?AVCSpinButtonCtrl@@@8 00543b50     nafxcwd:winctrl2.obj
 0003:00006b70       ??_R0?AVCSliderCtrl@@@8    00543b70     nafxcwd:winctrl2.obj
 0003:00006b90       ??_R0?AVCProgressCtrl@@@8  00543b90     nafxcwd:winctrl2.obj
 0003:00006bb0       ??_R0?AVCHeaderCtrl@@@8    00543bb0     nafxcwd:winctrl2.obj
 0003:00006bd0       ??_R0?AVCHotKeyCtrl@@@8    00543bd0     nafxcwd:winctrl2.obj
 0003:00006bf0       ??_R0?AVCTabCtrl@@@8       00543bf0     nafxcwd:winctrl2.obj
 0003:00006c08       ??_R0?AVCAnimateCtrl@@@8   00543c08     nafxcwd:winctrl2.obj
 0003:00006c28       ??_R0?AVCRichEditCtrl@@@8  00543c28     nafxcwd:winctrl2.obj
 0003:00006c48       ??_R0?AVCImageList@@@8     00543c48     nafxcwd:winctrl2.obj
 0003:00006c68       ??_R0?AVCTempImageList@@@8 00543c68     nafxcwd:winctrl2.obj
 0003:00006d30       ??_R0?AVCView@@@8          00543d30     nafxcwd:viewcore.obj
 0003:00006d48       ??_R0?AVCCtrlView@@@8      00543d48     nafxcwd:viewcore.obj
 0003:00006fa8       ??_R0?AVCScrollView@@@8    00543fa8     nafxcwd:viewscrl.obj
 0003:00006ff8       ??_R0?AVCToolTipCtrl@@@8   00543ff8     nafxcwd:tooltip.obj
 0003:00007028       ??_R0?AVCDockContext@@@8   00544028     nafxcwd:dockcont.obj
 0003:00007160       ??_R0?AVCFile@@@8          00544160     nafxcwd:filecore.obj
 0003:00007174       ??_C@_08NDGO@lpw?5?$CB?$DN?50?$AA@ 00544174     nafxcwd:filecore.obj
 0003:00007180       ??_C@_0CH@IIKL@E?3?28168?2vc98?2mfc?2atl?2include?2atl@ 00544180     nafxcwd:filecore.obj
 0003:000071a8       ??_C@_08PEKM@lpa?5?$CB?$DN?50?$AA@ 005441a8     nafxcwd:filecore.obj
 0003:00007388       ??_R0?AVCDocManager@@@8    00544388     nafxcwd:docmgr.obj
 0003:000073a8       ??_R0?AVCNewTypeDlg@@@8    005443a8     nafxcwd:docmgr.obj
 0003:000075f8       ??_R0?AVCDocument@@@8      005445f8     nafxcwd:doccore.obj
 0003:00007610       ??_R0?AVCMirrorFile@@@8    00544610     nafxcwd:doccore.obj
 0003:00007638       ??_R0?AUIUnknown@@@8       00544638     nafxcwd:arcstrm.obj
 0003:00007650       ??_R0?AUISequentialStream@@@8 00544650     nafxcwd:arcstrm.obj
 0003:00007670       ??_R0?AUIStream@@@8        00544670     nafxcwd:arcstrm.obj
 0003:00007688       ??_R0?AVCArchiveStream@@@8 00544688     nafxcwd:arcstrm.obj
 0003:00007730       ??_R0?AVCDockBar@@@8       00544730     nafxcwd:bardock.obj
 0003:00007748       ??_R0?AVCMiniFrameWnd@@@8  00544748     nafxcwd:bardock.obj
 0003:00007768       ??_R0?AVCMiniDockFrameWnd@@@8 00544768     nafxcwd:bardock.obj
 0003:000078a0       ??_R0?AVtype_info@@@8      005448a0     libcmtd:typinfo.obj
 0003:000078b8       __NLG_Destination          005448b8     libcmtd:exsup.obj
 0003:000078c8       __fltused                  005448c8     libcmtd:fpinit.obj
 0003:000078cc       __ldused                   005448cc     libcmtd:fpinit.obj
 0003:000078d0       __FPinit                   005448d0     libcmtd:fpinit.obj
 0003:000078d4       __FPmtinit                 005448d4     libcmtd:fpinit.obj
 0003:000078d8       __FPmtterm                 005448d8     libcmtd:fpinit.obj
 0003:000078e0       ?__pMyUnhandledExceptionFilter@@3PAXA 005448e0     libcmtd:throw.obj
 0003:000078f0       __aexit_rtn                005448f0     libcmtd:wincrt0.obj
 0003:000078f4       ___app_type                005448f4     libcmtd:wincrt0.obj
 0003:000078f8       __crtDbgFlag               005448f8     libcmtd:dbgheap.obj
 0003:00007900       __crtBreakAlloc            00544900     libcmtd:dbgheap.obj
 0003:00007920       __crtAssertBusy            00544920     libcmtd:dbgrpt.obj
 0003:00007924       __CrtDbgMode               00544924     libcmtd:dbgrpt.obj
 0003:00007930       __CrtDbgFile               00544930     libcmtd:dbgrpt.obj
 0003:00007bb0       ___lc_time_curr            00544bb0     libcmtd:strftime.obj
 0003:00007bb8       ___lc_time_c               00544bb8     libcmtd:strftime.obj
 0003:00007c64       __locktable                00544c64     libcmtd:mlock.obj
 0003:00007d40       ___tlsindex                00544d40     libcmtd:tidtable.obj
 0003:00007d44       ?__pInconsistency@@3P6AXXZA 00544d44     libcmtd:hooks.obj
 0003:00007d48       __cfltcvt_tab              00544d48     libcmtd:cmiscdat.obj
 0003:00007d60       ___nullstring              00544d60     libcmtd:output.obj
 0003:00007d64       ___wnullstring             00544d64     libcmtd:output.obj
 0003:00007d68       __pctype                   00544d68     libcmtd:ctype.obj
 0003:00007d6c       __pwctype                  00544d6c     libcmtd:ctype.obj
 0003:00007d70       __ctype                    00544d70     libcmtd:ctype.obj
 0003:00007f74       ___mb_cur_max              00544f74     libcmtd:nlsdata1.obj
 0003:00007f78       ___decimal_point           00544f78     libcmtd:nlsdata1.obj
 0003:00007f7c       ___decimal_point_length    00544f7c     libcmtd:nlsdata1.obj
 0003:00007f80       __XcptActTab               00544f80     libcmtd:winxfltr.obj
 0003:00007ff8       __First_FPE_Indx           00544ff8     libcmtd:winxfltr.obj
 0003:00007ffc       __Num_FPE                  00544ffc     libcmtd:winxfltr.obj
 0003:00008000       __XcptActTabSize           00545000     libcmtd:winxfltr.obj
 0003:00008004       __XcptActTabCount          00545004     libcmtd:winxfltr.obj
 0003:00008008       ___badioinfo               00545008     libcmtd:ioinit.obj
 0003:0000802c       __amblksiz                 0054502c     libcmtd:heapinit.obj
 0003:000080c0       __pfnAllocHook             005450c0     libcmtd:dbghook.obj
 0003:000080c4       ___sbh_threshold           005450c4     libcmtd:sbheap.obj
 0003:000080d0       __timezone                 005450d0     libcmtd:timeset.obj
 0003:000080d4       __daylight                 005450d4     libcmtd:timeset.obj
 0003:000080d8       __dstbias                  005450d8     libcmtd:timeset.obj
 0003:0000815c       __tzname                   0054515c     libcmtd:timeset.obj
 0003:00008184       __lpdays                   00545184     libcmtd:days.obj
 0003:000081b8       __days                     005451b8     libcmtd:days.obj
 0003:000082f8       ___lc_category             005452f8     libcmtd:setlocal.obj
 0003:00008370       __iob                      00545370     libcmtd:_file.obj
 0003:000085f0       ___rgLocInfo               005455f0     libcmtd:getqloc.obj
 0003:00008a94       ___rglangidNotDefault      00545a94     libcmtd:getqloc.obj
 0003:00008aa8       ___rg_country              00545aa8     libcmtd:getqloc.obj
 0003:00008b60       ___rg_language             00545b60     libcmtd:getqloc.obj
 0003:00008d68       ___lconv_static_decimal    00545d68     libcmtd:lconv.obj
 0003:00008d70       ___lconv_c                 00545d70     libcmtd:lconv.obj
 0003:00008da0       ___lconv                   00545da0     libcmtd:lconv.obj
 0003:00008db0       __pow10pos                 00545db0     libcmtd:constpow.obj
 0003:00008f10       __pow10neg                 00545f10     libcmtd:constpow.obj
 0003:00009070       ??_R0?AVios@@@8            00546070     libcimtd:ostream.obj
 0003:00009088       ??_R0?AVostream@@@8        00546088     libcimtd:ostream.obj
 0003:000090a0       ??_R0?AVostream_withassign@@@8 005460a0     libcimtd:ostream.obj
 0003:000090c4       ?x_maxbit@ios@@0JA         005460c4     libcimtd:_ios.obj
 0003:000090c8       ?x_curindex@ios@@0HA       005460c8     libcimtd:_ios.obj
 0003:000090cc       ??_C@_04OJPN@edit?$AA@     005460cc     ctl3d32s:CTL3D.OBJ
 0003:000090d4       ??_C@_07PAH@hangeul?$AA@   005460d4     ctl3d32s:CTL3D.OBJ
 0003:000090dc       ??_C@_05GCGK@kanji?$AA@    005460dc     ctl3d32s:CTL3D.OBJ
 0003:000090e4       ??_C@_07ELCN@english?$AA@  005460e4     ctl3d32s:CTL3D.OBJ
 0003:000090ec       ??_C@_05BJDJ@roman?$AA@    005460ec     ctl3d32s:CTL3D.OBJ
 0003:000090f4       ??_C@_0M@ODOG@hangeulmenu?$AA@ 005460f4     ctl3d32s:CTL3D.OBJ
 0003:00009100       ??_C@_09IBMG@kanjimenu?$AA@ 00546100     ctl3d32s:CTL3D.OBJ
 0003:0000910c       ??_C@_07CIAP@windows?$AA@  0054610c     ctl3d32s:CTL3D.OBJ
 0003:00009114       ??_C@_07LEGE@C3dHNew?$AA@  00546114     ctl3d32s:CTL3D.OBJ
 0003:0000911c       ??_C@_07CBCM@C3dLNew?$AA@  0054611c     ctl3d32s:CTL3D.OBJ
 0003:00009124       ??_C@_06JKNM@C3dNew?$AA@   00546124     ctl3d32s:CTL3D.OBJ
 0003:0000912c       ??_C@_04HKNC@C3dH?$AA@     0054612c     ctl3d32s:CTL3D.OBJ
 0003:00009134       ??_C@_04NAIO@C3dL?$AA@     00546134     ctl3d32s:CTL3D.OBJ
 0003:0000913c       ??_C@_03KKOJ@C3d?$AA@      0054613c     ctl3d32s:CTL3D.OBJ
 0003:00009140       ??_C@_04IEDG@C3dD?$AA@     00546140     ctl3d32s:CTL3D.OBJ
 0003:00009148       ??_C@_06KBFD@?$CD32770?$AA@ 00546148     ctl3d32s:CTL3D.OBJ
 0003:00009150       ??_C@_01FIAI@X?$AA@        00546150     ctl3d32s:CTL3D.OBJ
 0003:00009154       ??_C@_0BK@DNHG@DisableThreadLibraryCalls?$AA@ 00546154     ctl3d32s:CTL3D.OBJ
 0003:00009170       ??_C@_0N@MMAA@KERNEL32?4DLL?$AA@ 00546170     ctl3d32s:CTL3D.OBJ
 0003:0000ac10       ?KbdBuf@@3PAEA             00547c10     MainFrame.obj
 0003:0000ad10       ?ReturnedLength@@3KA       00547d10     MainFrame.obj
 0003:0000ad14       ?OutputBuffer@@3U_KEYBOARD_INDICATOR_PARAMETERS@@A 00547d14     MainFrame.obj
 0003:0000ad18       ?InputBuffer@@3U_KEYBOARD_INDICATOR_PARAMETERS@@A 00547d18     MainFrame.obj
 0003:0000ad60       ?theApp@@3VCRMOApp@@A      00547d60     RMO.obj
 0003:0000ae6c       __afxForceEXCLUDE          00547e6c     nafxcwd:nolib.obj
 0003:0000ae70       ?_afxMemoryLeakOverride@@3HA 00547e70     nafxcwd:afxmem.obj
 0003:0000ae74       ?pfnCrtAllocHook@@3P6AHHPAXIHJPBEH@ZA 00547e74     nafxcwd:afxmem.obj
 0003:0000ae78       ?_afxGotScrollLines@@3HA   00547e78     nafxcwd:wincore.obj
 0003:0000ae80       ?_afxMsgCache@@3PAUAFX_MSG_CACHE@@A 00547e80     nafxcwd:wincore.obj
 0003:0000c680       ?wndNoTopMost@CWnd@@2V1@B  00549680     nafxcwd:wincore.obj
 0003:0000c6c0       ?wndTopMost@CWnd@@2V1@B    005496c0     nafxcwd:wincore.obj
 0003:0000c700       ?wndBottom@CWnd@@2V1@B     00549700     nafxcwd:wincore.obj
 0003:0000c740       ?wndTop@CWnd@@2V1@B        00549740     nafxcwd:wincore.obj
 0003:0000c77c       ?m_nMsgDragList@CWnd@@1IB  0054977c     nafxcwd:wincore.obj
 0003:0000c780       _g_pfnGetSystemMetrics     00549780     nafxcwd:wincore.obj
 0003:0000c784       _g_pfnMonitorFromWindow    00549784     nafxcwd:wincore.obj
 0003:0000c788       _g_pfnMonitorFromRect      00549788     nafxcwd:wincore.obj
 0003:0000c78c       _g_pfnMonitorFromPoint     0054978c     nafxcwd:wincore.obj
 0003:0000c790       _g_pfnGetMonitorInfo       00549790     nafxcwd:wincore.obj
 0003:0000c794       _g_pfnEnumDisplayMonitors  00549794     nafxcwd:wincore.obj
 0003:0000c798       _g_fMultiMonInitDone       00549798     nafxcwd:wincore.obj
 0003:0000c7a0       ?_simpleUserException@@3VCUserException@@A 005497a0     nafxcwd:wingdi.obj
 0003:0000c840       ?_simpleResourceException@@3VCResourceException@@A 00549840     nafxcwd:wingdi.obj
 0003:0000c8e0       ?afxChNil@@3DA             005498e0     nafxcwd:strcore.obj
 0003:0000c8e4       ?_afxHalftoneBrush@@3PAUHBRUSH__@@A 005498e4     nafxcwd:wingdix.obj
 0003:0000c8e8       ?_afxWingdixTerm@@3DA      005498e8     nafxcwd:wingdix.obj
 0003:0000c8ec       ?_afxWinState@@3V?$CProcessLocal@V_AFX_WIN_STATE@@@@A 005498ec     nafxcwd:appcore.obj
 0003:0000c8f0       ?pStaticDocManager@CDocManager@@2PAV1@A 005498f0     nafxcwd:appcore.obj
 0003:0000c8f4       ?pStaticList@CDocManager@@2PAVCPtrList@@A 005498f4     nafxcwd:appcore.obj
 0003:0000c8f8       ?_simpleNotSupportedException@@3VCNotSupportedException@@A 005498f8     nafxcwd:except.obj
 0003:0000c998       ?_simpleMemoryException@@3VCMemoryException@@A 00549998     nafxcwd:except.obj
 0003:0000ca38       ?ATL_CREATE_OBJECT@CComApartment@ATL@@2IA 00549a38     nafxcwd:objcore.obj
 0003:0000ca40       ?m_libid@CComModule@ATL@@2U_GUID@@A 00549a40     nafxcwd:objcore.obj
 0003:0000ca50       ?_pModule@ATL@@3PAVCComModule@1@A 00549a50     nafxcwd:objcore.obj
 0003:0000ca58       ?afxDebugState@@3V?$CProcessLocal@V_AFX_DEBUG_STATE@@@@A 00549a58     nafxcwd:dumpinit.obj
 0003:0000ca5c       ?_afxDiagnosticInit@@3HA   00549a5c     nafxcwd:dumpinit.obj
 0003:0000ca60       ?afxTraceFlags@@3IA        00549a60     nafxcwd:dumpinit.obj
 0003:0000ca64       ?afxTraceEnabled@@3HA      00549a64     nafxcwd:dumpinit.obj
 0003:0000ca68       ?afxDump@@3VCDumpContext@@A 00549a68     nafxcwd:dumpinit.obj
 0003:0000ca78       ?_afxBaseModuleState@@3V?$CProcessLocal@V_AFX_BASE_MODULE_STATE@@@@A 00549a78     nafxcwd:afxstate.obj
 0003:0000ca7c       ?_afxThreadState@@3V?$CThreadLocal@V_AFX_THREAD_STATE@@@@A 00549a7c     nafxcwd:afxstate.obj
 0003:0000ca80       ?_afxCtl3dThread@@3V?$CThreadLocal@V_AFX_CTL3D_THREAD@@@@A 00549a80     nafxcwd:app3d.obj
 0003:0000ca84       ?_afxCtl3dState@@3V?$CProcessLocal@V_AFX_CTL3D_STATE@@@@A 00549a84     nafxcwd:app3d.obj
 0003:0000ca88       ?afxData@@3UAUX_DATA@@A    00549a88     nafxcwd:auxdata.obj
 0003:0000caf4       ?_afxDBCS@@3HB             00549af4     nafxcwd:afxdbcs.obj
 0003:0000caf8       ?_afxResourceLocked@@3PAHA 00549af8     nafxcwd:afxcrit.obj
 0003:0000cb3c       ?_afxLockInit@@3PAHA       00549b3c     nafxcwd:afxcrit.obj
 0003:0000cb80       ?_afxLockInitLock@@3U_RTL_CRITICAL_SECTION@@A 00549b80     nafxcwd:afxcrit.obj
 0003:0000cb98       ?_afxResourceLock@@3PAU_RTL_CRITICAL_SECTION@@A 00549b98     nafxcwd:afxcrit.obj
 0003:0000cd30       ?_afxCriticalWin32s@@3HA   00549d30     nafxcwd:afxcrit.obj
 0003:0000cd34       ?_afxCriticalInit@@3HA     00549d34     nafxcwd:afxcrit.obj
 0003:0000cd38       ?_afxTlsRef@@3JA           00549d38     nafxcwd:afxtls.obj
 0003:0000cd3c       ?_afxThreadData@@3PAVCThreadSlotData@@A 00549d3c     nafxcwd:afxtls.obj
 0003:0000cd40       ?__afxThreadData@@3PAEA    00549d40     nafxcwd:afxtls.obj
 0003:0000cd74       ?_afxChecklistState@@3V?$CProcessLocal@V_AFX_CHECKLIST_STATE@@@@A 00549d74     nafxcwd:winctrl3.obj
 0003:0000cd78       ?_init_CByteArray@@3UAFX_CLASSINIT@@A 00549d78     nafxcwd:array_b.obj
 0003:0000cd7c       ?_init_CWordArray@@3UAFX_CLASSINIT@@A 00549d7c     nafxcwd:array_w.obj
 0003:0000cd80       ?_init_CDWordArray@@3UAFX_CLASSINIT@@A 00549d80     nafxcwd:array_d.obj
 0003:0000cd84       ?_init_CObArray@@3UAFX_CLASSINIT@@A 00549d84     nafxcwd:array_o.obj
 0003:0000cd88       ?_init_CStringArray@@3UAFX_CLASSINIT@@A 00549d88     nafxcwd:array_s.obj
 0003:0000cd8c       ?_init_CMapWordToOb@@3UAFX_CLASSINIT@@A 00549d8c     nafxcwd:map_wo.obj
 0003:0000cd90       ?_init_CMapStringToOb@@3UAFX_CLASSINIT@@A 00549d90     nafxcwd:map_so.obj
 0003:0000cd94       ?_init_CMapStringToString@@3UAFX_CLASSINIT@@A 00549d94     nafxcwd:map_ss.obj
 0003:0000cd98       ?_afxMsgSETRGB@@3IA        00549d98     nafxcwd:dlgcomm.obj
 0003:0000cd9c       ?_afxMsgHELP@@3IA          00549d9c     nafxcwd:dlgcomm.obj
 0003:0000cda0       ?_afxMsgCOLOROK@@3IA       00549da0     nafxcwd:dlgcomm.obj
 0003:0000cda4       ?_afxMsgFILEOK@@3IA        00549da4     nafxcwd:dlgcomm.obj
 0003:0000cda8       ?_afxMsgSHAREVI@@3IA       00549da8     nafxcwd:dlgcomm.obj
 0003:0000cdac       ?_afxMsgLBSELCHANGE@@3IA   00549dac     nafxcwd:dlgcomm.obj
 0003:0000cdb0       ?_afx_idcPrimaryLast@@3IA  00549db0     nafxcwd:winsplit.obj
 0003:0000cdb4       ?_afx_hcurDestroy@@3PAUHICON__@@A 00549db4     nafxcwd:winsplit.obj
 0003:0000cdb8       ?_afx_hcurLast@@3PAUHICON__@@A 00549db8     nafxcwd:winsplit.obj
 0003:0000cdbc       ?_afxHandleSize@@3HA       00549dbc     nafxcwd:trckrect.obj
 0003:0000cdc0       ?_afxBlackDottedPen@@3PAUHPEN__@@A 00549dc0     nafxcwd:trckrect.obj
 0003:0000cdc4       ?_afxHatchBrush@@3PAUHBRUSH__@@A 00549dc4     nafxcwd:trckrect.obj
 0003:0000cdc8       ?_afxCursors@@3PAPAUHICON__@@A 00549dc8     nafxcwd:trckrect.obj
 0003:0000cdf4       ?_afxTrackerTerm@@3DA      00549df4     nafxcwd:trckrect.obj
 0003:0000cdf8       ?_afxMsgMouseWheel@@3IA    00549df8     nafxcwd:winfrm.obj
 0003:0000ce00       ?rectDefault@CFrameWnd@@2VCRect@@B 00549e00     nafxcwd:winfrm.obj
 0003:0000ce10       ?_afxClrState@@3V?$CProcessLocal@V_AFX_COLOR_STATE@@@@A 00549e10     nafxcwd:dlgclr.obj
 0003:0000ce14       ?_afxPropPageFontInfo@@3V?$CProcessLocal@U_AFX_PROPPAGEFONTINFO@@@@A 00549e14     nafxcwd:ccdata.obj
 0003:0000ce28       ?_afx_sizeMiniSys@@3UtagSIZE@@A 00549e28     nafxcwd:winmini.obj
 0003:0000ce30       ?_afx_hfontMiniSys@@3PAUHFONT__@@A 00549e30     nafxcwd:winmini.obj
 0003:0000ce34       ?_afx_hbmMiniSys@@3PAUHBITMAP__@@A 00549e34     nafxcwd:winmini.obj
 0003:0000ce38       ?_afxWinminiTerm@@3HA      00549e38     nafxcwd:winmini.obj
 0003:0000ce3c       ___fastflag                00549e3c     libcmtd:fpinit.obj
 0003:0000ce40       __adjust_fdiv              00549e40     libcmtd:fpinit.obj
 0003:0000ce44       __aenvptr                  00549e44     libcmtd:wincrt0.obj
 0003:0000ce48       __wenvptr                  00549e48     libcmtd:wincrt0.obj
 0003:0000ce4c       ___error_mode              00549e4c     libcmtd:wincrt0.obj
 0003:0000ce64       __umaskval                 00549e64     libcmtd:crt0dat.obj
 0003:0000ce68       __osver                    00549e68     libcmtd:crt0dat.obj
 0003:0000ce6c       __winver                   00549e6c     libcmtd:crt0dat.obj
 0003:0000ce70       __winmajor                 00549e70     libcmtd:crt0dat.obj
 0003:0000ce74       __winminor                 00549e74     libcmtd:crt0dat.obj
 0003:0000ce78       ___argc                    00549e78     libcmtd:crt0dat.obj
 0003:0000ce7c       ___argv                    00549e7c     libcmtd:crt0dat.obj
 0003:0000ce80       ___wargv                   00549e80     libcmtd:crt0dat.obj
 0003:0000ce84       __environ                  00549e84     libcmtd:crt0dat.obj
 0003:0000ce88       ___initenv                 00549e88     libcmtd:crt0dat.obj
 0003:0000ce8c       __wenviron                 00549e8c     libcmtd:crt0dat.obj
 0003:0000ce90       ___winitenv                00549e90     libcmtd:crt0dat.obj
 0003:0000ce94       __pgmptr                   00549e94     libcmtd:crt0dat.obj
 0003:0000ce98       __wpgmptr                  00549e98     libcmtd:crt0dat.obj
 0003:0000ce9c       __exitflag                 00549e9c     libcmtd:crt0dat.obj
 0003:0000cea0       __C_Termination_Done       00549ea0     libcmtd:crt0dat.obj
 0003:0000cea4       __C_Exit_Done              00549ea4     libcmtd:crt0dat.obj
 0003:0000d05c       __adbgmsg                  0054a05c     libcmtd:crt0msg.obj
 0003:0000d060       __newmode                  0054a060     libcmtd:_newmode.obj
 0003:0000d064       ?_pnhHeap@@3P6AHI@ZA       0054a064     libcmtd:handler.obj
 0003:0000d168       ___lc_handle               0054a168     libcmtd:nlsdata2.obj
 0003:0000d180       ___lc_codepage             0054a180     libcmtd:nlsdata2.obj
 0003:0000d184       ___lc_collate_cp           0054a184     libcmtd:nlsdata2.obj
 0003:0000d198       __cflush                   0054a198     libcmtd:_file.obj
 0003:0000d19c       ___lc_time_intl            0054a19c     libcmtd:inittime.obj
 0003:0000d1b8       ___lc_id                   0054a1b8     libcmtd:nlsdata3.obj
 0003:0000d208       ___lconv_static_null       0054a208     libcmtd:lconv.obj
 0003:0000d218       ?x_lockc@ios@@0U_CRT_CRITICAL_SECTION@@A 0054a218     libcimtd:_ios.obj
 0003:0000d230       ?x_statebuf@ios@@0PAJA     0054a230     libcimtd:_ios.obj
 0003:0000d250       ?fLockcInit@ios@@0HA       0054a250     libcimtd:_ios.obj
 0003:0000d260       ?_afxInitAppState@@3DA     0054a260     nafxcwd:appmodul.obj
 0003:0000d261       ??_B?1???id@?$ctype@G@std@@$D@@9@51 0054a261     <common>
 0003:0000d26c       ___piob                    0054a26c     <common>
 0003:0000d5c0       __bufin                    0054a5c0     <common>
 0003:0000e5c0       __nstream                  0054b5c0     <common>
 0003:0000e5c4       ___setlc_active            0054b5c4     <common>
 0003:0000e5d4       ___unguarded_readlc_active 0054b5d4     <common>
 0003:0000e5d8       ___sbh_sizeHeaderList      0054b5d8     <common>
 0003:0000e5e8       ___sbh_indGroupDefer       0054b5e8     <common>
 0003:0000e5ec       ___sbh_pHeaderScan         0054b5ec     <common>
 0003:0000e5f0       ___sbh_pHeaderDefer        0054b5f0     <common>
 0003:0000e5f4       ___sbh_cntHeaderList       0054b5f4     <common>
 0003:0000e5f8       ___sbh_pHeaderList         0054b5f8     <common>
 0003:0000e5fc       __crtheap                  0054b5fc     <common>
 0003:0000e620       ___pioinfo                 0054b620     <common>
 0003:0000e75c       __nhandle                  0054b75c     <common>
 0003:0000e760       ___alternate_form          0054b760     <common>
 0003:0000e770       ___no_lead_zeros           0054b770     <common>
 0003:0000e774       ___mbcodepage              0054b774     <common>
 0003:0000e7f0       ___mbulinfo                0054b7f0     <common>
 0003:0000e7fc       ___ismbcodepage            0054b7fc     <common>
 0003:0000e800       __mbcasemap                0054b800     <common>
 0003:0000e900       __mbctype                  0054b900     <common>
 0003:0000ea04       ___mblcid                  0054ba04     <common>
 0003:0000ea08       __pfnReportHook            0054ba08     <common>
 0003:0000ea14       ___env_initialized         0054ba14     <common>
 0003:0000ea24       ___mbctype_initialized     0054ba24     <common>
 0003:0000ea28       ___onexitend               0054ba28     <common>
 0003:0000ea2c       ___onexitbegin             0054ba2c     <common>
 0003:0000ea30       __pfnDumpClient            0054ba30     <common>
 0003:0000ea3c       __acmdln                   0054ba3c     <common>
 0003:0000ea60       _g_CriticalSection         0054ba60     <common>
 0003:0000ecc0       _g3d                       0054bcc0     <common>
 0004:00000000       __IMPORT_DESCRIPTOR_KERNEL32 0054d000     kernel32:KERNEL32.dll
 0004:00000014       __IMPORT_DESCRIPTOR_USER32 0054d014     user32:USER32.dll
 0004:00000028       __IMPORT_DESCRIPTOR_GDI32  0054d028     gdi32:GDI32.dll
 0004:0000003c       __IMPORT_DESCRIPTOR_comdlg32 0054d03c     comdlg32:comdlg32.dll
 0004:00000050       __IMPORT_DESCRIPTOR_WINSPOOL 0054d050     winspool:WINSPOOL.DRV
 0004:00000064       __IMPORT_DESCRIPTOR_ADVAPI32 0054d064     advapi32:ADVAPI32.dll
 0004:00000078       __IMPORT_DESCRIPTOR_SHELL32 0054d078     shell32:SHELL32.dll
 0004:0000008c       __IMPORT_DESCRIPTOR_COMCTL32 0054d08c     comctl32:COMCTL32.dll
 0004:000000a0       __NULL_IMPORT_DESCRIPTOR   0054d0a0     kernel32:KERNEL32.dll
 0004:00000e30       __imp__RegEnumKeyA@16      0054de30     advapi32:ADVAPI32.dll
 0004:00000e34       __imp__GetFileSecurityA@20 0054de34     advapi32:ADVAPI32.dll
 0004:00000e38       __imp__SetFileSecurityA@12 0054de38     advapi32:ADVAPI32.dll
 0004:00000e3c       __imp__RegQueryValueA@16   0054de3c     advapi32:ADVAPI32.dll
 0004:00000e40       __imp__RegSetValueA@20     0054de40     advapi32:ADVAPI32.dll
 0004:00000e44       __imp__RegCreateKeyA@12    0054de44     advapi32:ADVAPI32.dll
 0004:00000e48       __imp__RegCloseKey@4       0054de48     advapi32:ADVAPI32.dll
 0004:00000e4c       __imp__RegOpenKeyA@12      0054de4c     advapi32:ADVAPI32.dll
 0004:00000e50       __imp__RegDeleteKeyA@8     0054de50     advapi32:ADVAPI32.dll
 0004:00000e54       __imp__RegDeleteValueA@8   0054de54     advapi32:ADVAPI32.dll
 0004:00000e58       __imp__RegSetValueExA@24   0054de58     advapi32:ADVAPI32.dll
 0004:00000e5c       __imp__RegQueryValueExA@24 0054de5c     advapi32:ADVAPI32.dll
 0004:00000e60       __imp__RegOpenKeyExA@20    0054de60     advapi32:ADVAPI32.dll
 0004:00000e64       __imp__RegCreateKeyExA@36  0054de64     advapi32:ADVAPI32.dll
 0004:00000e68       \177ADVAPI32_NULL_THUNK_DATA 0054de68     advapi32:ADVAPI32.dll
 0004:00000e9c       __imp__ImageList_DragMove@8 0054de9c     comctl32:COMCTL32.dll
 0004:00000ea0       __imp__ImageList_Create@20 0054dea0     comctl32:COMCTL32.dll
 0004:00000ea4       __imp__ImageList_BeginDrag@16 0054dea4     comctl32:COMCTL32.dll
 0004:00000ea8       __imp__ImageList_EndDrag@0 0054dea8     comctl32:COMCTL32.dll
 0004:00000eac       __imp__ImageList_DragLeave@4 0054deac     comctl32:COMCTL32.dll
 0004:00000eb0       __imp__ImageList_DragEnter@12 0054deb0     comctl32:COMCTL32.dll
 0004:00000eb4       __imp__ImageList_GetDragImage@8 0054deb4     comctl32:COMCTL32.dll
 0004:00000eb8       __imp__ImageList_DragShowNolock@4 0054deb8     comctl32:COMCTL32.dll
 0004:00000ebc       __imp__ImageList_SetDragCursorImage@16 0054debc     comctl32:COMCTL32.dll
 0004:00000ec0       __imp__InitCommonControls@0 0054dec0     comctl32:COMCTL32.dll
 0004:00000ec4       __imp__CreateMappedBitmap@20 0054dec4     comctl32:COMCTL32.dll
 0004:00000ec8       __imp__PropertySheetA@4    0054dec8     comctl32:COMCTL32.dll
 0004:00000ecc       __imp__DestroyPropertySheetPage@4 0054decc     comctl32:COMCTL32.dll
 0004:00000ed0       __imp__CreatePropertySheetPageA@4 0054ded0     comctl32:COMCTL32.dll
 0004:00000ed4       __imp__MakeDragList@4      0054ded4     comctl32:COMCTL32.dll
 0004:00000ed8       __imp__ImageList_Destroy@4 0054ded8     comctl32:COMCTL32.dll
 0004:00000edc       __imp__ImageList_GetImageInfo@12 0054dedc     comctl32:COMCTL32.dll
 0004:00000ee0       __imp__ImageList_LoadImageA@28 0054dee0     comctl32:COMCTL32.dll
 0004:00000ee4       __imp__ImageList_Merge@24  0054dee4     comctl32:COMCTL32.dll
 0004:00000ee8       __imp__ImageList_Read@4    0054dee8     comctl32:COMCTL32.dll
 0004:00000eec       __imp__ImageList_Write@8   0054deec     comctl32:COMCTL32.dll
 0004:00000ef0       __imp__LBItemFromPt@16     0054def0     comctl32:COMCTL32.dll
 0004:00000ef4       __imp__ImageList_GetImageCount@4 0054def4     comctl32:COMCTL32.dll
 0004:00000ef8       __imp__ImageList_Add@12    0054def8     comctl32:COMCTL32.dll
 0004:00000efc       __imp__ImageList_AddMasked@12 0054defc     comctl32:COMCTL32.dll
 0004:00000f00       __imp__ImageList_Remove@8  0054df00     comctl32:COMCTL32.dll
 0004:00000f04       __imp__ImageList_Replace@16 0054df04     comctl32:COMCTL32.dll
 0004:00000f08       __imp__ImageList_ReplaceIcon@12 0054df08     comctl32:COMCTL32.dll
 0004:00000f0c       __imp__ImageList_GetIcon@12 0054df0c     comctl32:COMCTL32.dll
 0004:00000f10       __imp__ImageList_Draw@24   0054df10     comctl32:COMCTL32.dll
 0004:00000f14       __imp__ImageList_SetBkColor@8 0054df14     comctl32:COMCTL32.dll
 0004:00000f18       __imp__ImageList_GetBkColor@4 0054df18     comctl32:COMCTL32.dll
 0004:00000f1c       __imp__ImageList_SetOverlayImage@12 0054df1c     comctl32:COMCTL32.dll
 0004:00000f20       \177COMCTL32_NULL_THUNK_DATA 0054df20     comctl32:COMCTL32.dll
 0004:00000f64       __imp__PlayMetaFileRecord@16 0054df64     gdi32:GDI32.dll
 0004:00000f68       __imp__OffsetClipRgn@12    0054df68     gdi32:GDI32.dll
 0004:00000f6c       __imp__MoveToEx@16         0054df6c     gdi32:GDI32.dll
 0004:00000f70       __imp__GetClipBox@8        0054df70     gdi32:GDI32.dll
 0004:00000f74       __imp__SetTextColor@8      0054df74     gdi32:GDI32.dll
 0004:00000f78       __imp__SetBkColor@8        0054df78     gdi32:GDI32.dll
 0004:00000f7c       __imp__GetObjectA@12       0054df7c     gdi32:GDI32.dll
 0004:00000f80       __imp__GetStockObject@4    0054df80     gdi32:GDI32.dll
 0004:00000f84       __imp__UnrealizeObject@4   0054df84     gdi32:GDI32.dll
 0004:00000f88       __imp__GetObjectType@4     0054df88     gdi32:GDI32.dll
 0004:00000f8c       __imp__CreatePen@12        0054df8c     gdi32:GDI32.dll
 0004:00000f90       __imp__CreatePenIndirect@4 0054df90     gdi32:GDI32.dll
 0004:00000f94       __imp__ExtCreatePen@20     0054df94     gdi32:GDI32.dll
 0004:00000f98       __imp__CreateSolidBrush@4  0054df98     gdi32:GDI32.dll
 0004:00000f9c       __imp__CreateHatchBrush@8  0054df9c     gdi32:GDI32.dll
 0004:00000fa0       __imp__CreateBrushIndirect@4 0054dfa0     gdi32:GDI32.dll
 0004:00000fa4       __imp__CreatePatternBrush@4 0054dfa4     gdi32:GDI32.dll
 0004:00000fa8       __imp__CreateDIBPatternBrushPt@8 0054dfa8     gdi32:GDI32.dll
 0004:00000fac       __imp__CreateFontIndirectA@4 0054dfac     gdi32:GDI32.dll
 0004:00000fb0       __imp__CreateFontA@56      0054dfb0     gdi32:GDI32.dll
 0004:00000fb4       __imp__CreateBitmap@20     0054dfb4     gdi32:GDI32.dll
 0004:00000fb8       __imp__CreateBitmapIndirect@4 0054dfb8     gdi32:GDI32.dll
 0004:00000fbc       __imp__SetBitmapBits@12    0054dfbc     gdi32:GDI32.dll
 0004:00000fc0       __imp__GetBitmapBits@12    0054dfc0     gdi32:GDI32.dll
 0004:00000fc4       __imp__SetBitmapDimensionEx@16 0054dfc4     gdi32:GDI32.dll
 0004:00000fc8       __imp__GetBitmapDimensionEx@8 0054dfc8     gdi32:GDI32.dll
 0004:00000fcc       __imp__CreateCompatibleBitmap@12 0054dfcc     gdi32:GDI32.dll
 0004:00000fd0       __imp__CreateDiscardableBitmap@12 0054dfd0     gdi32:GDI32.dll
 0004:00000fd4       __imp__CreatePalette@4     0054dfd4     gdi32:GDI32.dll
 0004:00000fd8       __imp__CreateHalftonePalette@4 0054dfd8     gdi32:GDI32.dll
 0004:00000fdc       __imp__GetPaletteEntries@16 0054dfdc     gdi32:GDI32.dll
 0004:00000fe0       __imp__SetPaletteEntries@16 0054dfe0     gdi32:GDI32.dll
 0004:00000fe4       __imp__AnimatePalette@16   0054dfe4     gdi32:GDI32.dll
 0004:00000fe8       __imp__GetNearestPaletteIndex@8 0054dfe8     gdi32:GDI32.dll
 0004:00000fec       __imp__ResizePalette@8     0054dfec     gdi32:GDI32.dll
 0004:00000ff0       __imp__CreateRectRgn@16    0054dff0     gdi32:GDI32.dll
 0004:00000ff4       __imp__CreateRectRgnIndirect@4 0054dff4     gdi32:GDI32.dll
 0004:00000ff8       __imp__CreateEllipticRgn@16 0054dff8     gdi32:GDI32.dll
 0004:00000ffc       __imp__CreateEllipticRgnIndirect@4 0054dffc     gdi32:GDI32.dll
 0004:00001000       __imp__CreatePolygonRgn@12 0054e000     gdi32:GDI32.dll
 0004:00001004       __imp__CreatePolyPolygonRgn@16 0054e004     gdi32:GDI32.dll
 0004:00001008       __imp__CreateRoundRectRgn@24 0054e008     gdi32:GDI32.dll
 0004:0000100c       __imp__PathToRegion@4      0054e00c     gdi32:GDI32.dll
 0004:00001010       __imp__ExtCreateRegion@12  0054e010     gdi32:GDI32.dll
 0004:00001014       __imp__GetRegionData@12    0054e014     gdi32:GDI32.dll
 0004:00001018       __imp__SetRectRgn@20       0054e018     gdi32:GDI32.dll
 0004:0000101c       __imp__CombineRgn@16       0054e01c     gdi32:GDI32.dll
 0004:00001020       __imp__EqualRgn@8          0054e020     gdi32:GDI32.dll
 0004:00001024       __imp__OffsetRgn@12        0054e024     gdi32:GDI32.dll
 0004:00001028       __imp__GetRgnBox@8         0054e028     gdi32:GDI32.dll
 0004:0000102c       __imp__PtInRegion@12       0054e02c     gdi32:GDI32.dll
 0004:00001030       __imp__RectInRegion@8      0054e030     gdi32:GDI32.dll
 0004:00001034       __imp__CreateDCA@16        0054e034     gdi32:GDI32.dll
 0004:00001038       __imp__CreateICA@16        0054e038     gdi32:GDI32.dll
 0004:0000103c       __imp__CreateCompatibleDC@4 0054e03c     gdi32:GDI32.dll
 0004:00001040       __imp__GetDeviceCaps@8     0054e040     gdi32:GDI32.dll
 0004:00001044       __imp__GetBrushOrgEx@8     0054e044     gdi32:GDI32.dll
 0004:00001048       __imp__SetBrushOrgEx@16    0054e048     gdi32:GDI32.dll
 0004:0000104c       __imp__EnumObjects@16      0054e04c     gdi32:GDI32.dll
 0004:00001050       __imp__SelectObject@8      0054e050     gdi32:GDI32.dll
 0004:00001054       __imp__GetNearestColor@8   0054e054     gdi32:GDI32.dll
 0004:00001058       __imp__RealizePalette@4    0054e058     gdi32:GDI32.dll
 0004:0000105c       __imp__UpdateColors@4      0054e05c     gdi32:GDI32.dll
 0004:00001060       __imp__GetBkColor@4        0054e060     gdi32:GDI32.dll
 0004:00001064       __imp__GetBkMode@4         0054e064     gdi32:GDI32.dll
 0004:00001068       __imp__GetPolyFillMode@4   0054e068     gdi32:GDI32.dll
 0004:0000106c       __imp__GetROP2@4           0054e06c     gdi32:GDI32.dll
 0004:00001070       __imp__GetStretchBltMode@4 0054e070     gdi32:GDI32.dll
 0004:00001074       __imp__GetTextColor@4      0054e074     gdi32:GDI32.dll
 0004:00001078       __imp__GetMapMode@4        0054e078     gdi32:GDI32.dll
 0004:0000107c       __imp__LineTo@12           0054e07c     gdi32:GDI32.dll
 0004:00001080       __imp__GetViewportOrgEx@8  0054e080     gdi32:GDI32.dll
 0004:00001084       __imp__GetViewportExtEx@8  0054e084     gdi32:GDI32.dll
 0004:00001088       __imp__GetWindowOrgEx@8    0054e088     gdi32:GDI32.dll
 0004:0000108c       __imp__GetWindowExtEx@8    0054e08c     gdi32:GDI32.dll
 0004:00001090       __imp__DPtoLP@12           0054e090     gdi32:GDI32.dll
 0004:00001094       __imp__LPtoDP@12           0054e094     gdi32:GDI32.dll
 0004:00001098       __imp__FillRgn@12          0054e098     gdi32:GDI32.dll
 0004:0000109c       __imp__FrameRgn@20         0054e09c     gdi32:GDI32.dll
 0004:000010a0       __imp__InvertRgn@8         0054e0a0     gdi32:GDI32.dll
 0004:000010a4       __imp__PaintRgn@8          0054e0a4     gdi32:GDI32.dll
 0004:000010a8       __imp__PtVisible@12        0054e0a8     gdi32:GDI32.dll
 0004:000010ac       __imp__RectVisible@8       0054e0ac     gdi32:GDI32.dll
 0004:000010b0       __imp__GetCurrentPositionEx@8 0054e0b0     gdi32:GDI32.dll
 0004:000010b4       __imp__Arc@36              0054e0b4     gdi32:GDI32.dll
 0004:000010b8       __imp__Polyline@12         0054e0b8     gdi32:GDI32.dll
 0004:000010bc       __imp__Chord@36            0054e0bc     gdi32:GDI32.dll
 0004:000010c0       __imp__Ellipse@20          0054e0c0     gdi32:GDI32.dll
 0004:000010c4       __imp__Pie@36              0054e0c4     gdi32:GDI32.dll
 0004:000010c8       __imp__Polygon@12          0054e0c8     gdi32:GDI32.dll
 0004:000010cc       __imp__PolyPolygon@16      0054e0cc     gdi32:GDI32.dll
 0004:000010d0       __imp__Rectangle@20        0054e0d0     gdi32:GDI32.dll
 0004:000010d4       __imp__RoundRect@28        0054e0d4     gdi32:GDI32.dll
 0004:000010d8       __imp__PatBlt@24           0054e0d8     gdi32:GDI32.dll
 0004:000010dc       __imp__BitBlt@36           0054e0dc     gdi32:GDI32.dll
 0004:000010e0       __imp__StretchBlt@44       0054e0e0     gdi32:GDI32.dll
 0004:000010e4       __imp__GetPixel@12         0054e0e4     gdi32:GDI32.dll
 0004:000010e8       __imp__SetPixel@16         0054e0e8     gdi32:GDI32.dll
 0004:000010ec       __imp__FloodFill@16        0054e0ec     gdi32:GDI32.dll
 0004:000010f0       __imp__ExtFloodFill@20     0054e0f0     gdi32:GDI32.dll
 0004:000010f4       __imp__TextOutA@20         0054e0f4     gdi32:GDI32.dll
 0004:000010f8       __imp__ExtTextOutA@32      0054e0f8     gdi32:GDI32.dll
 0004:000010fc       __imp__GetTextExtentPoint32A@16 0054e0fc     gdi32:GDI32.dll
 0004:00001100       __imp__GetTextAlign@4      0054e100     gdi32:GDI32.dll
 0004:00001104       __imp__GetTextFaceA@12     0054e104     gdi32:GDI32.dll
 0004:00001108       __imp__GetTextMetricsA@8   0054e108     gdi32:GDI32.dll
 0004:0000110c       __imp__GetTextCharacterExtra@4 0054e10c     gdi32:GDI32.dll
 0004:00001110       __imp__GetCharWidthA@16    0054e110     gdi32:GDI32.dll
 0004:00001114       __imp__GetAspectRatioFilterEx@8 0054e114     gdi32:GDI32.dll
 0004:00001118       __imp__Escape@20           0054e118     gdi32:GDI32.dll
 0004:0000111c       __imp__SetBoundsRect@12    0054e11c     gdi32:GDI32.dll
 0004:00001120       __imp__GetBoundsRect@12    0054e120     gdi32:GDI32.dll
 0004:00001124       __imp__ResetDCA@8          0054e124     gdi32:GDI32.dll
 0004:00001128       __imp__GetOutlineTextMetricsA@12 0054e128     gdi32:GDI32.dll
 0004:0000112c       __imp__GetCharABCWidthsA@16 0054e12c     gdi32:GDI32.dll
 0004:00001130       __imp__GetFontData@20      0054e130     gdi32:GDI32.dll
 0004:00001134       __imp__GetKerningPairsA@12 0054e134     gdi32:GDI32.dll
 0004:00001138       __imp__GetGlyphOutlineA@28 0054e138     gdi32:GDI32.dll
 0004:0000113c       __imp__StartDocA@8         0054e13c     gdi32:GDI32.dll
 0004:00001140       __imp__StartPage@4         0054e140     gdi32:GDI32.dll
 0004:00001144       __imp__EndPage@4           0054e144     gdi32:GDI32.dll
 0004:00001148       __imp__SetAbortProc@8      0054e148     gdi32:GDI32.dll
 0004:0000114c       __imp__AbortDoc@4          0054e14c     gdi32:GDI32.dll
 0004:00001150       __imp__EndDoc@4            0054e150     gdi32:GDI32.dll
 0004:00001154       __imp__MaskBlt@48          0054e154     gdi32:GDI32.dll
 0004:00001158       __imp__PlgBlt@40           0054e158     gdi32:GDI32.dll
 0004:0000115c       __imp__SetPixelV@16        0054e15c     gdi32:GDI32.dll
 0004:00001160       __imp__AngleArc@24         0054e160     gdi32:GDI32.dll
 0004:00001164       __imp__GetArcDirection@4   0054e164     gdi32:GDI32.dll
 0004:00001168       __imp__PolyPolyline@16     0054e168     gdi32:GDI32.dll
 0004:0000116c       __imp__GetColorAdjustment@8 0054e16c     gdi32:GDI32.dll
 0004:00001170       __imp__GetCurrentObject@8  0054e170     gdi32:GDI32.dll
 0004:00001174       __imp__PolyBezier@12       0054e174     gdi32:GDI32.dll
 0004:00001178       __imp__DrawEscape@16       0054e178     gdi32:GDI32.dll
 0004:0000117c       __imp__ExtEscape@24        0054e17c     gdi32:GDI32.dll
 0004:00001180       __imp__GetCharABCWidthsFloatA@16 0054e180     gdi32:GDI32.dll
 0004:00001184       __imp__GetCharWidthFloatA@16 0054e184     gdi32:GDI32.dll
 0004:00001188       __imp__AbortPath@4         0054e188     gdi32:GDI32.dll
 0004:0000118c       __imp__BeginPath@4         0054e18c     gdi32:GDI32.dll
 0004:00001190       __imp__CloseFigure@4       0054e190     gdi32:GDI32.dll
 0004:00001194       __imp__EndPath@4           0054e194     gdi32:GDI32.dll
 0004:00001198       __imp__FillPath@4          0054e198     gdi32:GDI32.dll
 0004:0000119c       __imp__FlattenPath@4       0054e19c     gdi32:GDI32.dll
 0004:000011a0       __imp__GetMiterLimit@8     0054e1a0     gdi32:GDI32.dll
 0004:000011a4       __imp__GetPath@16          0054e1a4     gdi32:GDI32.dll
 0004:000011a8       __imp__GetTextExtentPointA@16 0054e1a8     gdi32:GDI32.dll
 0004:000011ac       __imp__CreateDIBitmap@24   0054e1ac     gdi32:GDI32.dll
 0004:000011b0       __imp__StretchDIBits@52    0054e1b0     gdi32:GDI32.dll
 0004:000011b4       __imp__CloseEnhMetaFile@4  0054e1b4     gdi32:GDI32.dll
 0004:000011b8       __imp__CreateEnhMetaFileA@16 0054e1b8     gdi32:GDI32.dll
 0004:000011bc       __imp__CloseMetaFile@4     0054e1bc     gdi32:GDI32.dll
 0004:000011c0       __imp__CreateMetaFileA@4   0054e1c0     gdi32:GDI32.dll
 0004:000011c4       __imp__PlayMetaFile@8      0054e1c4     gdi32:GDI32.dll
 0004:000011c8       __imp__EnumMetaFile@16     0054e1c8     gdi32:GDI32.dll
 0004:000011cc       __imp__GetDCOrgEx@8        0054e1cc     gdi32:GDI32.dll
 0004:000011d0       __imp__ExtSelectClipRgn@12 0054e1d0     gdi32:GDI32.dll
 0004:000011d4       __imp__SelectClipPath@8    0054e1d4     gdi32:GDI32.dll
 0004:000011d8       __imp__GetClipRgn@8        0054e1d8     gdi32:GDI32.dll
 0004:000011dc       __imp__DeleteObject@4      0054e1dc     gdi32:GDI32.dll
 0004:000011e0       __imp__PolyBezierTo@12     0054e1e0     gdi32:GDI32.dll
 0004:000011e4       __imp__SetColorAdjustment@8 0054e1e4     gdi32:GDI32.dll
 0004:000011e8       __imp__PolylineTo@12       0054e1e8     gdi32:GDI32.dll
 0004:000011ec       __imp__PolyDraw@16         0054e1ec     gdi32:GDI32.dll
 0004:000011f0       __imp__SetArcDirection@8   0054e1f0     gdi32:GDI32.dll
 0004:000011f4       __imp__ArcTo@36            0054e1f4     gdi32:GDI32.dll
 0004:000011f8       __imp__SetMapperFlags@8    0054e1f8     gdi32:GDI32.dll
 0004:000011fc       __imp__SetTextCharacterExtra@8 0054e1fc     gdi32:GDI32.dll
 0004:00001200       __imp__SetTextJustification@12 0054e200     gdi32:GDI32.dll
 0004:00001204       __imp__SetTextAlign@8      0054e204     gdi32:GDI32.dll
 0004:00001208       __imp__StrokeAndFillPath@4 0054e208     gdi32:GDI32.dll
 0004:0000120c       __imp__SetMiterLimit@12    0054e20c     gdi32:GDI32.dll
 0004:00001210       __imp__SetMapMode@8        0054e210     gdi32:GDI32.dll
 0004:00001214       __imp__IntersectClipRect@20 0054e214     gdi32:GDI32.dll
 0004:00001218       __imp__ExcludeClipRect@20  0054e218     gdi32:GDI32.dll
 0004:0000121c       __imp__SelectClipRgn@8     0054e21c     gdi32:GDI32.dll
 0004:00001220       __imp__ScaleWindowExtEx@24 0054e220     gdi32:GDI32.dll
 0004:00001224       __imp__SetWindowExtEx@16   0054e224     gdi32:GDI32.dll
 0004:00001228       __imp__OffsetWindowOrgEx@16 0054e228     gdi32:GDI32.dll
 0004:0000122c       __imp__SetWindowOrgEx@16   0054e22c     gdi32:GDI32.dll
 0004:00001230       __imp__ScaleViewportExtEx@24 0054e230     gdi32:GDI32.dll
 0004:00001234       __imp__SetViewportExtEx@16 0054e234     gdi32:GDI32.dll
 0004:00001238       __imp__OffsetViewportOrgEx@16 0054e238     gdi32:GDI32.dll
 0004:0000123c       __imp__SetViewportOrgEx@16 0054e23c     gdi32:GDI32.dll
 0004:00001240       __imp__RestoreDC@8         0054e240     gdi32:GDI32.dll
 0004:00001244       __imp__SetStretchBltMode@8 0054e244     gdi32:GDI32.dll
 0004:00001248       __imp__SetROP2@8           0054e248     gdi32:GDI32.dll
 0004:0000124c       __imp__SetPolyFillMode@8   0054e24c     gdi32:GDI32.dll
 0004:00001250       __imp__SetBkMode@8         0054e250     gdi32:GDI32.dll
 0004:00001254       __imp__SelectPalette@12    0054e254     gdi32:GDI32.dll
 0004:00001258       __imp__SaveDC@4            0054e258     gdi32:GDI32.dll
 0004:0000125c       __imp__DeleteDC@4          0054e25c     gdi32:GDI32.dll
 0004:00001260       __imp__PlayEnhMetaFile@12  0054e260     gdi32:GDI32.dll
 0004:00001264       __imp__GdiComment@12       0054e264     gdi32:GDI32.dll
 0004:00001268       __imp__WidenPath@4         0054e268     gdi32:GDI32.dll
 0004:0000126c       __imp__StrokePath@4        0054e26c     gdi32:GDI32.dll
 0004:00001270       \177GDI32_NULL_THUNK_DATA  0054e270     gdi32:GDI32.dll
 0004:00001338       __imp__HeapValidate@12     0054e338     kernel32:KERNEL32.dll
 0004:0000133c       __imp__SuspendThread@4     0054e33c     kernel32:KERNEL32.dll
 0004:00001340       __imp__InitializeCriticalSection@4 0054e340     kernel32:KERNEL32.dll
 0004:00001344       __imp__DeleteCriticalSection@4 0054e344     kernel32:KERNEL32.dll
 0004:00001348       __imp__LeaveCriticalSection@4 0054e348     kernel32:KERNEL32.dll
 0004:0000134c       __imp__EnterCriticalSection@4 0054e34c     kernel32:KERNEL32.dll
 0004:00001350       __imp__ResetEvent@4        0054e350     kernel32:KERNEL32.dll
 0004:00001354       __imp__Beep@8              0054e354     kernel32:KERNEL32.dll
 0004:00001358       __imp__DisconnectNamedPipe@4 0054e358     kernel32:KERNEL32.dll
 0004:0000135c       __imp__FlushFileBuffers@4  0054e35c     kernel32:KERNEL32.dll
 0004:00001360       __imp__GetLastError@0      0054e360     kernel32:KERNEL32.dll
 0004:00001364       __imp__PeekNamedPipe@24    0054e364     kernel32:KERNEL32.dll
 0004:00001368       __imp__SetLastError@4      0054e368     kernel32:KERNEL32.dll
 0004:0000136c       __imp__SetNamedPipeHandleState@16 0054e36c     kernel32:KERNEL32.dll
 0004:00001370       __imp__WaitNamedPipeA@8    0054e370     kernel32:KERNEL32.dll
 0004:00001374       __imp__GetComputerNameA@8  0054e374     kernel32:KERNEL32.dll
 0004:00001378       __imp__GetModuleHandleA@4  0054e378     kernel32:KERNEL32.dll
 0004:0000137c       __imp__lstrcpyA@8          0054e37c     kernel32:KERNEL32.dll
 0004:00001380       __imp__GlobalDeleteAtom@4  0054e380     kernel32:KERNEL32.dll
 0004:00001384       __imp__GlobalFindAtomA@4   0054e384     kernel32:KERNEL32.dll
 0004:00001388       __imp__GlobalAddAtomA@4    0054e388     kernel32:KERNEL32.dll
 0004:0000138c       __imp__lstrcmpiA@8         0054e38c     kernel32:KERNEL32.dll
 0004:00001390       __imp__GlobalGetAtomNameA@12 0054e390     kernel32:KERNEL32.dll
 0004:00001394       __imp__lstrcatA@8          0054e394     kernel32:KERNEL32.dll
 0004:00001398       __imp__lstrlenA@4          0054e398     kernel32:KERNEL32.dll
 0004:0000139c       __imp__GetVersion@0        0054e39c     kernel32:KERNEL32.dll
 0004:000013a0       __imp__FreeResource@4      0054e3a0     kernel32:KERNEL32.dll
 0004:000013a4       __imp__LockResource@4      0054e3a4     kernel32:KERNEL32.dll
 0004:000013a8       __imp__LoadResource@8      0054e3a8     kernel32:KERNEL32.dll
 0004:000013ac       __imp__FindResourceA@12    0054e3ac     kernel32:KERNEL32.dll
 0004:000013b0       __imp__MulDiv@12           0054e3b0     kernel32:KERNEL32.dll
 0004:000013b4       __imp__GlobalUnlock@4      0054e3b4     kernel32:KERNEL32.dll
 0004:000013b8       __imp__GetLocaleInfoW@16   0054e3b8     kernel32:KERNEL32.dll
 0004:000013bc       __imp__SetEnvironmentVariableA@8 0054e3bc     kernel32:KERNEL32.dll
 0004:000013c0       __imp__SetStdHandle@8      0054e3c0     kernel32:KERNEL32.dll
 0004:000013c4       __imp__GetVersionExA@4     0054e3c4     kernel32:KERNEL32.dll
 0004:000013c8       __imp__GetUserDefaultLCID@0 0054e3c8     kernel32:KERNEL32.dll
 0004:000013cc       __imp__EnumSystemLocalesA@8 0054e3cc     kernel32:KERNEL32.dll
 0004:000013d0       __imp__GetLocaleInfoA@16   0054e3d0     kernel32:KERNEL32.dll
 0004:000013d4       __imp__IsValidCodePage@4   0054e3d4     kernel32:KERNEL32.dll
 0004:000013d8       __imp__IsValidLocale@8     0054e3d8     kernel32:KERNEL32.dll
 0004:000013dc       __imp__IsBadCodePtr@4      0054e3dc     kernel32:KERNEL32.dll
 0004:000013e0       __imp__GetStringTypeW@16   0054e3e0     kernel32:KERNEL32.dll
 0004:000013e4       __imp__GetStringTypeA@20   0054e3e4     kernel32:KERNEL32.dll
 0004:000013e8       __imp__SetConsoleCtrlHandler@8 0054e3e8     kernel32:KERNEL32.dll
 0004:000013ec       __imp__CompareStringW@24   0054e3ec     kernel32:KERNEL32.dll
 0004:000013f0       __imp__CompareStringA@24   0054e3f0     kernel32:KERNEL32.dll
 0004:000013f4       __imp__LCMapStringW@24     0054e3f4     kernel32:KERNEL32.dll
 0004:000013f8       __imp__LCMapStringA@24     0054e3f8     kernel32:KERNEL32.dll
 0004:000013fc       __imp__VirtualAlloc@16     0054e3fc     kernel32:KERNEL32.dll
 0004:00001400       __imp__HeapReAlloc@16      0054e400     kernel32:KERNEL32.dll
 0004:00001404       __imp__HeapAlloc@12        0054e404     kernel32:KERNEL32.dll
 0004:00001408       __imp__VirtualFree@12      0054e408     kernel32:KERNEL32.dll
 0004:0000140c       __imp__HeapCreate@12       0054e40c     kernel32:KERNEL32.dll
 0004:00001410       __imp__HeapDestroy@4       0054e410     kernel32:KERNEL32.dll
 0004:00001414       __imp__GetFileType@4       0054e414     kernel32:KERNEL32.dll
 0004:00001418       __imp__SetHandleCount@4    0054e418     kernel32:KERNEL32.dll
 0004:0000141c       __imp__GetEnvironmentStringsW@0 0054e41c     kernel32:KERNEL32.dll
 0004:00001420       __imp__GetEnvironmentStrings@0 0054e420     kernel32:KERNEL32.dll
 0004:00001424       __imp__FreeEnvironmentStringsW@4 0054e424     kernel32:KERNEL32.dll
 0004:00001428       __imp__FreeEnvironmentStringsA@4 0054e428     kernel32:KERNEL32.dll
 0004:0000142c       __imp__UnhandledExceptionFilter@4 0054e42c     kernel32:KERNEL32.dll
 0004:00001430       __imp__SetUnhandledExceptionFilter@4 0054e430     kernel32:KERNEL32.dll
 0004:00001434       __imp__HeapFree@12         0054e434     kernel32:KERNEL32.dll
 0004:00001438       __imp__FatalAppExitA@8     0054e438     kernel32:KERNEL32.dll
 0004:0000143c       __imp__GetACP@0            0054e43c     kernel32:KERNEL32.dll
 0004:00001440       __imp__GetLocalTime@4      0054e440     kernel32:KERNEL32.dll
 0004:00001444       __imp__GetSystemTime@4     0054e444     kernel32:KERNEL32.dll
 0004:00001448       __imp__GetTimeZoneInformation@4 0054e448     kernel32:KERNEL32.dll
 0004:0000144c       __imp__OutputDebugStringA@4 0054e44c     kernel32:KERNEL32.dll
 0004:00001450       __imp__GetStdHandle@4      0054e450     kernel32:KERNEL32.dll
 0004:00001454       __imp__DebugBreak@0        0054e454     kernel32:KERNEL32.dll
 0004:00001458       __imp__ExitThread@4        0054e458     kernel32:KERNEL32.dll
 0004:0000145c       __imp__TerminateProcess@8  0054e45c     kernel32:KERNEL32.dll
 0004:00001460       __imp__ExitProcess@4       0054e460     kernel32:KERNEL32.dll
 0004:00001464       __imp__ResumeThread@4      0054e464     kernel32:KERNEL32.dll
 0004:00001468       __imp__GetCommandLineA@0   0054e468     kernel32:KERNEL32.dll
 0004:0000146c       __imp__GetStartupInfoA@4   0054e46c     kernel32:KERNEL32.dll
 0004:00001470       __imp__RaiseException@16   0054e470     kernel32:KERNEL32.dll
 0004:00001474       __imp__RtlUnwind@16        0054e474     kernel32:KERNEL32.dll
 0004:00001478       __imp__SetFileAttributesA@8 0054e478     kernel32:KERNEL32.dll
 0004:0000147c       __imp__SystemTimeToFileTime@8 0054e47c     kernel32:KERNEL32.dll
 0004:00001480       __imp__SetThreadPriority@8 0054e480     kernel32:KERNEL32.dll
 0004:00001484       __imp__TerminateThread@8   0054e484     kernel32:KERNEL32.dll
 0004:00001488       __imp__LocalFileTimeToFileTime@8 0054e488     kernel32:KERNEL32.dll
 0004:0000148c       __imp__GetFileSize@8       0054e48c     kernel32:KERNEL32.dll
 0004:00001490       __imp__GetDiskFreeSpaceA@20 0054e490     kernel32:KERNEL32.dll
 0004:00001494       __imp__GetFileTime@16      0054e494     kernel32:KERNEL32.dll
 0004:00001498       __imp__SetFileTime@16      0054e498     kernel32:KERNEL32.dll
 0004:0000149c       __imp__GetTempFileNameA@16 0054e49c     kernel32:KERNEL32.dll
 0004:000014a0       __imp__GetFileAttributesA@4 0054e4a0     kernel32:KERNEL32.dll
 0004:000014a4       __imp__GetShortPathNameA@12 0054e4a4     kernel32:KERNEL32.dll
 0004:000014a8       __imp__GetThreadLocale@0   0054e4a8     kernel32:KERNEL32.dll
 0004:000014ac       __imp__GetStringTypeExA@20 0054e4ac     kernel32:KERNEL32.dll
 0004:000014b0       __imp__GetFullPathNameA@16 0054e4b0     kernel32:KERNEL32.dll
 0004:000014b4       __imp__GetVolumeInformationA@32 0054e4b4     kernel32:KERNEL32.dll
 0004:000014b8       __imp__FindFirstFileA@8    0054e4b8     kernel32:KERNEL32.dll
 0004:000014bc       __imp__FindClose@4         0054e4bc     kernel32:KERNEL32.dll
 0004:000014c0       __imp__DeleteFileA@4       0054e4c0     kernel32:KERNEL32.dll
 0004:000014c4       __imp__MoveFileA@8         0054e4c4     kernel32:KERNEL32.dll
 0004:000014c8       __imp__SetEndOfFile@4      0054e4c8     kernel32:KERNEL32.dll
 0004:000014cc       __imp__UnlockFile@20       0054e4cc     kernel32:KERNEL32.dll
 0004:000014d0       __imp__LockFile@20         0054e4d0     kernel32:KERNEL32.dll
 0004:000014d4       __imp__SetFilePointer@16   0054e4d4     kernel32:KERNEL32.dll
 0004:000014d8       __imp__GetCurrentProcess@0 0054e4d8     kernel32:KERNEL32.dll
 0004:000014dc       __imp__DuplicateHandle@28  0054e4dc     kernel32:KERNEL32.dll
 0004:000014e0       __imp__SetErrorMode@4      0054e4e0     kernel32:KERNEL32.dll
 0004:000014e4       __imp__FormatMessageA@28   0054e4e4     kernel32:KERNEL32.dll
 0004:000014e8       __imp__SizeofResource@8    0054e4e8     kernel32:KERNEL32.dll
 0004:000014ec       __imp__GetCurrentDirectoryA@8 0054e4ec     kernel32:KERNEL32.dll
 0004:000014f0       __imp__WritePrivateProfileStringA@16 0054e4f0     kernel32:KERNEL32.dll
 0004:000014f4       __imp__GetPrivateProfileStringA@24 0054e4f4     kernel32:KERNEL32.dll
 0004:000014f8       __imp__GetProfileIntA@12   0054e4f8     kernel32:KERNEL32.dll
 0004:000014fc       __imp__VirtualProtect@16   0054e4fc     kernel32:KERNEL32.dll
 0004:00001500       __imp__FileTimeToLocalFileTime@8 0054e500     kernel32:KERNEL32.dll
 0004:00001504       __imp__FileTimeToSystemTime@8 0054e504     kernel32:KERNEL32.dll
 0004:00001508       __imp__IsBadReadPtr@8      0054e508     kernel32:KERNEL32.dll
 0004:0000150c       __imp__IsBadWritePtr@8     0054e50c     kernel32:KERNEL32.dll
 0004:00001510       __imp__IsBadStringPtrA@8   0054e510     kernel32:KERNEL32.dll
 0004:00001514       __imp__IsBadStringPtrW@8   0054e514     kernel32:KERNEL32.dll
 0004:00001518       __imp__TlsGetValue@4       0054e518     kernel32:KERNEL32.dll
 0004:0000151c       __imp__LocalReAlloc@12     0054e51c     kernel32:KERNEL32.dll
 0004:00001520       __imp__TlsSetValue@8       0054e520     kernel32:KERNEL32.dll
 0004:00001524       __imp__GlobalReAlloc@12    0054e524     kernel32:KERNEL32.dll
 0004:00001528       __imp__TlsFree@4           0054e528     kernel32:KERNEL32.dll
 0004:0000152c       __imp__GlobalHandle@4      0054e52c     kernel32:KERNEL32.dll
 0004:00001530       __imp__TlsAlloc@0          0054e530     kernel32:KERNEL32.dll
 0004:00001534       __imp__LocalAlloc@8        0054e534     kernel32:KERNEL32.dll
 0004:00001538       __imp__LocalFree@4         0054e538     kernel32:KERNEL32.dll
 0004:0000153c       __imp__GetOEMCP@0          0054e53c     kernel32:KERNEL32.dll
 0004:00001540       __imp__GetCPInfo@8         0054e540     kernel32:KERNEL32.dll
 0004:00001544       __imp__GetProcessVersion@4 0054e544     kernel32:KERNEL32.dll
 0004:00001548       __imp__GlobalFlags@4       0054e548     kernel32:KERNEL32.dll
 0004:0000154c       __imp__GetPrivateProfileIntA@16 0054e54c     kernel32:KERNEL32.dll
 0004:00001550       __imp__GlobalFree@4        0054e550     kernel32:KERNEL32.dll
 0004:00001554       __imp__GetModuleFileNameA@12 0054e554     kernel32:KERNEL32.dll
 0004:00001558       __imp__GlobalAlloc@8       0054e558     kernel32:KERNEL32.dll
 0004:0000155c       __imp__lstrcmpA@8          0054e55c     kernel32:KERNEL32.dll
 0004:00001560       __imp__GetCurrentThread@0  0054e560     kernel32:KERNEL32.dll
 0004:00001564       __imp__lstrcpynA@12        0054e564     kernel32:KERNEL32.dll
 0004:00001568       __imp__MultiByteToWideChar@24 0054e568     kernel32:KERNEL32.dll
 0004:0000156c       __imp__WideCharToMultiByte@32 0054e56c     kernel32:KERNEL32.dll
 0004:00001570       __imp__InterlockedDecrement@4 0054e570     kernel32:KERNEL32.dll
 0004:00001574       __imp__InterlockedIncrement@4 0054e574     kernel32:KERNEL32.dll
 0004:00001578       __imp__GetThreadPriority@4 0054e578     kernel32:KERNEL32.dll
 0004:0000157c       __imp__GlobalLock@4        0054e57c     kernel32:KERNEL32.dll
 0004:00001580       __imp__CloseHandle@4       0054e580     kernel32:KERNEL32.dll
 0004:00001584       __imp__LoadLibraryA@4      0054e584     kernel32:KERNEL32.dll
 0004:00001588       __imp__FreeLibrary@4       0054e588     kernel32:KERNEL32.dll
 0004:0000158c       __imp__Sleep@4             0054e58c     kernel32:KERNEL32.dll
 0004:00001590       __imp__WriteFile@20        0054e590     kernel32:KERNEL32.dll
 0004:00001594       __imp__CreateFileA@28      0054e594     kernel32:KERNEL32.dll
 0004:00001598       __imp__ReadFile@20         0054e598     kernel32:KERNEL32.dll
 0004:0000159c       __imp__CreateMailslotA@16  0054e59c     kernel32:KERNEL32.dll
 0004:000015a0       __imp__GetProcAddress@8    0054e5a0     kernel32:KERNEL32.dll
 0004:000015a4       __imp__GetProfileStringA@20 0054e5a4     kernel32:KERNEL32.dll
 0004:000015a8       __imp__DeviceIoControl@32  0054e5a8     kernel32:KERNEL32.dll
 0004:000015ac       __imp__DefineDosDeviceA@12 0054e5ac     kernel32:KERNEL32.dll
 0004:000015b0       __imp__GetCurrentThreadId@0 0054e5b0     kernel32:KERNEL32.dll
 0004:000015b4       __imp__CreateThread@24     0054e5b4     kernel32:KERNEL32.dll
 0004:000015b8       __imp__CreateEventA@16     0054e5b8     kernel32:KERNEL32.dll
 0004:000015bc       __imp__SetEvent@4          0054e5bc     kernel32:KERNEL32.dll
 0004:000015c0       __imp__WaitForSingleObject@8 0054e5c0     kernel32:KERNEL32.dll
 0004:000015c4       \177KERNEL32_NULL_THUNK_DATA 0054e5c4     kernel32:KERNEL32.dll
 0004:00001670       __imp__ExtractIconA@12     0054e670     shell32:SHELL32.dll
 0004:00001674       __imp__DragFinish@4        0054e674     shell32:SHELL32.dll
 0004:00001678       __imp__DragAcceptFiles@8   0054e678     shell32:SHELL32.dll
 0004:0000167c       __imp__DragQueryFileA@16   0054e67c     shell32:SHELL32.dll
 0004:00001680       __imp__SHGetFileInfoA@20   0054e680     shell32:SHELL32.dll
 0004:00001684       \177SHELL32_NULL_THUNK_DATA 0054e684     shell32:SHELL32.dll
 0004:000016b4       __imp__GetNextDlgTabItem@12 0054e6b4     user32:USER32.dll
 0004:000016b8       __imp__OemToCharA@8        0054e6b8     user32:USER32.dll
 0004:000016bc       __imp__CharToOemA@8        0054e6bc     user32:USER32.dll
 0004:000016c0       __imp__GetMenuCheckMarkDimensions@0 0054e6c0     user32:USER32.dll
 0004:000016c4       __imp__IsWindowEnabled@4   0054e6c4     user32:USER32.dll
 0004:000016c8       __imp__ShowWindow@8        0054e6c8     user32:USER32.dll
 0004:000016cc       __imp__MoveWindow@24       0054e6cc     user32:USER32.dll
 0004:000016d0       __imp__SetWindowTextA@8    0054e6d0     user32:USER32.dll
 0004:000016d4       __imp__IsDialogMessageA@8  0054e6d4     user32:USER32.dll
 0004:000016d8       __imp__ScrollWindowEx@32   0054e6d8     user32:USER32.dll
 0004:000016dc       __imp__IsDlgButtonChecked@8 0054e6dc     user32:USER32.dll
 0004:000016e0       __imp__SetDlgItemTextA@12  0054e6e0     user32:USER32.dll
 0004:000016e4       __imp__SetDlgItemInt@16    0054e6e4     user32:USER32.dll
 0004:000016e8       __imp__GetDlgItemTextA@16  0054e6e8     user32:USER32.dll
 0004:000016ec       __imp__GetDlgItemInt@16    0054e6ec     user32:USER32.dll
 0004:000016f0       __imp__CheckRadioButton@16 0054e6f0     user32:USER32.dll
 0004:000016f4       __imp__CheckDlgButton@12   0054e6f4     user32:USER32.dll
 0004:000016f8       __imp__OpenIcon@4          0054e6f8     user32:USER32.dll
 0004:000016fc       __imp__CloseWindow@4       0054e6fc     user32:USER32.dll
 0004:00001700       __imp__LoadCursorA@8       0054e700     user32:USER32.dll
 0004:00001704       __imp__MapDialogRect@8     0054e704     user32:USER32.dll
 0004:00001708       __imp__EnableWindow@8      0054e708     user32:USER32.dll
 0004:0000170c       __imp__GetWindowContextHelpId@4 0054e70c     user32:USER32.dll
 0004:00001710       __imp__SetWindowContextHelpId@8 0054e710     user32:USER32.dll
 0004:00001714       __imp__SendNotifyMessageA@16 0054e714     user32:USER32.dll
 0004:00001718       __imp__GetForegroundWindow@0 0054e718     user32:USER32.dll
 0004:0000171c       __imp__SetForegroundWindow@4 0054e71c     user32:USER32.dll
 0004:00001720       __imp__ShowCaret@4         0054e720     user32:USER32.dll
 0004:00001724       __imp__HideCaret@4         0054e724     user32:USER32.dll
 0004:00001728       __imp__SetCaretPos@8       0054e728     user32:USER32.dll
 0004:0000172c       __imp__GetCaretPos@4       0054e72c     user32:USER32.dll
 0004:00001730       __imp__CreateCaret@16      0054e730     user32:USER32.dll
 0004:00001734       __imp__GetClipboardViewer@0 0054e734     user32:USER32.dll
 0004:00001738       __imp__GetClipboardOwner@0 0054e738     user32:USER32.dll
 0004:0000173c       __imp__GetOpenClipboardWindow@0 0054e73c     user32:USER32.dll
 0004:00001740       __imp__OpenClipboard@4     0054e740     user32:USER32.dll
 0004:00001744       __imp__SetClipboardViewer@4 0054e744     user32:USER32.dll
 0004:00001748       __imp__ChangeClipboardChain@8 0054e748     user32:USER32.dll
 0004:0000174c       __imp__FlashWindow@8       0054e74c     user32:USER32.dll
 0004:00001750       __imp__WindowFromPoint@8   0054e750     user32:USER32.dll
 0004:00001754       __imp__FindWindowA@8       0054e754     user32:USER32.dll
 0004:00001758       __imp__ChildWindowFromPointEx@16 0054e758     user32:USER32.dll
 0004:0000175c       __imp__ChildWindowFromPoint@12 0054e75c     user32:USER32.dll
 0004:00001760       __imp__SetCursor@4         0054e760     user32:USER32.dll
 0004:00001764       __imp__PostQuitMessage@4   0054e764     user32:USER32.dll
 0004:00001768       __imp__GetNextDlgGroupItem@12 0054e768     user32:USER32.dll
 0004:0000176c       __imp__DlgDirSelectExA@16  0054e76c     user32:USER32.dll
 0004:00001770       __imp__DlgDirListComboBoxA@20 0054e770     user32:USER32.dll
 0004:00001774       __imp__DlgDirListA@20      0054e774     user32:USER32.dll
 0004:00001778       __imp__SetCapture@4        0054e778     user32:USER32.dll
 0004:0000177c       __imp__GetActiveWindow@0   0054e77c     user32:USER32.dll
 0004:00001780       __imp__KillTimer@8         0054e780     user32:USER32.dll
 0004:00001784       __imp__SetTimer@16         0054e784     user32:USER32.dll
 0004:00001788       __imp__EnableScrollBar@12  0054e788     user32:USER32.dll
 0004:0000178c       __imp__RedrawWindow@16     0054e78c     user32:USER32.dll
 0004:00001790       __imp__LockWindowUpdate@4  0054e790     user32:USER32.dll
 0004:00001794       __imp__GetDCEx@12          0054e794     user32:USER32.dll
 0004:00001798       __imp__ShowOwnedPopups@8   0054e798     user32:USER32.dll
 0004:0000179c       __imp__IsWindowVisible@4   0054e79c     user32:USER32.dll
 0004:000017a0       __imp__ValidateRgn@8       0054e7a0     user32:USER32.dll
 0004:000017a4       __imp__ValidateRect@8      0054e7a4     user32:USER32.dll
 0004:000017a8       __imp__InvalidateRgn@12    0054e7a8     user32:USER32.dll
 0004:000017ac       __imp__InvalidateRect@12   0054e7ac     user32:USER32.dll
 0004:000017b0       __imp__GetUpdateRgn@12     0054e7b0     user32:USER32.dll
 0004:000017b4       __imp__GetUpdateRect@12    0054e7b4     user32:USER32.dll
 0004:000017b8       __imp__UpdateWindow@4      0054e7b8     user32:USER32.dll
 0004:000017bc       __imp__BringWindowToTop@4  0054e7bc     user32:USER32.dll
 0004:000017c0       __imp__GetWindowRgn@8      0054e7c0     user32:USER32.dll
 0004:000017c4       __imp__SetWindowRgn@12     0054e7c4     user32:USER32.dll
 0004:000017c8       __imp__ArrangeIconicWindows@4 0054e7c8     user32:USER32.dll
 0004:000017cc       __imp__IsZoomed@4          0054e7cc     user32:USER32.dll
 0004:000017d0       __imp__HiliteMenuItem@16   0054e7d0     user32:USER32.dll
 0004:000017d4       __imp__GetSystemMenu@8     0054e7d4     user32:USER32.dll
 0004:000017d8       __imp__DrawMenuBar@4       0054e7d8     user32:USER32.dll
 0004:000017dc       __imp__SetMenu@8           0054e7dc     user32:USER32.dll
 0004:000017e0       __imp__GetMenu@4           0054e7e0     user32:USER32.dll
 0004:000017e4       __imp__PostMessageA@16     0054e7e4     user32:USER32.dll
 0004:000017e8       __imp__EndPaint@8          0054e7e8     user32:USER32.dll
 0004:000017ec       __imp__BeginPaint@8        0054e7ec     user32:USER32.dll
 0004:000017f0       __imp__GetWindowDC@4       0054e7f0     user32:USER32.dll
 0004:000017f4       __imp__ReleaseDC@8         0054e7f4     user32:USER32.dll
 0004:000017f8       __imp__GetDC@4             0054e7f8     user32:USER32.dll
 0004:000017fc       __imp__ClientToScreen@8    0054e7fc     user32:USER32.dll
 0004:00001800       __imp__CheckMenuRadioItem@20 0054e800     user32:USER32.dll
 0004:00001804       __imp__GetMenuContextHelpId@4 0054e804     user32:USER32.dll
 0004:00001808       __imp__SetMenuContextHelpId@8 0054e808     user32:USER32.dll
 0004:0000180c       __imp__LoadMenuIndirectA@4 0054e80c     user32:USER32.dll
 0004:00001810       __imp__LoadMenuA@8         0054e810     user32:USER32.dll
 0004:00001814       __imp__ShowScrollBar@12    0054e814     user32:USER32.dll
 0004:00001818       __imp__TranslateMessage@4  0054e818     user32:USER32.dll
 0004:0000181c       __imp__ModifyMenuA@20      0054e81c     user32:USER32.dll
 0004:00001820       __imp__InsertMenuA@20      0054e820     user32:USER32.dll
 0004:00001824       __imp__GetSubMenu@8        0054e824     user32:USER32.dll
 0004:00001828       __imp__GetMenuItemInfoA@16 0054e828     user32:USER32.dll
 0004:0000182c       __imp__GetMenuStringA@20   0054e82c     user32:USER32.dll
 0004:00001830       __imp__GetMessageA@16      0054e830     user32:USER32.dll
 0004:00001834       __imp__GetCursorPos@4      0054e834     user32:USER32.dll
 0004:00001838       __imp__GetMenuItemCount@4  0054e838     user32:USER32.dll
 0004:0000183c       __imp__GetMenuDefaultItem@12 0054e83c     user32:USER32.dll
 0004:00001840       __imp__SetMenuDefaultItem@12 0054e840     user32:USER32.dll
 0004:00001844       __imp__EnableMenuItem@12   0054e844     user32:USER32.dll
 0004:00001848       __imp__CheckMenuItem@12    0054e848     user32:USER32.dll
 0004:0000184c       __imp__DeleteMenu@12       0054e84c     user32:USER32.dll
 0004:00001850       __imp__IsMenu@4            0054e850     user32:USER32.dll
 0004:00001854       __imp__CreatePopupMenu@0   0054e854     user32:USER32.dll
 0004:00001858       __imp__CreateMenu@0        0054e858     user32:USER32.dll
 0004:0000185c       __imp__ScrollDC@28         0054e85c     user32:USER32.dll
 0004:00001860       __imp__GrayStringA@36      0054e860     user32:USER32.dll
 0004:00001864       __imp__GetTabbedTextExtentA@20 0054e864     user32:USER32.dll
 0004:00001868       __imp__DrawTextA@20        0054e868     user32:USER32.dll
 0004:0000186c       __imp__TabbedTextOutA@32   0054e86c     user32:USER32.dll
 0004:00001870       __imp__DrawFocusRect@8     0054e870     user32:USER32.dll
 0004:00001874       __imp__DrawFrameControl@16 0054e874     user32:USER32.dll
 0004:00001878       __imp__DrawEdge@16         0054e878     user32:USER32.dll
 0004:0000187c       __imp__DrawStateA@40       0054e87c     user32:USER32.dll
 0004:00001880       __imp__DrawIcon@16         0054e880     user32:USER32.dll
 0004:00001884       __imp__InvertRect@8        0054e884     user32:USER32.dll
 0004:00001888       __imp__FrameRect@12        0054e888     user32:USER32.dll
 0004:0000188c       __imp__FillRect@12         0054e88c     user32:USER32.dll
 0004:00001890       __imp__ExcludeUpdateRgn@8  0054e890     user32:USER32.dll
 0004:00001894       __imp__WindowFromDC@4      0054e894     user32:USER32.dll
 0004:00001898       __imp__LoadBitmapA@8       0054e898     user32:USER32.dll
 0004:0000189c       __imp__GetSysColorBrush@4  0054e89c     user32:USER32.dll
 0004:000018a0       __imp__SubtractRect@12     0054e8a0     user32:USER32.dll
 0004:000018a4       __imp__UnionRect@12        0054e8a4     user32:USER32.dll
 0004:000018a8       __imp__InflateRect@12      0054e8a8     user32:USER32.dll
 0004:000018ac       __imp__SetRectEmpty@4      0054e8ac     user32:USER32.dll
 0004:000018b0       __imp__SetRect@20          0054e8b0     user32:USER32.dll
 0004:000018b4       __imp__PtInRect@12         0054e8b4     user32:USER32.dll
 0004:000018b8       __imp__IsRectEmpty@4       0054e8b8     user32:USER32.dll
 0004:000018bc       __imp__LoadIconA@8         0054e8bc     user32:USER32.dll
 0004:000018c0       __imp__SendDlgItemMessageA@20 0054e8c0     user32:USER32.dll
 0004:000018c4       __imp__GetClientRect@8     0054e8c4     user32:USER32.dll
 0004:000018c8       __imp__MapWindowPoints@16  0054e8c8     user32:USER32.dll
 0004:000018cc       __imp__DispatchMessageA@4  0054e8cc     user32:USER32.dll
 0004:000018d0       __imp__GetFocus@0          0054e8d0     user32:USER32.dll
 0004:000018d4       __imp__SetActiveWindow@4   0054e8d4     user32:USER32.dll
 0004:000018d8       __imp__SetFocus@4          0054e8d8     user32:USER32.dll
 0004:000018dc       __imp__AdjustWindowRectEx@16 0054e8dc     user32:USER32.dll
 0004:000018e0       __imp__ScreenToClient@8    0054e8e0     user32:USER32.dll
 0004:000018e4       __imp__EqualRect@8         0054e8e4     user32:USER32.dll
 0004:000018e8       __imp__DeferWindowPos@32   0054e8e8     user32:USER32.dll
 0004:000018ec       __imp__BeginDeferWindowPos@4 0054e8ec     user32:USER32.dll
 0004:000018f0       __imp__CopyRect@8          0054e8f0     user32:USER32.dll
 0004:000018f4       __imp__EndDeferWindowPos@4 0054e8f4     user32:USER32.dll
 0004:000018f8       __imp__ScrollWindow@20     0054e8f8     user32:USER32.dll
 0004:000018fc       __imp__GetScrollInfo@12    0054e8fc     user32:USER32.dll
 0004:00001900       __imp__SetScrollInfo@16    0054e900     user32:USER32.dll
 0004:00001904       __imp__GetScrollRange@16   0054e904     user32:USER32.dll
 0004:00001908       __imp__SetScrollRange@20   0054e908     user32:USER32.dll
 0004:0000190c       __imp__GetScrollPos@8      0054e90c     user32:USER32.dll
 0004:00001910       __imp__SetScrollPos@16     0054e910     user32:USER32.dll
 0004:00001914       __imp__GetTopWindow@4      0054e914     user32:USER32.dll
 0004:00001918       __imp__MessageBoxA@16      0054e918     user32:USER32.dll
 0004:0000191c       __imp__IsChild@8           0054e91c     user32:USER32.dll
 0004:00001920       __imp__GetParent@4         0054e920     user32:USER32.dll
 0004:00001924       __imp__GetWindow@8         0054e924     user32:USER32.dll
 0004:00001928       __imp__GetCapture@0        0054e928     user32:USER32.dll
 0004:0000192c       __imp__WinHelpA@16         0054e92c     user32:USER32.dll
 0004:00001930       __imp__wsprintfA           0054e930     user32:USER32.dll
 0004:00001934       __imp__RegisterClassA@4    0054e934     user32:USER32.dll
 0004:00001938       __imp__TrackPopupMenu@28   0054e938     user32:USER32.dll
 0004:0000193c       __imp__SetWindowPlacement@8 0054e93c     user32:USER32.dll
 0004:00001940       __imp__GetDlgItem@8        0054e940     user32:USER32.dll
 0004:00001944       __imp__GetWindowTextLengthA@4 0054e944     user32:USER32.dll
 0004:00001948       __imp__GetWindowTextA@12   0054e948     user32:USER32.dll
 0004:0000194c       __imp__DestroyWindow@4     0054e94c     user32:USER32.dll
 0004:00001950       __imp__SendMessageA@16     0054e950     user32:USER32.dll
 0004:00001954       __imp__GetClassNameA@12    0054e954     user32:USER32.dll
 0004:00001958       __imp__GetDlgCtrlID@4      0054e958     user32:USER32.dll
 0004:0000195c       __imp__IsWindow@4          0054e95c     user32:USER32.dll
 0004:00001960       __imp__CreateWindowExA@48  0054e960     user32:USER32.dll
 0004:00001964       __imp__EndDialog@8         0054e964     user32:USER32.dll
 0004:00001968       __imp__SetWindowsHookExA@16 0054e968     user32:USER32.dll
 0004:0000196c       __imp__CallNextHookEx@16   0054e96c     user32:USER32.dll
 0004:00001970       __imp__GetClassLongA@8     0054e970     user32:USER32.dll
 0004:00001974       __imp__SetPropA@12         0054e974     user32:USER32.dll
 0004:00001978       __imp__UnhookWindowsHookEx@4 0054e978     user32:USER32.dll
 0004:0000197c       __imp__GetPropA@8          0054e97c     user32:USER32.dll
 0004:00001980       __imp__GetClipboardFormatNameA@12 0054e980     user32:USER32.dll
 0004:00001984       __imp__UnpackDDElParam@16  0054e984     user32:USER32.dll
 0004:00001988       __imp__DestroyMenu@4       0054e988     user32:USER32.dll
 0004:0000198c       __imp__GetAsyncKeyState@4  0054e98c     user32:USER32.dll
 0004:00001990       __imp__SetCursorPos@8      0054e990     user32:USER32.dll
 0004:00001994       __imp__DestroyCursor@4     0054e994     user32:USER32.dll
 0004:00001998       __imp__LoadStringA@16      0054e998     user32:USER32.dll
 0004:0000199c       __imp__WaitMessage@0       0054e99c     user32:USER32.dll
 0004:000019a0       __imp__GetWindowThreadProcessId@8 0054e9a0     user32:USER32.dll
 0004:000019a4       __imp__LoadAcceleratorsA@8 0054e9a4     user32:USER32.dll
 0004:000019a8       __imp__TranslateAcceleratorA@12 0054e9a8     user32:USER32.dll
 0004:000019ac       __imp__ReuseDDElParam@20   0054e9ac     user32:USER32.dll
 0004:000019b0       __imp__GetDialogBaseUnits@0 0054e9b0     user32:USER32.dll
 0004:000019b4       __imp__CharUpperA@4        0054e9b4     user32:USER32.dll
 0004:000019b8       __imp__DestroyIcon@4       0054e9b8     user32:USER32.dll
 0004:000019bc       __imp__GetMenuState@12     0054e9bc     user32:USER32.dll
 0004:000019c0       __imp__CreateDialogIndirectParamA@20 0054e9c0     user32:USER32.dll
 0004:000019c4       __imp__GetMenuItemID@8     0054e9c4     user32:USER32.dll
 0004:000019c8       __imp__SetMenuItemBitmaps@20 0054e9c8     user32:USER32.dll
 0004:000019cc       __imp__RemoveMenu@12       0054e9cc     user32:USER32.dll
 0004:000019d0       __imp__AppendMenuA@16      0054e9d0     user32:USER32.dll
 0004:000019d4       __imp__CallWindowProcA@20  0054e9d4     user32:USER32.dll
 0004:000019d8       __imp__RemovePropA@8       0054e9d8     user32:USER32.dll
 0004:000019dc       __imp__GetMessageTime@0    0054e9dc     user32:USER32.dll
 0004:000019e0       __imp__GetMessagePos@0     0054e9e0     user32:USER32.dll
 0004:000019e4       __imp__GetWindowLongA@8    0054e9e4     user32:USER32.dll
 0004:000019e8       __imp__SetWindowLongA@12   0054e9e8     user32:USER32.dll
 0004:000019ec       __imp__SetWindowPos@28     0054e9ec     user32:USER32.dll
 0004:000019f0       __imp__RegisterWindowMessageA@4 0054e9f0     user32:USER32.dll
 0004:000019f4       __imp__OffsetRect@12       0054e9f4     user32:USER32.dll
 0004:000019f8       __imp__IntersectRect@12    0054e9f8     user32:USER32.dll
 0004:000019fc       __imp__IsIconic@4          0054e9fc     user32:USER32.dll
 0004:00001a00       __imp__GetWindowPlacement@8 0054ea00     user32:USER32.dll
 0004:00001a04       __imp__GetWindowRect@8     0054ea04     user32:USER32.dll
 0004:00001a08       __imp__GetSystemMetrics@4  0054ea08     user32:USER32.dll
 0004:00001a0c       __imp__PeekMessageA@20     0054ea0c     user32:USER32.dll
 0004:00001a10       __imp__SystemParametersInfoA@16 0054ea10     user32:USER32.dll
 0004:00001a14       __imp__ReleaseCapture@0    0054ea14     user32:USER32.dll
 0004:00001a18       __imp__GetDesktopWindow@0  0054ea18     user32:USER32.dll
 0004:00001a1c       __imp__GetKeyboardState@4  0054ea1c     user32:USER32.dll
 0004:00001a20       __imp__SetKeyboardState@4  0054ea20     user32:USER32.dll
 0004:00001a24       __imp__GetKeyState@4       0054ea24     user32:USER32.dll
 0004:00001a28       __imp__GetSysColor@4       0054ea28     user32:USER32.dll
 0004:00001a2c       __imp__GetClassInfoA@12    0054ea2c     user32:USER32.dll
 0004:00001a30       __imp__DefWindowProcA@16   0054ea30     user32:USER32.dll
 0004:00001a34       __imp__PostThreadMessageA@16 0054ea34     user32:USER32.dll
 0004:00001a38       __imp__SetParent@8         0054ea38     user32:USER32.dll
 0004:00001a3c       __imp__DlgDirSelectComboBoxExA@16 0054ea3c     user32:USER32.dll
 0004:00001a40       __imp__GetLastActivePopup@4 0054ea40     user32:USER32.dll
 0004:00001a44       __imp__IsWindowUnicode@4   0054ea44     user32:USER32.dll
 0004:00001a48       __imp__UnregisterClassA@8  0054ea48     user32:USER32.dll
 0004:00001a4c       __imp__DefDlgProcA@16      0054ea4c     user32:USER32.dll
 0004:00001a50       __imp__CharNextA@4         0054ea50     user32:USER32.dll
 0004:00001a54       \177USER32_NULL_THUNK_DATA 0054ea54     user32:USER32.dll
 0004:00001b38       __imp__ClosePrinter@4      0054eb38     winspool:WINSPOOL.DRV
 0004:00001b3c       __imp__DocumentPropertiesA@24 0054eb3c     winspool:WINSPOOL.DRV
 0004:00001b40       __imp__OpenPrinterA@12     0054eb40     winspool:WINSPOOL.DRV
 0004:00001b44       \177WINSPOOL_NULL_THUNK_DATA 0054eb44     winspool:WINSPOOL.DRV
 0004:00001b70       __imp__GetFileTitleA@12    0054eb70     comdlg32:comdlg32.dll
 0004:00001b74       __imp__ChooseColorA@4      0054eb74     comdlg32:comdlg32.dll
 0004:00001b78       __imp__GetOpenFileNameA@4  0054eb78     comdlg32:comdlg32.dll
 0004:00001b7c       __imp__GetSaveFileNameA@4  0054eb7c     comdlg32:comdlg32.dll
 0004:00001b80       \177comdlg32_NULL_THUNK_DATA 0054eb80     comdlg32:comdlg32.dll

 entry point at        0001:0000c9f0

