; Listing generated by Microsoft (R) Optimizing Compiler Version 19.13.26131.1 

	TITLE	C:\Users\smith\Projects\CallCenter\SLWorkSet.cpp
	.686P
	.XMM
	include listing.inc
	.model	flat

INCLUDELIB LIBCMTD
INCLUDELIB OLDNAMES

PUBLIC	?__empty_global_delete@@YAXPAX@Z		; __empty_global_delete
PUBLIC	?__empty_global_delete@@YAXPAXI@Z		; __empty_global_delete
PUBLIC	___local_stdio_printf_options
PUBLIC	??$__vcrt_va_start_verify_argument_type@QBD@@YAXXZ ; __vcrt_va_start_verify_argument_type<char const * const>
PUBLIC	__vsnprintf_l
PUBLIC	__vsprintf_l
PUBLIC	_sprintf
PUBLIC	??6CSysOut@@QAEAAV0@P6AAAV0@AAV0@@Z@Z		; CSysOut::operator<<
PUBLIC	??6CSysOut@@QAEAAV0@D@Z				; CSysOut::operator<<
PUBLIC	?flush@@YAAAVCSysOut@@AAV1@@Z			; flush
PUBLIC	?endl@@YAAAVCSysOut@@AAV1@@Z			; endl
PUBLIC	?c_str@TZSuperShortString@@QBEPBDXZ		; TZSuperShortString::c_str
PUBLIC	??_GTZSuperShortString@@QAEPAXI@Z		; TZSuperShortString::`scalar deleting destructor'
PUBLIC	??0CSLine@@QAE@XZ				; CSLine::CSLine
PUBLIC	??1CSLine@@QAE@XZ				; CSLine::~CSLine
PUBLIC	??0HCharBuffer@@QAE@XZ				; HCharBuffer::HCharBuffer
PUBLIC	?GetCommand@HCharBuffer@@QAE?AVTZSuperShortString@@XZ ; HCharBuffer::GetCommand
PUBLIC	?GetBufPtr@HCharBuffer@@QAEPAXXZ		; HCharBuffer::GetBufPtr
PUBLIC	?GetMaxSize@HCharBuffer@@QAEKK@Z		; HCharBuffer::GetMaxSize
PUBLIC	?GetLPCBR@HCharBuffer@@QAEPAKXZ			; HCharBuffer::GetLPCBR
PUBLIC	?CheckBuffer@HCharBuffer@@QAEXXZ		; HCharBuffer::CheckBuffer
PUBLIC	??0CSLWorkSet@@QAE@_N@Z				; CSLWorkSet::CSLWorkSet
PUBLIC	??1CSLWorkSet@@UAE@XZ				; CSLWorkSet::~CSLWorkSet
PUBLIC	?SaveTo@CSLWorkSet@@QAEXPAVTBinaryData@@@Z	; CSLWorkSet::SaveTo
PUBLIC	?LoadFrom@CSLWorkSet@@QAEXPAVTBinaryData@@@Z	; CSLWorkSet::LoadFrom
PUBLIC	?SaveTo@CSLWorkSet@@QAEXPAV?$TFixedSizeBinaryData@$0BAAA@@@@Z ; CSLWorkSet::SaveTo
PUBLIC	?LoadFrom@CSLWorkSet@@QAEXPAV?$TFixedSizeBinaryData@$0BAAA@@@@Z ; CSLWorkSet::LoadFrom
PUBLIC	?GetSLSG@CSLWorkSet@@QAEII@Z			; CSLWorkSet::GetSLSG
PUBLIC	?GetSLState@CSLWorkSet@@QAEII@Z			; CSLWorkSet::GetSLState
PUBLIC	?SetSLState@CSLWorkSet@@QAEXII@Z		; CSLWorkSet::SetSLState
PUBLIC	?GetRMState@CSLWorkSet@@QAEII@Z			; CSLWorkSet::GetRMState
PUBLIC	?SetRMState@CSLWorkSet@@QAEXII@Z		; CSLWorkSet::SetRMState
PUBLIC	?RequestSLsState@CSLWorkSet@@QAEXXZ		; CSLWorkSet::RequestSLsState
PUBLIC	?RequestRMsState@CSLWorkSet@@QAEXXZ		; CSLWorkSet::RequestRMsState
PUBLIC	?LockAllSL@CSLWorkSet@@QAEXXZ			; CSLWorkSet::LockAllSL
PUBLIC	?CheckSLCount@CSLWorkSet@@QAEXIII@Z		; CSLWorkSet::CheckSLCount
PUBLIC	?Execute@CSLWorkSet@@MAEXXZ			; CSLWorkSet::Execute
PUBLIC	?ProcessComCommand@CSLWorkSet@@IAEXAAVTZSuperShortString@@@Z ; CSLWorkSet::ProcessComCommand
PUBLIC	?OnAlarm@CSLWorkSet@@IAEXI@Z			; CSLWorkSet::OnAlarm
PUBLIC	?OnDefault@CSLWorkSet@@IAEXI@Z			; CSLWorkSet::OnDefault
PUBLIC	?InitPort@CSLWorkSet@@AAEKXZ			; CSLWorkSet::InitPort
PUBLIC	?IsEmpty@?$TCSPtrQueue@VTZSuperShortString@@@@QAE_NXZ ; TCSPtrQueue<TZSuperShortString>::IsEmpty
PUBLIC	?Push@?$TCSPtrQueue@VTZSuperShortString@@@@QAEXPAVTZSuperShortString@@@Z ; TCSPtrQueue<TZSuperShortString>::Push
PUBLIC	?Pop@?$TCSPtrQueue@VTZSuperShortString@@@@QAEPAVTZSuperShortString@@XZ ; TCSPtrQueue<TZSuperShortString>::Pop
PUBLIC	?Reset@?$TCSPtrQueue@VTZSuperShortString@@@@QAEXXZ ; TCSPtrQueue<TZSuperShortString>::Reset
PUBLIC	??0?$TCSPtrQueue@VTZSuperShortString@@@@QAE@XZ	; TCSPtrQueue<TZSuperShortString>::TCSPtrQueue<TZSuperShortString>
PUBLIC	??1?$TCSPtrQueue@VTZSuperShortString@@@@QAE@XZ	; TCSPtrQueue<TZSuperShortString>::~TCSPtrQueue<TZSuperShortString>
PUBLIC	??_GCSLWorkSet@@UAEPAXI@Z			; CSLWorkSet::`scalar deleting destructor'
PUBLIC	?__writefrom@?$TFixedSizeBinaryData@$0BAAA@@@AAEXPAXI@Z ; TFixedSizeBinaryData<4096>::__writefrom
PUBLIC	?__readto@?$TFixedSizeBinaryData@$0BAAA@@@AAEXPAXI@Z ; TFixedSizeBinaryData<4096>::__readto
PUBLIC	??6?$TFixedSizeBinaryData@$0BAAA@@@QAEAAV0@ABI@Z ; TFixedSizeBinaryData<4096>::operator<<
PUBLIC	??5?$TFixedSizeBinaryData@$0BAAA@@@QAEAAV0@AAI@Z ; TFixedSizeBinaryData<4096>::operator>>
PUBLIC	?WriteDataFrom@?$TFixedSizeBinaryData@$0BAAA@@@QAEXPAXI@Z ; TFixedSizeBinaryData<4096>::WriteDataFrom
PUBLIC	?ReadDataTo@?$TFixedSizeBinaryData@$0BAAA@@@QAEXPAXI@Z ; TFixedSizeBinaryData<4096>::ReadDataTo
PUBLIC	??$?6$0BAAA@@@YAAAV?$TFixedSizeBinaryData@$0BAAA@@@AAV0@AAVTZSuperShortString@@@Z ; operator<<<4096>
PUBLIC	??$?5$0BAAA@@@YAAAV?$TFixedSizeBinaryData@$0BAAA@@@AAV0@AAVTZSuperShortString@@@Z ; operator>><4096>
PUBLIC	?_OptionsStorage@?1??__local_stdio_printf_options@@9@4_KA ; `__local_stdio_printf_options'::`2'::_OptionsStorage
PUBLIC	??_7CSLWorkSet@@6B@				; CSLWorkSet::`vftable'
PUBLIC	??_C@_09CJNDAKDF@?2?2?4?2COM28?$AA@		; `string'
PUBLIC	??_C@_0N@LBLKIHIO@?9KK?$CFX?$CFX?$CFX?$CFX?$DN?$AA@ ; `string'
PUBLIC	??_C@_0N@PFLAKKKN@?9RR?$CFX?$CFX?$CFX?$CFX?$DN?$AA@ ; `string'
PUBLIC	??_C@_06COHFPOPF@?9SS22?$DN?$AA@		; `string'
PUBLIC	??_C@_06JHALPDKH@?9SS33?$DN?$AA@		; `string'
PUBLIC	??_C@_06DOIGOPEC@?9SS11?$DN?$AA@		; `string'
PUBLIC	??_C@_0L@DGABMHCA@CHECK?5SL?3?5?$AA@		; `string'
PUBLIC	??_C@_01CLKCMJKC@?5?$AA@			; `string'
PUBLIC	??_C@_0BB@MFLPPJFO@Start?5CSLWorkSet?$AA@	; `string'
PUBLIC	??_C@_0BH@NCEHHEAG@Exception?5in?5SLWorkSet?$AA@ ; `string'
PUBLIC	??_C@_0O@NJDGMLDN@RING?5on?5line?5?$AA@		; `string'
PUBLIC	??_C@_0M@MKNJIHDK@SLST?9AMSC?5?$FL?$AA@		; `string'
PUBLIC	??_C@_01FJMABOPO@x?$AA@				; `string'
PUBLIC	??_C@_01LFCBOECM@?4?$AA@			; `string'
PUBLIC	??_C@_01LBDDMOBJ@?$FN?$AA@			; `string'
PUBLIC	__TI2?AVENoDataForRead@?$TFixedSizeBinaryData@$0BAAA@@@
PUBLIC	__CTA2?AVENoDataForRead@?$TFixedSizeBinaryData@$0BAAA@@@
PUBLIC	??_R0?AVENoDataForRead@?$TFixedSizeBinaryData@$0BAAA@@@@8 ; TFixedSizeBinaryData<4096>::ENoDataForRead `RTTI Type Descriptor'
PUBLIC	__CT??_R0?AVENoDataForRead@?$TFixedSizeBinaryData@$0BAAA@@@@81
PUBLIC	??_R0?AVEFSBDException@?$TFixedSizeBinaryData@$0BAAA@@@@8 ; TFixedSizeBinaryData<4096>::EFSBDException `RTTI Type Descriptor'
PUBLIC	__CT??_R0?AVEFSBDException@?$TFixedSizeBinaryData@$0BAAA@@@@81
PUBLIC	__TI2?AVEObjectTooLong@?$TFixedSizeBinaryData@$0BAAA@@@
PUBLIC	__CTA2?AVEObjectTooLong@?$TFixedSizeBinaryData@$0BAAA@@@
PUBLIC	??_R0?AVEObjectTooLong@?$TFixedSizeBinaryData@$0BAAA@@@@8 ; TFixedSizeBinaryData<4096>::EObjectTooLong `RTTI Type Descriptor'
PUBLIC	__CT??_R0?AVEObjectTooLong@?$TFixedSizeBinaryData@$0BAAA@@@@81
PUBLIC	??_R4CSLWorkSet@@6B@				; CSLWorkSet::`RTTI Complete Object Locator'
PUBLIC	??_R0?AVCSLWorkSet@@@8				; CSLWorkSet `RTTI Type Descriptor'
PUBLIC	??_R3CSLWorkSet@@8				; CSLWorkSet::`RTTI Class Hierarchy Descriptor'
PUBLIC	??_R2CSLWorkSet@@8				; CSLWorkSet::`RTTI Base Class Array'
PUBLIC	??_R1A@?0A@EA@CSLWorkSet@@8			; CSLWorkSet::`RTTI Base Class Descriptor at (0,-1,0,64)'
PUBLIC	??_R1A@?0A@EA@CThread@@8			; CThread::`RTTI Base Class Descriptor at (0,-1,0,64)'
PUBLIC	??_R0?AVCThread@@@8				; CThread `RTTI Type Descriptor'
PUBLIC	??_R3CThread@@8					; CThread::`RTTI Class Hierarchy Descriptor'
PUBLIC	??_R2CThread@@8					; CThread::`RTTI Base Class Array'
PUBLIC	??_R1BI@?0A@EN@CSystemObject@@8			; CSystemObject::`RTTI Base Class Descriptor at (24,-1,0,77)'
PUBLIC	??_R0?AVCSystemObject@@@8			; CSystemObject `RTTI Type Descriptor'
PUBLIC	??_R3CSystemObject@@8				; CSystemObject::`RTTI Class Hierarchy Descriptor'
PUBLIC	??_R2CSystemObject@@8				; CSystemObject::`RTTI Base Class Array'
PUBLIC	??_R1A@?0A@EA@CSystemObject@@8			; CSystemObject::`RTTI Base Class Descriptor at (0,-1,0,64)'
EXTRN	??_L@YGXPAXIIP6EX0@Z1@Z:PROC			; `eh vector constructor iterator'
EXTRN	??_M@YGXPAXIIP6EX0@Z@Z:PROC			; `eh vector destructor iterator'
EXTRN	??2@YAPAXI@Z:PROC				; operator new
EXTRN	??3@YAXPAXI@Z:PROC				; operator delete
EXTRN	_memcpy:PROC
EXTRN	_memset:PROC
EXTRN	__imp__CreateFileA@28:PROC
EXTRN	__imp__ReadFile@20:PROC
EXTRN	__imp__WriteFile@20:PROC
EXTRN	__imp__CloseHandle@4:PROC
EXTRN	__imp__GetLastError@0:PROC
EXTRN	__imp__InitializeCriticalSection@4:PROC
EXTRN	__imp__EnterCriticalSection@4:PROC
EXTRN	__imp__LeaveCriticalSection@4:PROC
EXTRN	__imp__DeleteCriticalSection@4:PROC
EXTRN	__imp__SetupComm@12:PROC
EXTRN	__imp__GetCommState@8:PROC
EXTRN	__imp__SetCommState@8:PROC
EXTRN	__imp__SetCommTimeouts@8:PROC
EXTRN	___stdio_common_vsprintf:PROC
EXTRN	?flush@CSysOut@@QAEAAV1@XZ:PROC			; CSysOut::flush
EXTRN	??6CSysOut@@QAEAAV0@PBD@Z:PROC			; CSysOut::operator<<
EXTRN	??6CSysOut@@QAEAAV0@E@Z:PROC			; CSysOut::operator<<
EXTRN	??6CSysOut@@QAEAAV0@H@Z:PROC			; CSysOut::operator<<
EXTRN	??6CSysOut@@QAEAAV0@I@Z:PROC			; CSysOut::operator<<
EXTRN	?time@@YAAAVCSysOut@@AAV1@@Z:PROC		; time
EXTRN	??6TBinaryData@@QAEAAV0@ABI@Z:PROC		; TBinaryData::operator<<
EXTRN	??5TBinaryData@@QAEAAV0@AAI@Z:PROC		; TBinaryData::operator>>
EXTRN	??0TZSuperShortString@@QAE@XZ:PROC		; TZSuperShortString::TZSuperShortString
EXTRN	??0TZSuperShortString@@QAE@PBD@Z:PROC		; TZSuperShortString::TZSuperShortString
EXTRN	??0TZSuperShortString@@QAE@PBDH@Z:PROC		; TZSuperShortString::TZSuperShortString
EXTRN	??0TZSuperShortString@@QAE@ABV0@@Z:PROC		; TZSuperShortString::TZSuperShortString
EXTRN	??1TZSuperShortString@@QAE@XZ:PROC		; TZSuperShortString::~TZSuperShortString
EXTRN	?set_length@TZSuperShortString@@QAEEE@Z:PROC	; TZSuperShortString::set_length
EXTRN	?length@TZSuperShortString@@QBEEXZ:PROC		; TZSuperShortString::length
EXTRN	??ATZSuperShortString@@QAEAADE@Z:PROC		; TZSuperShortString::operator[]
EXTRN	??4TZSuperShortString@@QAEXABV0@@Z:PROC		; TZSuperShortString::operator=
EXTRN	??6@YAAAVTBinaryData@@AAV0@AAVTZSuperShortString@@@Z:PROC ; operator<<
EXTRN	??5@YAAAVTBinaryData@@AAV0@AAVTZSuperShortString@@@Z:PROC ; operator>>
EXTRN	??0TUIList@@QAE@XZ:PROC				; TUIList::TUIList
EXTRN	??1TUIList@@QAE@XZ:PROC				; TUIList::~TUIList
EXTRN	?GetSize@TUIList@@QBEIXZ:PROC			; TUIList::GetSize
EXTRN	?Reset@TUIList@@QAEXXZ:PROC			; TUIList::Reset
EXTRN	?Add@TUIList@@QAE_NI@Z:PROC			; TUIList::Add
EXTRN	?Delete@TUIList@@QAE_NI@Z:PROC			; TUIList::Delete
EXTRN	??ATUIList@@QAEAAII@Z:PROC			; TUIList::operator[]
EXTRN	?PostSysMessage@CSystemObject@@IAEXEEGI@Z:PROC	; CSystemObject::PostSysMessage
EXTRN	??0CThread@@QAE@_N@Z:PROC			; CThread::CThread
EXTRN	??1CThread@@UAE@XZ:PROC				; CThread::~CThread
EXTRN	??_ECSLWorkSet@@UAEPAXI@Z:PROC			; CSLWorkSet::`vector deleting destructor'
EXTRN	@_RTC_CheckStackVars@8:PROC
EXTRN	@__security_check_cookie@4:PROC
EXTRN	__CxxThrowException@8:PROC
EXTRN	__RTC_CheckEsp:PROC
EXTRN	__RTC_InitBase:PROC
EXTRN	__RTC_Shutdown:PROC
EXTRN	___CxxFrameHandler3:PROC
EXTRN	??_7type_info@@6B@:QWORD			; type_info::`vftable'
EXTRN	?FLOG@@3VCSysOut@@A:BYTE			; FLOG
EXTRN	___security_cookie:DWORD
;	COMDAT ?_OptionsStorage@?1??__local_stdio_printf_options@@9@4_KA
_BSS	SEGMENT
?_OptionsStorage@?1??__local_stdio_printf_options@@9@4_KA DQ 01H DUP (?) ; `__local_stdio_printf_options'::`2'::_OptionsStorage
_BSS	ENDS
;	COMDAT rtc$TMZ
rtc$TMZ	SEGMENT
__RTC_Shutdown.rtc$TMZ DD FLAT:__RTC_Shutdown
rtc$TMZ	ENDS
;	COMDAT rtc$IMZ
rtc$IMZ	SEGMENT
__RTC_InitBase.rtc$IMZ DD FLAT:__RTC_InitBase
rtc$IMZ	ENDS
;	COMDAT ??_R1A@?0A@EA@CSystemObject@@8
rdata$r	SEGMENT
??_R1A@?0A@EA@CSystemObject@@8 DD FLAT:??_R0?AVCSystemObject@@@8 ; CSystemObject::`RTTI Base Class Descriptor at (0,-1,0,64)'
	DD	00H
	DD	00H
	DD	0ffffffffH
	DD	00H
	DD	040H
	DD	FLAT:??_R3CSystemObject@@8
rdata$r	ENDS
;	COMDAT ??_R2CSystemObject@@8
rdata$r	SEGMENT
??_R2CSystemObject@@8 DD FLAT:??_R1A@?0A@EA@CSystemObject@@8 ; CSystemObject::`RTTI Base Class Array'
rdata$r	ENDS
;	COMDAT ??_R3CSystemObject@@8
rdata$r	SEGMENT
??_R3CSystemObject@@8 DD 00H				; CSystemObject::`RTTI Class Hierarchy Descriptor'
	DD	00H
	DD	01H
	DD	FLAT:??_R2CSystemObject@@8
rdata$r	ENDS
;	COMDAT ??_R0?AVCSystemObject@@@8
data$r	SEGMENT
??_R0?AVCSystemObject@@@8 DD FLAT:??_7type_info@@6B@	; CSystemObject `RTTI Type Descriptor'
	DD	00H
	DB	'.?AVCSystemObject@@', 00H
data$r	ENDS
;	COMDAT ??_R1BI@?0A@EN@CSystemObject@@8
rdata$r	SEGMENT
??_R1BI@?0A@EN@CSystemObject@@8 DD FLAT:??_R0?AVCSystemObject@@@8 ; CSystemObject::`RTTI Base Class Descriptor at (24,-1,0,77)'
	DD	00H
	DD	018H
	DD	0ffffffffH
	DD	00H
	DD	04dH
	DD	FLAT:??_R3CSystemObject@@8
rdata$r	ENDS
;	COMDAT ??_R2CThread@@8
rdata$r	SEGMENT
??_R2CThread@@8 DD FLAT:??_R1A@?0A@EA@CThread@@8	; CThread::`RTTI Base Class Array'
rdata$r	ENDS
;	COMDAT ??_R3CThread@@8
rdata$r	SEGMENT
??_R3CThread@@8 DD 00H					; CThread::`RTTI Class Hierarchy Descriptor'
	DD	00H
	DD	01H
	DD	FLAT:??_R2CThread@@8
rdata$r	ENDS
;	COMDAT ??_R0?AVCThread@@@8
data$r	SEGMENT
??_R0?AVCThread@@@8 DD FLAT:??_7type_info@@6B@		; CThread `RTTI Type Descriptor'
	DD	00H
	DB	'.?AVCThread@@', 00H
data$r	ENDS
;	COMDAT ??_R1A@?0A@EA@CThread@@8
rdata$r	SEGMENT
??_R1A@?0A@EA@CThread@@8 DD FLAT:??_R0?AVCThread@@@8	; CThread::`RTTI Base Class Descriptor at (0,-1,0,64)'
	DD	00H
	DD	00H
	DD	0ffffffffH
	DD	00H
	DD	040H
	DD	FLAT:??_R3CThread@@8
rdata$r	ENDS
;	COMDAT ??_R1A@?0A@EA@CSLWorkSet@@8
rdata$r	SEGMENT
??_R1A@?0A@EA@CSLWorkSet@@8 DD FLAT:??_R0?AVCSLWorkSet@@@8 ; CSLWorkSet::`RTTI Base Class Descriptor at (0,-1,0,64)'
	DD	02H
	DD	00H
	DD	0ffffffffH
	DD	00H
	DD	040H
	DD	FLAT:??_R3CSLWorkSet@@8
rdata$r	ENDS
;	COMDAT ??_R2CSLWorkSet@@8
rdata$r	SEGMENT
??_R2CSLWorkSet@@8 DD FLAT:??_R1A@?0A@EA@CSLWorkSet@@8	; CSLWorkSet::`RTTI Base Class Array'
	DD	FLAT:??_R1A@?0A@EA@CThread@@8
	DD	FLAT:??_R1BI@?0A@EN@CSystemObject@@8
rdata$r	ENDS
;	COMDAT ??_R3CSLWorkSet@@8
rdata$r	SEGMENT
??_R3CSLWorkSet@@8 DD 00H				; CSLWorkSet::`RTTI Class Hierarchy Descriptor'
	DD	01H
	DD	03H
	DD	FLAT:??_R2CSLWorkSet@@8
rdata$r	ENDS
;	COMDAT ??_R0?AVCSLWorkSet@@@8
data$r	SEGMENT
??_R0?AVCSLWorkSet@@@8 DD FLAT:??_7type_info@@6B@	; CSLWorkSet `RTTI Type Descriptor'
	DD	00H
	DB	'.?AVCSLWorkSet@@', 00H
data$r	ENDS
;	COMDAT ??_R4CSLWorkSet@@6B@
rdata$r	SEGMENT
??_R4CSLWorkSet@@6B@ DD 00H				; CSLWorkSet::`RTTI Complete Object Locator'
	DD	00H
	DD	00H
	DD	FLAT:??_R0?AVCSLWorkSet@@@8
	DD	FLAT:??_R3CSLWorkSet@@8
rdata$r	ENDS
;	COMDAT __CT??_R0?AVEObjectTooLong@?$TFixedSizeBinaryData@$0BAAA@@@@81
xdata$x	SEGMENT
__CT??_R0?AVEObjectTooLong@?$TFixedSizeBinaryData@$0BAAA@@@@81 DD 00H
	DD	FLAT:??_R0?AVEObjectTooLong@?$TFixedSizeBinaryData@$0BAAA@@@@8
	DD	00H
	DD	0ffffffffH
	ORG $+4
	DD	01H
	DD	00H
xdata$x	ENDS
;	COMDAT ??_R0?AVEObjectTooLong@?$TFixedSizeBinaryData@$0BAAA@@@@8
data$r	SEGMENT
??_R0?AVEObjectTooLong@?$TFixedSizeBinaryData@$0BAAA@@@@8 DD FLAT:??_7type_info@@6B@ ; TFixedSizeBinaryData<4096>::EObjectTooLong `RTTI Type Descriptor'
	DD	00H
	DB	'.?AVEObjectTooLong@?$TFixedSizeBinaryData@$0BAAA@@@', 00H
data$r	ENDS
;	COMDAT __CTA2?AVEObjectTooLong@?$TFixedSizeBinaryData@$0BAAA@@@
xdata$x	SEGMENT
__CTA2?AVEObjectTooLong@?$TFixedSizeBinaryData@$0BAAA@@@ DD 02H
	DD	FLAT:__CT??_R0?AVEObjectTooLong@?$TFixedSizeBinaryData@$0BAAA@@@@81
	DD	FLAT:__CT??_R0?AVEFSBDException@?$TFixedSizeBinaryData@$0BAAA@@@@81
xdata$x	ENDS
;	COMDAT __TI2?AVEObjectTooLong@?$TFixedSizeBinaryData@$0BAAA@@@
xdata$x	SEGMENT
__TI2?AVEObjectTooLong@?$TFixedSizeBinaryData@$0BAAA@@@ DD 00H
	DD	00H
	DD	00H
	DD	FLAT:__CTA2?AVEObjectTooLong@?$TFixedSizeBinaryData@$0BAAA@@@
xdata$x	ENDS
;	COMDAT __CT??_R0?AVEFSBDException@?$TFixedSizeBinaryData@$0BAAA@@@@81
xdata$x	SEGMENT
__CT??_R0?AVEFSBDException@?$TFixedSizeBinaryData@$0BAAA@@@@81 DD 00H
	DD	FLAT:??_R0?AVEFSBDException@?$TFixedSizeBinaryData@$0BAAA@@@@8
	DD	00H
	DD	0ffffffffH
	ORG $+4
	DD	01H
	DD	00H
xdata$x	ENDS
;	COMDAT ??_R0?AVEFSBDException@?$TFixedSizeBinaryData@$0BAAA@@@@8
data$r	SEGMENT
??_R0?AVEFSBDException@?$TFixedSizeBinaryData@$0BAAA@@@@8 DD FLAT:??_7type_info@@6B@ ; TFixedSizeBinaryData<4096>::EFSBDException `RTTI Type Descriptor'
	DD	00H
	DB	'.?AVEFSBDException@?$TFixedSizeBinaryData@$0BAAA@@@', 00H
data$r	ENDS
;	COMDAT __CT??_R0?AVENoDataForRead@?$TFixedSizeBinaryData@$0BAAA@@@@81
xdata$x	SEGMENT
__CT??_R0?AVENoDataForRead@?$TFixedSizeBinaryData@$0BAAA@@@@81 DD 00H
	DD	FLAT:??_R0?AVENoDataForRead@?$TFixedSizeBinaryData@$0BAAA@@@@8
	DD	00H
	DD	0ffffffffH
	ORG $+4
	DD	01H
	DD	00H
xdata$x	ENDS
;	COMDAT ??_R0?AVENoDataForRead@?$TFixedSizeBinaryData@$0BAAA@@@@8
data$r	SEGMENT
??_R0?AVENoDataForRead@?$TFixedSizeBinaryData@$0BAAA@@@@8 DD FLAT:??_7type_info@@6B@ ; TFixedSizeBinaryData<4096>::ENoDataForRead `RTTI Type Descriptor'
	DD	00H
	DB	'.?AVENoDataForRead@?$TFixedSizeBinaryData@$0BAAA@@@', 00H
data$r	ENDS
;	COMDAT __CTA2?AVENoDataForRead@?$TFixedSizeBinaryData@$0BAAA@@@
xdata$x	SEGMENT
__CTA2?AVENoDataForRead@?$TFixedSizeBinaryData@$0BAAA@@@ DD 02H
	DD	FLAT:__CT??_R0?AVENoDataForRead@?$TFixedSizeBinaryData@$0BAAA@@@@81
	DD	FLAT:__CT??_R0?AVEFSBDException@?$TFixedSizeBinaryData@$0BAAA@@@@81
xdata$x	ENDS
;	COMDAT __TI2?AVENoDataForRead@?$TFixedSizeBinaryData@$0BAAA@@@
xdata$x	SEGMENT
__TI2?AVENoDataForRead@?$TFixedSizeBinaryData@$0BAAA@@@ DD 00H
	DD	00H
	DD	00H
	DD	FLAT:__CTA2?AVENoDataForRead@?$TFixedSizeBinaryData@$0BAAA@@@
xdata$x	ENDS
;	COMDAT ??_C@_01LBDDMOBJ@?$FN?$AA@
CONST	SEGMENT
??_C@_01LBDDMOBJ@?$FN?$AA@ DB ']', 00H			; `string'
CONST	ENDS
;	COMDAT ??_C@_01LFCBOECM@?4?$AA@
CONST	SEGMENT
??_C@_01LFCBOECM@?4?$AA@ DB '.', 00H			; `string'
CONST	ENDS
;	COMDAT ??_C@_01FJMABOPO@x?$AA@
CONST	SEGMENT
??_C@_01FJMABOPO@x?$AA@ DB 'x', 00H			; `string'
CONST	ENDS
;	COMDAT ??_C@_0M@MKNJIHDK@SLST?9AMSC?5?$FL?$AA@
CONST	SEGMENT
??_C@_0M@MKNJIHDK@SLST?9AMSC?5?$FL?$AA@ DB 'SLST-AMSC [', 00H ; `string'
CONST	ENDS
;	COMDAT ??_C@_0O@NJDGMLDN@RING?5on?5line?5?$AA@
CONST	SEGMENT
??_C@_0O@NJDGMLDN@RING?5on?5line?5?$AA@ DB 'RING on line ', 00H ; `string'
CONST	ENDS
;	COMDAT ??_C@_0BH@NCEHHEAG@Exception?5in?5SLWorkSet?$AA@
CONST	SEGMENT
??_C@_0BH@NCEHHEAG@Exception?5in?5SLWorkSet?$AA@ DB 'Exception in SLWorkS'
	DB	'et', 00H					; `string'
CONST	ENDS
;	COMDAT ??_C@_0BB@MFLPPJFO@Start?5CSLWorkSet?$AA@
CONST	SEGMENT
??_C@_0BB@MFLPPJFO@Start?5CSLWorkSet?$AA@ DB 'Start CSLWorkSet', 00H ; `string'
CONST	ENDS
;	COMDAT ??_C@_01CLKCMJKC@?5?$AA@
CONST	SEGMENT
??_C@_01CLKCMJKC@?5?$AA@ DB ' ', 00H			; `string'
CONST	ENDS
;	COMDAT ??_C@_0L@DGABMHCA@CHECK?5SL?3?5?$AA@
CONST	SEGMENT
??_C@_0L@DGABMHCA@CHECK?5SL?3?5?$AA@ DB 'CHECK SL: ', 00H ; `string'
CONST	ENDS
;	COMDAT ??_C@_06DOIGOPEC@?9SS11?$DN?$AA@
CONST	SEGMENT
??_C@_06DOIGOPEC@?9SS11?$DN?$AA@ DB '-SS11=', 00H	; `string'
CONST	ENDS
;	COMDAT ??_C@_06JHALPDKH@?9SS33?$DN?$AA@
CONST	SEGMENT
??_C@_06JHALPDKH@?9SS33?$DN?$AA@ DB '-SS33=', 00H	; `string'
CONST	ENDS
;	COMDAT ??_C@_06COHFPOPF@?9SS22?$DN?$AA@
CONST	SEGMENT
??_C@_06COHFPOPF@?9SS22?$DN?$AA@ DB '-SS22=', 00H	; `string'
CONST	ENDS
;	COMDAT ??_C@_0N@PFLAKKKN@?9RR?$CFX?$CFX?$CFX?$CFX?$DN?$AA@
CONST	SEGMENT
??_C@_0N@PFLAKKKN@?9RR?$CFX?$CFX?$CFX?$CFX?$DN?$AA@ DB '-RR%X%X%X%X=', 00H ; `string'
CONST	ENDS
;	COMDAT ??_C@_0N@LBLKIHIO@?9KK?$CFX?$CFX?$CFX?$CFX?$DN?$AA@
CONST	SEGMENT
??_C@_0N@LBLKIHIO@?9KK?$CFX?$CFX?$CFX?$CFX?$DN?$AA@ DB '-KK%X%X%X%X=', 00H ; `string'
CONST	ENDS
;	COMDAT ??_C@_09CJNDAKDF@?2?2?4?2COM28?$AA@
CONST	SEGMENT
??_C@_09CJNDAKDF@?2?2?4?2COM28?$AA@ DB '\\.\COM28', 00H	; `string'
CONST	ENDS
;	COMDAT ??_7CSLWorkSet@@6B@
CONST	SEGMENT
??_7CSLWorkSet@@6B@ DD FLAT:??_R4CSLWorkSet@@6B@	; CSLWorkSet::`vftable'
	DD	FLAT:??_ECSLWorkSet@@UAEPAXI@Z
	DD	FLAT:?Execute@CSLWorkSet@@MAEXXZ
CONST	ENDS
;	COMDAT xdata$x
xdata$x	SEGMENT
__ehfuncinfo$??1?$TCSPtrQueue@VTZSuperShortString@@@@QAE@XZ DD 019930522H
	DD	00H
	DD	00H
	DD	2 DUP(00H)
	DD	2 DUP(00H)
	DD	00H
	DD	05H
xdata$x	ENDS
;	COMDAT xdata$x
xdata$x	SEGMENT
__catchsym$?Execute@CSLWorkSet@@MAEXXZ$4 DD 040H
	DD	00H
	DD	00H
	DD	FLAT:__catch$?Execute@CSLWorkSet@@MAEXXZ$0
__tryblocktable$?Execute@CSLWorkSet@@MAEXXZ DD 01H
	DD	02H
	DD	03H
	DD	01H
	DD	FLAT:__catchsym$?Execute@CSLWorkSet@@MAEXXZ$4
__unwindtable$?Execute@CSLWorkSet@@MAEXXZ DD 0ffffffffH
	DD	FLAT:__unwindfunclet$?Execute@CSLWorkSet@@MAEXXZ$2
	DD	00H
	DD	00H
	DD	01H
	DD	FLAT:__unwindfunclet$?Execute@CSLWorkSet@@MAEXXZ$3
	DD	00H
	DD	00H
__ehfuncinfo$?Execute@CSLWorkSet@@MAEXXZ DD 019930522H
	DD	04H
	DD	FLAT:__unwindtable$?Execute@CSLWorkSet@@MAEXXZ
	DD	01H
	DD	FLAT:__tryblocktable$?Execute@CSLWorkSet@@MAEXXZ
	DD	2 DUP(00H)
	DD	00H
	DD	01H
xdata$x	ENDS
;	COMDAT xdata$x
xdata$x	SEGMENT
__unwindtable$?RequestRMsState@CSLWorkSet@@QAEXXZ DD 0ffffffffH
	DD	FLAT:__unwindfunclet$?RequestRMsState@CSLWorkSet@@QAEXXZ$0
__ehfuncinfo$?RequestRMsState@CSLWorkSet@@QAEXXZ DD 019930522H
	DD	01H
	DD	FLAT:__unwindtable$?RequestRMsState@CSLWorkSet@@QAEXXZ
	DD	2 DUP(00H)
	DD	2 DUP(00H)
	DD	00H
	DD	01H
xdata$x	ENDS
;	COMDAT xdata$x
xdata$x	SEGMENT
__unwindtable$?RequestSLsState@CSLWorkSet@@QAEXXZ DD 0ffffffffH
	DD	FLAT:__unwindfunclet$?RequestSLsState@CSLWorkSet@@QAEXXZ$0
	DD	0ffffffffH
	DD	FLAT:__unwindfunclet$?RequestSLsState@CSLWorkSet@@QAEXXZ$1
__ehfuncinfo$?RequestSLsState@CSLWorkSet@@QAEXXZ DD 019930522H
	DD	02H
	DD	FLAT:__unwindtable$?RequestSLsState@CSLWorkSet@@QAEXXZ
	DD	2 DUP(00H)
	DD	2 DUP(00H)
	DD	00H
	DD	01H
xdata$x	ENDS
;	COMDAT xdata$x
xdata$x	SEGMENT
__unwindtable$?SetRMState@CSLWorkSet@@QAEXII@Z DD 0ffffffffH
	DD	FLAT:__unwindfunclet$?SetRMState@CSLWorkSet@@QAEXII@Z$0
__ehfuncinfo$?SetRMState@CSLWorkSet@@QAEXII@Z DD 019930522H
	DD	01H
	DD	FLAT:__unwindtable$?SetRMState@CSLWorkSet@@QAEXII@Z
	DD	2 DUP(00H)
	DD	2 DUP(00H)
	DD	00H
	DD	01H
xdata$x	ENDS
;	COMDAT xdata$x
xdata$x	SEGMENT
__unwindtable$?SetSLState@CSLWorkSet@@QAEXII@Z DD 0ffffffffH
	DD	FLAT:__unwindfunclet$?SetSLState@CSLWorkSet@@QAEXII@Z$0
__ehfuncinfo$?SetSLState@CSLWorkSet@@QAEXII@Z DD 019930522H
	DD	01H
	DD	FLAT:__unwindtable$?SetSLState@CSLWorkSet@@QAEXII@Z
	DD	2 DUP(00H)
	DD	2 DUP(00H)
	DD	00H
	DD	01H
xdata$x	ENDS
;	COMDAT xdata$x
xdata$x	SEGMENT
__ehfuncinfo$??1CSLWorkSet@@UAE@XZ DD 019930522H
	DD	00H
	DD	00H
	DD	2 DUP(00H)
	DD	2 DUP(00H)
	DD	00H
	DD	05H
xdata$x	ENDS
;	COMDAT xdata$x
xdata$x	SEGMENT
__ehfuncinfo$??0CSLWorkSet@@QAE@_N@Z DD 019930522H
	DD	05H
	DD	FLAT:__unwindtable$??0CSLWorkSet@@QAE@_N@Z
	DD	2 DUP(00H)
	DD	2 DUP(00H)
	DD	00H
	DD	01H
__unwindtable$??0CSLWorkSet@@QAE@_N@Z DD 0ffffffffH
	DD	FLAT:__unwindfunclet$??0CSLWorkSet@@QAE@_N@Z$0
	DD	00H
	DD	FLAT:__unwindfunclet$??0CSLWorkSet@@QAE@_N@Z$1
	DD	01H
	DD	FLAT:__unwindfunclet$??0CSLWorkSet@@QAE@_N@Z$2
	DD	02H
	DD	FLAT:__unwindfunclet$??0CSLWorkSet@@QAE@_N@Z$3
	DD	03H
	DD	FLAT:__unwindfunclet$??0CSLWorkSet@@QAE@_N@Z$4
xdata$x	ENDS
;	COMDAT xdata$x
xdata$x	SEGMENT
__unwindtable$?GetCommand@HCharBuffer@@QAE?AVTZSuperShortString@@XZ DD 0ffffffffH
	DD	FLAT:__unwindfunclet$?GetCommand@HCharBuffer@@QAE?AVTZSuperShortString@@XZ$1
	DD	00H
	DD	FLAT:__unwindfunclet$?GetCommand@HCharBuffer@@QAE?AVTZSuperShortString@@XZ$2
__ehfuncinfo$?GetCommand@HCharBuffer@@QAE?AVTZSuperShortString@@XZ DD 019930522H
	DD	02H
	DD	FLAT:__unwindtable$?GetCommand@HCharBuffer@@QAE?AVTZSuperShortString@@XZ
	DD	2 DUP(00H)
	DD	2 DUP(00H)
	DD	00H
	DD	01H
xdata$x	ENDS
; Function compile flags: /Odtp /RTCsu /ZI
; File c:\users\smith\projects\callcenter\tzssstring.h
;	COMDAT ??$?5$0BAAA@@@YAAAV?$TFixedSizeBinaryData@$0BAAA@@@AAV0@AAVTZSuperShortString@@@Z
_TEXT	SEGMENT
_size$ = -5						; size = 1
_s$ = 8							; size = 4
_Value$ = 12						; size = 4
??$?5$0BAAA@@@YAAAV?$TFixedSizeBinaryData@$0BAAA@@@AAV0@AAVTZSuperShortString@@@Z PROC ; operator>><4096>, COMDAT

; 76   : {

	push	ebp
	mov	ebp, esp
	sub	esp, 204				; 000000ccH
	push	ebx
	push	esi
	push	edi
	lea	edi, DWORD PTR [ebp-204]
	mov	ecx, 51					; 00000033H
	mov	eax, -858993460				; ccccccccH
	rep stosd

; 77   : unsigned __int8 size;
; 78   : 	s.ReadDataTo((void *)&size, sizeof(size));

	push	1
	lea	eax, DWORD PTR _size$[ebp]
	push	eax
	mov	ecx, DWORD PTR _s$[ebp]
	call	?ReadDataTo@?$TFixedSizeBinaryData@$0BAAA@@@QAEXPAXI@Z ; TFixedSizeBinaryData<4096>::ReadDataTo

; 79   : 	Value.set_length(size);

	movzx	eax, BYTE PTR _size$[ebp]
	push	eax
	mov	ecx, DWORD PTR _Value$[ebp]
	call	?set_length@TZSuperShortString@@QAEEE@Z	; TZSuperShortString::set_length

; 80   : 	s.ReadDataTo((void *)Value.c_str(), size);

	movzx	eax, BYTE PTR _size$[ebp]
	push	eax
	mov	ecx, DWORD PTR _Value$[ebp]
	call	?c_str@TZSuperShortString@@QBEPBDXZ	; TZSuperShortString::c_str
	push	eax
	mov	ecx, DWORD PTR _s$[ebp]
	call	?ReadDataTo@?$TFixedSizeBinaryData@$0BAAA@@@QAEXPAXI@Z ; TFixedSizeBinaryData<4096>::ReadDataTo

; 81   : 	return s;

	mov	eax, DWORD PTR _s$[ebp]

; 82   : };

	push	edx
	mov	ecx, ebp
	push	eax
	lea	edx, DWORD PTR $LN5@operator
	call	@_RTC_CheckStackVars@8
	pop	eax
	pop	edx
	pop	edi
	pop	esi
	pop	ebx
	add	esp, 204				; 000000ccH
	cmp	ebp, esp
	call	__RTC_CheckEsp
	mov	esp, ebp
	pop	ebp
	ret	0
	npad	1
$LN5@operator:
	DD	1
	DD	$LN4@operator
$LN4@operator:
	DD	-5					; fffffffbH
	DD	1
	DD	$LN3@operator
$LN3@operator:
	DB	115					; 00000073H
	DB	105					; 00000069H
	DB	122					; 0000007aH
	DB	101					; 00000065H
	DB	0
??$?5$0BAAA@@@YAAAV?$TFixedSizeBinaryData@$0BAAA@@@AAV0@AAVTZSuperShortString@@@Z ENDP ; operator>><4096>
_TEXT	ENDS
; Function compile flags: /Odtp /RTCsu /ZI
; File c:\users\smith\projects\callcenter\tzssstring.h
;	COMDAT ??$?6$0BAAA@@@YAAAV?$TFixedSizeBinaryData@$0BAAA@@@AAV0@AAVTZSuperShortString@@@Z
_TEXT	SEGMENT
_size$ = -5						; size = 1
_s$ = 8							; size = 4
_Value$ = 12						; size = 4
??$?6$0BAAA@@@YAAAV?$TFixedSizeBinaryData@$0BAAA@@@AAV0@AAVTZSuperShortString@@@Z PROC ; operator<<<4096>, COMDAT

; 66   : {

	push	ebp
	mov	ebp, esp
	sub	esp, 204				; 000000ccH
	push	ebx
	push	esi
	push	edi
	lea	edi, DWORD PTR [ebp-204]
	mov	ecx, 51					; 00000033H
	mov	eax, -858993460				; ccccccccH
	rep stosd

; 67   : unsigned __int8 size;
; 68   : 	size = Value.length();

	mov	ecx, DWORD PTR _Value$[ebp]
	call	?length@TZSuperShortString@@QBEEXZ	; TZSuperShortString::length
	mov	BYTE PTR _size$[ebp], al

; 69   : 	s.WriteDataFrom((void *)&size, sizeof(size));

	push	1
	lea	eax, DWORD PTR _size$[ebp]
	push	eax
	mov	ecx, DWORD PTR _s$[ebp]
	call	?WriteDataFrom@?$TFixedSizeBinaryData@$0BAAA@@@QAEXPAXI@Z ; TFixedSizeBinaryData<4096>::WriteDataFrom

; 70   : 	s.WriteDataFrom((void *)Value.c_str(), size);

	movzx	eax, BYTE PTR _size$[ebp]
	push	eax
	mov	ecx, DWORD PTR _Value$[ebp]
	call	?c_str@TZSuperShortString@@QBEPBDXZ	; TZSuperShortString::c_str
	push	eax
	mov	ecx, DWORD PTR _s$[ebp]
	call	?WriteDataFrom@?$TFixedSizeBinaryData@$0BAAA@@@QAEXPAXI@Z ; TFixedSizeBinaryData<4096>::WriteDataFrom

; 71   : 	return s;

	mov	eax, DWORD PTR _s$[ebp]

; 72   : };

	push	edx
	mov	ecx, ebp
	push	eax
	lea	edx, DWORD PTR $LN5@operator
	call	@_RTC_CheckStackVars@8
	pop	eax
	pop	edx
	pop	edi
	pop	esi
	pop	ebx
	add	esp, 204				; 000000ccH
	cmp	ebp, esp
	call	__RTC_CheckEsp
	mov	esp, ebp
	pop	ebp
	ret	0
	npad	3
$LN5@operator:
	DD	1
	DD	$LN4@operator
$LN4@operator:
	DD	-5					; fffffffbH
	DD	1
	DD	$LN3@operator
$LN3@operator:
	DB	115					; 00000073H
	DB	105					; 00000069H
	DB	122					; 0000007aH
	DB	101					; 00000065H
	DB	0
??$?6$0BAAA@@@YAAAV?$TFixedSizeBinaryData@$0BAAA@@@AAV0@AAVTZSuperShortString@@@Z ENDP ; operator<<<4096>
_TEXT	ENDS
; Function compile flags: /Odtp /RTCsu /ZI
; File c:\users\smith\projects\callcenter\tfixedsizebinarydata.hxx
;	COMDAT ?ReadDataTo@?$TFixedSizeBinaryData@$0BAAA@@@QAEXPAXI@Z
_TEXT	SEGMENT
_this$ = -8						; size = 4
_ptr$ = 8						; size = 4
_sz$ = 12						; size = 4
?ReadDataTo@?$TFixedSizeBinaryData@$0BAAA@@@QAEXPAXI@Z PROC ; TFixedSizeBinaryData<4096>::ReadDataTo, COMDAT
; _this$ = ecx

; 83   : 	void ReadDataTo(void *ptr, unsigned __int32 sz) { __readto(ptr, sz); };

	push	ebp
	mov	ebp, esp
	sub	esp, 204				; 000000ccH
	push	ebx
	push	esi
	push	edi
	push	ecx
	lea	edi, DWORD PTR [ebp-204]
	mov	ecx, 51					; 00000033H
	mov	eax, -858993460				; ccccccccH
	rep stosd
	pop	ecx
	mov	DWORD PTR _this$[ebp], ecx
	mov	eax, DWORD PTR _sz$[ebp]
	push	eax
	mov	ecx, DWORD PTR _ptr$[ebp]
	push	ecx
	mov	ecx, DWORD PTR _this$[ebp]
	call	?__readto@?$TFixedSizeBinaryData@$0BAAA@@@AAEXPAXI@Z ; TFixedSizeBinaryData<4096>::__readto
	pop	edi
	pop	esi
	pop	ebx
	add	esp, 204				; 000000ccH
	cmp	ebp, esp
	call	__RTC_CheckEsp
	mov	esp, ebp
	pop	ebp
	ret	8
?ReadDataTo@?$TFixedSizeBinaryData@$0BAAA@@@QAEXPAXI@Z ENDP ; TFixedSizeBinaryData<4096>::ReadDataTo
_TEXT	ENDS
; Function compile flags: /Odtp /RTCsu /ZI
; File c:\users\smith\projects\callcenter\tfixedsizebinarydata.hxx
;	COMDAT ?WriteDataFrom@?$TFixedSizeBinaryData@$0BAAA@@@QAEXPAXI@Z
_TEXT	SEGMENT
_this$ = -8						; size = 4
_ptr$ = 8						; size = 4
_sz$ = 12						; size = 4
?WriteDataFrom@?$TFixedSizeBinaryData@$0BAAA@@@QAEXPAXI@Z PROC ; TFixedSizeBinaryData<4096>::WriteDataFrom, COMDAT
; _this$ = ecx

; 82   : 	void WriteDataFrom(void *ptr, unsigned __int32 sz) { __writefrom(ptr, sz); };

	push	ebp
	mov	ebp, esp
	sub	esp, 204				; 000000ccH
	push	ebx
	push	esi
	push	edi
	push	ecx
	lea	edi, DWORD PTR [ebp-204]
	mov	ecx, 51					; 00000033H
	mov	eax, -858993460				; ccccccccH
	rep stosd
	pop	ecx
	mov	DWORD PTR _this$[ebp], ecx
	mov	eax, DWORD PTR _sz$[ebp]
	push	eax
	mov	ecx, DWORD PTR _ptr$[ebp]
	push	ecx
	mov	ecx, DWORD PTR _this$[ebp]
	call	?__writefrom@?$TFixedSizeBinaryData@$0BAAA@@@AAEXPAXI@Z ; TFixedSizeBinaryData<4096>::__writefrom
	pop	edi
	pop	esi
	pop	ebx
	add	esp, 204				; 000000ccH
	cmp	ebp, esp
	call	__RTC_CheckEsp
	mov	esp, ebp
	pop	ebp
	ret	8
?WriteDataFrom@?$TFixedSizeBinaryData@$0BAAA@@@QAEXPAXI@Z ENDP ; TFixedSizeBinaryData<4096>::WriteDataFrom
_TEXT	ENDS
; Function compile flags: /Odtp /RTCsu /ZI
; File c:\users\smith\projects\callcenter\tfixedsizebinarydata.hxx
;	COMDAT ??5?$TFixedSizeBinaryData@$0BAAA@@@QAEAAV0@AAI@Z
_TEXT	SEGMENT
_this$ = -8						; size = 4
_Value$ = 8						; size = 4
??5?$TFixedSizeBinaryData@$0BAAA@@@QAEAAV0@AAI@Z PROC	; TFixedSizeBinaryData<4096>::operator>>, COMDAT
; _this$ = ecx

; 70   : 	TFSBD_OPERATORRSH(unsigned int);

	push	ebp
	mov	ebp, esp
	sub	esp, 204				; 000000ccH
	push	ebx
	push	esi
	push	edi
	push	ecx
	lea	edi, DWORD PTR [ebp-204]
	mov	ecx, 51					; 00000033H
	mov	eax, -858993460				; ccccccccH
	rep stosd
	pop	ecx
	mov	DWORD PTR _this$[ebp], ecx
	push	4
	mov	eax, DWORD PTR _Value$[ebp]
	push	eax
	mov	ecx, DWORD PTR _this$[ebp]
	call	?__readto@?$TFixedSizeBinaryData@$0BAAA@@@AAEXPAXI@Z ; TFixedSizeBinaryData<4096>::__readto
	mov	eax, DWORD PTR _this$[ebp]
	pop	edi
	pop	esi
	pop	ebx
	add	esp, 204				; 000000ccH
	cmp	ebp, esp
	call	__RTC_CheckEsp
	mov	esp, ebp
	pop	ebp
	ret	4
??5?$TFixedSizeBinaryData@$0BAAA@@@QAEAAV0@AAI@Z ENDP	; TFixedSizeBinaryData<4096>::operator>>
_TEXT	ENDS
; Function compile flags: /Odtp /RTCsu /ZI
; File c:\users\smith\projects\callcenter\tfixedsizebinarydata.hxx
;	COMDAT ??6?$TFixedSizeBinaryData@$0BAAA@@@QAEAAV0@ABI@Z
_TEXT	SEGMENT
_this$ = -8						; size = 4
_Value$ = 8						; size = 4
??6?$TFixedSizeBinaryData@$0BAAA@@@QAEAAV0@ABI@Z PROC	; TFixedSizeBinaryData<4096>::operator<<, COMDAT
; _this$ = ecx

; 54   : 	TFSBD_OPERATORLSH(const unsigned int);

	push	ebp
	mov	ebp, esp
	sub	esp, 204				; 000000ccH
	push	ebx
	push	esi
	push	edi
	push	ecx
	lea	edi, DWORD PTR [ebp-204]
	mov	ecx, 51					; 00000033H
	mov	eax, -858993460				; ccccccccH
	rep stosd
	pop	ecx
	mov	DWORD PTR _this$[ebp], ecx
	push	4
	mov	eax, DWORD PTR _Value$[ebp]
	push	eax
	mov	ecx, DWORD PTR _this$[ebp]
	call	?__writefrom@?$TFixedSizeBinaryData@$0BAAA@@@AAEXPAXI@Z ; TFixedSizeBinaryData<4096>::__writefrom
	mov	eax, DWORD PTR _this$[ebp]
	pop	edi
	pop	esi
	pop	ebx
	add	esp, 204				; 000000ccH
	cmp	ebp, esp
	call	__RTC_CheckEsp
	mov	esp, ebp
	pop	ebp
	ret	4
??6?$TFixedSizeBinaryData@$0BAAA@@@QAEAAV0@ABI@Z ENDP	; TFixedSizeBinaryData<4096>::operator<<
_TEXT	ENDS
; Function compile flags: /Odtp /RTCsu /ZI
; File c:\users\smith\projects\callcenter\tfixedsizebinarydata.hxx
;	COMDAT ?__readto@?$TFixedSizeBinaryData@$0BAAA@@@AAEXPAXI@Z
_TEXT	SEGMENT
$T1 = -209						; size = 1
_this$ = -8						; size = 4
_ptr$ = 8						; size = 4
_sz$ = 12						; size = 4
?__readto@?$TFixedSizeBinaryData@$0BAAA@@@AAEXPAXI@Z PROC ; TFixedSizeBinaryData<4096>::__readto, COMDAT
; _this$ = ecx

; 30   : 	inline void __readto(void * ptr, unsigned int sz) { if (curpos+sz>size) throw ENoDataForRead(); memcpy(ptr, &data[curpos], sz); curpos+=sz;};

	push	ebp
	mov	ebp, esp
	sub	esp, 216				; 000000d8H
	push	ebx
	push	esi
	push	edi
	push	ecx
	lea	edi, DWORD PTR [ebp-216]
	mov	ecx, 54					; 00000036H
	mov	eax, -858993460				; ccccccccH
	rep stosd
	pop	ecx
	mov	DWORD PTR _this$[ebp], ecx
	mov	eax, DWORD PTR _this$[ebp]
	mov	ecx, DWORD PTR [eax+4100]
	add	ecx, DWORD PTR _sz$[ebp]
	mov	edx, DWORD PTR _this$[ebp]
	cmp	ecx, DWORD PTR [edx+4104]
	jbe	SHORT $LN2@readto
	push	OFFSET __TI2?AVENoDataForRead@?$TFixedSizeBinaryData@$0BAAA@@@
	lea	eax, DWORD PTR $T1[ebp]
	push	eax
	call	__CxxThrowException@8
$LN2@readto:
	mov	eax, DWORD PTR _sz$[ebp]
	push	eax
	mov	ecx, DWORD PTR _this$[ebp]
	mov	edx, DWORD PTR [ecx+4100]
	mov	eax, DWORD PTR _this$[ebp]
	lea	ecx, DWORD PTR [eax+edx+4]
	push	ecx
	mov	edx, DWORD PTR _ptr$[ebp]
	push	edx
	call	_memcpy
	add	esp, 12					; 0000000cH
	mov	eax, DWORD PTR _this$[ebp]
	mov	ecx, DWORD PTR [eax+4100]
	add	ecx, DWORD PTR _sz$[ebp]
	mov	edx, DWORD PTR _this$[ebp]
	mov	DWORD PTR [edx+4100], ecx
$LN3@readto:
	pop	edi
	pop	esi
	pop	ebx
	add	esp, 216				; 000000d8H
	cmp	ebp, esp
	call	__RTC_CheckEsp
	mov	esp, ebp
	pop	ebp
	ret	8
?__readto@?$TFixedSizeBinaryData@$0BAAA@@@AAEXPAXI@Z ENDP ; TFixedSizeBinaryData<4096>::__readto
_TEXT	ENDS
; Function compile flags: /Odtp /RTCsu /ZI
; File c:\users\smith\projects\callcenter\tfixedsizebinarydata.hxx
;	COMDAT ?__writefrom@?$TFixedSizeBinaryData@$0BAAA@@@AAEXPAXI@Z
_TEXT	SEGMENT
$T1 = -209						; size = 1
_this$ = -8						; size = 4
_ptr$ = 8						; size = 4
_sz$ = 12						; size = 4
?__writefrom@?$TFixedSizeBinaryData@$0BAAA@@@AAEXPAXI@Z PROC ; TFixedSizeBinaryData<4096>::__writefrom, COMDAT
; _this$ = ecx

; 29   : 	inline void __writefrom(void * ptr, unsigned int sz) { if (curpos+sz>SEGSIZE) throw EObjectTooLong(); memcpy(&data[curpos], ptr, sz); curpos+=sz; size+=sz;};

	push	ebp
	mov	ebp, esp
	sub	esp, 216				; 000000d8H
	push	ebx
	push	esi
	push	edi
	push	ecx
	lea	edi, DWORD PTR [ebp-216]
	mov	ecx, 54					; 00000036H
	mov	eax, -858993460				; ccccccccH
	rep stosd
	pop	ecx
	mov	DWORD PTR _this$[ebp], ecx
	mov	eax, DWORD PTR _this$[ebp]
	mov	ecx, DWORD PTR [eax+4100]
	add	ecx, DWORD PTR _sz$[ebp]
	cmp	ecx, 4096				; 00001000H
	jbe	SHORT $LN2@writefrom
	push	OFFSET __TI2?AVEObjectTooLong@?$TFixedSizeBinaryData@$0BAAA@@@
	lea	eax, DWORD PTR $T1[ebp]
	push	eax
	call	__CxxThrowException@8
$LN2@writefrom:
	mov	eax, DWORD PTR _sz$[ebp]
	push	eax
	mov	ecx, DWORD PTR _ptr$[ebp]
	push	ecx
	mov	edx, DWORD PTR _this$[ebp]
	mov	eax, DWORD PTR [edx+4100]
	mov	ecx, DWORD PTR _this$[ebp]
	lea	edx, DWORD PTR [ecx+eax+4]
	push	edx
	call	_memcpy
	add	esp, 12					; 0000000cH
	mov	eax, DWORD PTR _this$[ebp]
	mov	ecx, DWORD PTR [eax+4100]
	add	ecx, DWORD PTR _sz$[ebp]
	mov	edx, DWORD PTR _this$[ebp]
	mov	DWORD PTR [edx+4100], ecx
	mov	eax, DWORD PTR _this$[ebp]
	mov	ecx, DWORD PTR [eax+4104]
	add	ecx, DWORD PTR _sz$[ebp]
	mov	edx, DWORD PTR _this$[ebp]
	mov	DWORD PTR [edx+4104], ecx
$LN3@writefrom:
	pop	edi
	pop	esi
	pop	ebx
	add	esp, 216				; 000000d8H
	cmp	ebp, esp
	call	__RTC_CheckEsp
	mov	esp, ebp
	pop	ebp
	ret	8
?__writefrom@?$TFixedSizeBinaryData@$0BAAA@@@AAEXPAXI@Z ENDP ; TFixedSizeBinaryData<4096>::__writefrom
_TEXT	ENDS
; Function compile flags: /Odtp /RTCsu /ZI
;	COMDAT ??_GCSLWorkSet@@UAEPAXI@Z
_TEXT	SEGMENT
_this$ = -8						; size = 4
___flags$ = 8						; size = 4
??_GCSLWorkSet@@UAEPAXI@Z PROC				; CSLWorkSet::`scalar deleting destructor', COMDAT
; _this$ = ecx
	push	ebp
	mov	ebp, esp
	sub	esp, 204				; 000000ccH
	push	ebx
	push	esi
	push	edi
	push	ecx
	lea	edi, DWORD PTR [ebp-204]
	mov	ecx, 51					; 00000033H
	mov	eax, -858993460				; ccccccccH
	rep stosd
	pop	ecx
	mov	DWORD PTR _this$[ebp], ecx
	mov	ecx, DWORD PTR _this$[ebp]
	call	??1CSLWorkSet@@UAE@XZ			; CSLWorkSet::~CSLWorkSet
	mov	eax, DWORD PTR ___flags$[ebp]
	and	eax, 1
	je	SHORT $LN2@scalar
	push	644					; 00000284H
	mov	eax, DWORD PTR _this$[ebp]
	push	eax
	call	??3@YAXPAXI@Z				; operator delete
	add	esp, 8
$LN2@scalar:
	mov	eax, DWORD PTR _this$[ebp]
	pop	edi
	pop	esi
	pop	ebx
	add	esp, 204				; 000000ccH
	cmp	ebp, esp
	call	__RTC_CheckEsp
	mov	esp, ebp
	pop	ebp
	ret	4
??_GCSLWorkSet@@UAEPAXI@Z ENDP				; CSLWorkSet::`scalar deleting destructor'
_TEXT	ENDS
; Function compile flags: /Odtp /RTCsu /ZI
; File c:\users\smith\projects\callcenter\tuilist.h
;	COMDAT ??1?$TCSPtrQueue@VTZSuperShortString@@@@QAE@XZ
_TEXT	SEGMENT
_this$ = -20						; size = 4
__$EHRec$ = -12						; size = 12
??1?$TCSPtrQueue@VTZSuperShortString@@@@QAE@XZ PROC	; TCSPtrQueue<TZSuperShortString>::~TCSPtrQueue<TZSuperShortString>, COMDAT
; _this$ = ecx

; 155  : 	~TCSPtrQueue() { Reset(); DeleteCriticalSection(&CS); };

	push	ebp
	mov	ebp, esp
	push	-1
	push	__ehhandler$??1?$TCSPtrQueue@VTZSuperShortString@@@@QAE@XZ
	mov	eax, DWORD PTR fs:0
	push	eax
	sub	esp, 204				; 000000ccH
	push	ebx
	push	esi
	push	edi
	push	ecx
	lea	edi, DWORD PTR [ebp-216]
	mov	ecx, 51					; 00000033H
	mov	eax, -858993460				; ccccccccH
	rep stosd
	pop	ecx
	mov	eax, DWORD PTR ___security_cookie
	xor	eax, ebp
	push	eax
	lea	eax, DWORD PTR __$EHRec$[ebp]
	mov	DWORD PTR fs:0, eax
	mov	DWORD PTR _this$[ebp], ecx
	mov	ecx, DWORD PTR _this$[ebp]
	call	?Reset@?$TCSPtrQueue@VTZSuperShortString@@@@QAEXXZ ; TCSPtrQueue<TZSuperShortString>::Reset
	mov	eax, DWORD PTR _this$[ebp]
	add	eax, 12					; 0000000cH
	mov	esi, esp
	push	eax
	call	DWORD PTR __imp__DeleteCriticalSection@4
	cmp	esi, esp
	call	__RTC_CheckEsp
	mov	ecx, DWORD PTR _this$[ebp]
	call	??1TUIList@@QAE@XZ			; TUIList::~TUIList
	mov	ecx, DWORD PTR __$EHRec$[ebp]
	mov	DWORD PTR fs:0, ecx
	pop	ecx
	pop	edi
	pop	esi
	pop	ebx
	add	esp, 216				; 000000d8H
	cmp	ebp, esp
	call	__RTC_CheckEsp
	mov	esp, ebp
	pop	ebp
	ret	0
_TEXT	ENDS
;	COMDAT text$x
text$x	SEGMENT
__ehhandler$??1?$TCSPtrQueue@VTZSuperShortString@@@@QAE@XZ:
	mov	edx, DWORD PTR [esp+8]
	lea	eax, DWORD PTR [edx+12]
	mov	ecx, DWORD PTR [edx-220]
	xor	ecx, eax
	call	@__security_check_cookie@4
	mov	eax, OFFSET __ehfuncinfo$??1?$TCSPtrQueue@VTZSuperShortString@@@@QAE@XZ
	jmp	___CxxFrameHandler3
text$x	ENDS
??1?$TCSPtrQueue@VTZSuperShortString@@@@QAE@XZ ENDP	; TCSPtrQueue<TZSuperShortString>::~TCSPtrQueue<TZSuperShortString>
; Function compile flags: /Odtp /RTCsu /ZI
; File c:\users\smith\projects\callcenter\tuilist.h
;	COMDAT ??0?$TCSPtrQueue@VTZSuperShortString@@@@QAE@XZ
_TEXT	SEGMENT
_this$ = -8						; size = 4
??0?$TCSPtrQueue@VTZSuperShortString@@@@QAE@XZ PROC	; TCSPtrQueue<TZSuperShortString>::TCSPtrQueue<TZSuperShortString>, COMDAT
; _this$ = ecx

; 154  : 	TCSPtrQueue() { InitializeCriticalSection(&CS); };

	push	ebp
	mov	ebp, esp
	sub	esp, 204				; 000000ccH
	push	ebx
	push	esi
	push	edi
	push	ecx
	lea	edi, DWORD PTR [ebp-204]
	mov	ecx, 51					; 00000033H
	mov	eax, -858993460				; ccccccccH
	rep stosd
	pop	ecx
	mov	DWORD PTR _this$[ebp], ecx
	mov	ecx, DWORD PTR _this$[ebp]
	call	??0TUIList@@QAE@XZ			; TUIList::TUIList
	mov	eax, DWORD PTR _this$[ebp]
	add	eax, 12					; 0000000cH
	mov	esi, esp
	push	eax
	call	DWORD PTR __imp__InitializeCriticalSection@4
	cmp	esi, esp
	call	__RTC_CheckEsp
	mov	eax, DWORD PTR _this$[ebp]
	pop	edi
	pop	esi
	pop	ebx
	add	esp, 204				; 000000ccH
	cmp	ebp, esp
	call	__RTC_CheckEsp
	mov	esp, ebp
	pop	ebp
	ret	0
??0?$TCSPtrQueue@VTZSuperShortString@@@@QAE@XZ ENDP	; TCSPtrQueue<TZSuperShortString>::TCSPtrQueue<TZSuperShortString>
_TEXT	ENDS
; Function compile flags: /Odtp /RTCsu /ZI
; File c:\users\smith\projects\callcenter\tuilist.h
;	COMDAT ?Reset@?$TCSPtrQueue@VTZSuperShortString@@@@QAEXXZ
_TEXT	SEGMENT
tv85 = -244						; size = 4
$T1 = -236						; size = 4
$T2 = -224						; size = 4
_i$3 = -20						; size = 4
_this$ = -8						; size = 4
?Reset@?$TCSPtrQueue@VTZSuperShortString@@@@QAEXXZ PROC	; TCSPtrQueue<TZSuperShortString>::Reset, COMDAT
; _this$ = ecx

; 152  : 	void Reset(void) { EnterCriticalSection(&CS); for(unsigned i=0; i<TUIList::GetSize(); i++) delete (Type*)TUIList::operator[](i); TUIList::Reset(); LeaveCriticalSection(&CS);};

	push	ebp
	mov	ebp, esp
	sub	esp, 244				; 000000f4H
	push	ebx
	push	esi
	push	edi
	push	ecx
	lea	edi, DWORD PTR [ebp-244]
	mov	ecx, 61					; 0000003dH
	mov	eax, -858993460				; ccccccccH
	rep stosd
	pop	ecx
	mov	DWORD PTR _this$[ebp], ecx
	mov	eax, DWORD PTR _this$[ebp]
	add	eax, 12					; 0000000cH
	mov	esi, esp
	push	eax
	call	DWORD PTR __imp__EnterCriticalSection@4
	cmp	esi, esp
	call	__RTC_CheckEsp
	mov	DWORD PTR _i$3[ebp], 0
	jmp	SHORT $LN4@Reset
$LN2@Reset:
	mov	eax, DWORD PTR _i$3[ebp]
	add	eax, 1
	mov	DWORD PTR _i$3[ebp], eax
$LN4@Reset:
	mov	ecx, DWORD PTR _this$[ebp]
	call	?GetSize@TUIList@@QBEIXZ		; TUIList::GetSize
	cmp	DWORD PTR _i$3[ebp], eax
	jae	SHORT $LN3@Reset
	mov	eax, DWORD PTR _i$3[ebp]
	push	eax
	mov	ecx, DWORD PTR _this$[ebp]
	call	??ATUIList@@QAEAAII@Z			; TUIList::operator[]
	mov	ecx, DWORD PTR [eax]
	mov	DWORD PTR $T1[ebp], ecx
	mov	edx, DWORD PTR $T1[ebp]
	mov	DWORD PTR $T2[ebp], edx
	cmp	DWORD PTR $T2[ebp], 0
	je	SHORT $LN6@Reset
	push	1
	mov	ecx, DWORD PTR $T2[ebp]
	call	??_GTZSuperShortString@@QAEPAXI@Z
	mov	DWORD PTR tv85[ebp], eax
	jmp	SHORT $LN7@Reset
$LN6@Reset:
	mov	DWORD PTR tv85[ebp], 0
$LN7@Reset:
	jmp	SHORT $LN2@Reset
$LN3@Reset:
	mov	ecx, DWORD PTR _this$[ebp]
	call	?Reset@TUIList@@QAEXXZ			; TUIList::Reset
	mov	eax, DWORD PTR _this$[ebp]
	add	eax, 12					; 0000000cH
	mov	esi, esp
	push	eax
	call	DWORD PTR __imp__LeaveCriticalSection@4
	cmp	esi, esp
	call	__RTC_CheckEsp
	pop	edi
	pop	esi
	pop	ebx
	add	esp, 244				; 000000f4H
	cmp	ebp, esp
	call	__RTC_CheckEsp
	mov	esp, ebp
	pop	ebp
	ret	0
?Reset@?$TCSPtrQueue@VTZSuperShortString@@@@QAEXXZ ENDP	; TCSPtrQueue<TZSuperShortString>::Reset
_TEXT	ENDS
; Function compile flags: /Odtp /RTCsu /ZI
; File c:\users\smith\projects\callcenter\tuilist.h
;	COMDAT ?Pop@?$TCSPtrQueue@VTZSuperShortString@@@@QAEPAVTZSuperShortString@@XZ
_TEXT	SEGMENT
_ret$ = -20						; size = 4
_this$ = -8						; size = 4
?Pop@?$TCSPtrQueue@VTZSuperShortString@@@@QAEPAVTZSuperShortString@@XZ PROC ; TCSPtrQueue<TZSuperShortString>::Pop, COMDAT
; _this$ = ecx

; 150  : 	Type *Pop(void) { if (IsEmpty()) return NULL; EnterCriticalSection(&CS); Type *ret=(Type*)TUIList::operator[](0); TUIList::Delete(0); LeaveCriticalSection(&CS); return ret; };

	push	ebp
	mov	ebp, esp
	sub	esp, 216				; 000000d8H
	push	ebx
	push	esi
	push	edi
	push	ecx
	lea	edi, DWORD PTR [ebp-216]
	mov	ecx, 54					; 00000036H
	mov	eax, -858993460				; ccccccccH
	rep stosd
	pop	ecx
	mov	DWORD PTR _this$[ebp], ecx
	mov	ecx, DWORD PTR _this$[ebp]
	call	?IsEmpty@?$TCSPtrQueue@VTZSuperShortString@@@@QAE_NXZ ; TCSPtrQueue<TZSuperShortString>::IsEmpty
	movzx	eax, al
	test	eax, eax
	je	SHORT $LN2@Pop
	xor	eax, eax
	jmp	SHORT $LN1@Pop
$LN2@Pop:
	mov	eax, DWORD PTR _this$[ebp]
	add	eax, 12					; 0000000cH
	mov	esi, esp
	push	eax
	call	DWORD PTR __imp__EnterCriticalSection@4
	cmp	esi, esp
	call	__RTC_CheckEsp
	push	0
	mov	ecx, DWORD PTR _this$[ebp]
	call	??ATUIList@@QAEAAII@Z			; TUIList::operator[]
	mov	eax, DWORD PTR [eax]
	mov	DWORD PTR _ret$[ebp], eax
	push	0
	mov	ecx, DWORD PTR _this$[ebp]
	call	?Delete@TUIList@@QAE_NI@Z		; TUIList::Delete
	mov	eax, DWORD PTR _this$[ebp]
	add	eax, 12					; 0000000cH
	mov	esi, esp
	push	eax
	call	DWORD PTR __imp__LeaveCriticalSection@4
	cmp	esi, esp
	call	__RTC_CheckEsp
	mov	eax, DWORD PTR _ret$[ebp]
$LN1@Pop:
	pop	edi
	pop	esi
	pop	ebx
	add	esp, 216				; 000000d8H
	cmp	ebp, esp
	call	__RTC_CheckEsp
	mov	esp, ebp
	pop	ebp
	ret	0
?Pop@?$TCSPtrQueue@VTZSuperShortString@@@@QAEPAVTZSuperShortString@@XZ ENDP ; TCSPtrQueue<TZSuperShortString>::Pop
_TEXT	ENDS
; Function compile flags: /Odtp /RTCsu /ZI
; File c:\users\smith\projects\callcenter\tuilist.h
;	COMDAT ?Push@?$TCSPtrQueue@VTZSuperShortString@@@@QAEXPAVTZSuperShortString@@@Z
_TEXT	SEGMENT
_this$ = -8						; size = 4
_data$ = 8						; size = 4
?Push@?$TCSPtrQueue@VTZSuperShortString@@@@QAEXPAVTZSuperShortString@@@Z PROC ; TCSPtrQueue<TZSuperShortString>::Push, COMDAT
; _this$ = ecx

; 149  : 	void Push(Type *data) { EnterCriticalSection(&CS); TUIList::Add((unsigned __int32)data); LeaveCriticalSection(&CS);};

	push	ebp
	mov	ebp, esp
	sub	esp, 204				; 000000ccH
	push	ebx
	push	esi
	push	edi
	push	ecx
	lea	edi, DWORD PTR [ebp-204]
	mov	ecx, 51					; 00000033H
	mov	eax, -858993460				; ccccccccH
	rep stosd
	pop	ecx
	mov	DWORD PTR _this$[ebp], ecx
	mov	eax, DWORD PTR _this$[ebp]
	add	eax, 12					; 0000000cH
	mov	esi, esp
	push	eax
	call	DWORD PTR __imp__EnterCriticalSection@4
	cmp	esi, esp
	call	__RTC_CheckEsp
	mov	eax, DWORD PTR _data$[ebp]
	push	eax
	mov	ecx, DWORD PTR _this$[ebp]
	call	?Add@TUIList@@QAE_NI@Z			; TUIList::Add
	mov	eax, DWORD PTR _this$[ebp]
	add	eax, 12					; 0000000cH
	mov	esi, esp
	push	eax
	call	DWORD PTR __imp__LeaveCriticalSection@4
	cmp	esi, esp
	call	__RTC_CheckEsp
	pop	edi
	pop	esi
	pop	ebx
	add	esp, 204				; 000000ccH
	cmp	ebp, esp
	call	__RTC_CheckEsp
	mov	esp, ebp
	pop	ebp
	ret	4
?Push@?$TCSPtrQueue@VTZSuperShortString@@@@QAEXPAVTZSuperShortString@@@Z ENDP ; TCSPtrQueue<TZSuperShortString>::Push
_TEXT	ENDS
; Function compile flags: /Odtp /RTCsu /ZI
; File c:\users\smith\projects\callcenter\tuilist.h
;	COMDAT ?IsEmpty@?$TCSPtrQueue@VTZSuperShortString@@@@QAE_NXZ
_TEXT	SEGMENT
tv73 = -220						; size = 4
_ret$ = -17						; size = 1
_this$ = -8						; size = 4
?IsEmpty@?$TCSPtrQueue@VTZSuperShortString@@@@QAE_NXZ PROC ; TCSPtrQueue<TZSuperShortString>::IsEmpty, COMDAT
; _this$ = ecx

; 148  : 	bool IsEmpty(void) { bool ret; EnterCriticalSection(&CS); ret = (TUIList::GetSize()==0); LeaveCriticalSection(&CS);return ret;};

	push	ebp
	mov	ebp, esp
	sub	esp, 220				; 000000dcH
	push	ebx
	push	esi
	push	edi
	push	ecx
	lea	edi, DWORD PTR [ebp-220]
	mov	ecx, 55					; 00000037H
	mov	eax, -858993460				; ccccccccH
	rep stosd
	pop	ecx
	mov	DWORD PTR _this$[ebp], ecx
	mov	eax, DWORD PTR _this$[ebp]
	add	eax, 12					; 0000000cH
	mov	esi, esp
	push	eax
	call	DWORD PTR __imp__EnterCriticalSection@4
	cmp	esi, esp
	call	__RTC_CheckEsp
	mov	ecx, DWORD PTR _this$[ebp]
	call	?GetSize@TUIList@@QBEIXZ		; TUIList::GetSize
	test	eax, eax
	jne	SHORT $LN3@IsEmpty
	mov	DWORD PTR tv73[ebp], 1
	jmp	SHORT $LN4@IsEmpty
$LN3@IsEmpty:
	mov	DWORD PTR tv73[ebp], 0
$LN4@IsEmpty:
	mov	al, BYTE PTR tv73[ebp]
	mov	BYTE PTR _ret$[ebp], al
	mov	eax, DWORD PTR _this$[ebp]
	add	eax, 12					; 0000000cH
	mov	esi, esp
	push	eax
	call	DWORD PTR __imp__LeaveCriticalSection@4
	cmp	esi, esp
	call	__RTC_CheckEsp
	mov	al, BYTE PTR _ret$[ebp]
	pop	edi
	pop	esi
	pop	ebx
	add	esp, 220				; 000000dcH
	cmp	ebp, esp
	call	__RTC_CheckEsp
	mov	esp, ebp
	pop	ebp
	ret	0
?IsEmpty@?$TCSPtrQueue@VTZSuperShortString@@@@QAE_NXZ ENDP ; TCSPtrQueue<TZSuperShortString>::IsEmpty
_TEXT	ENDS
; Function compile flags: /Odtp /RTCsu /ZI
; File c:\users\smith\projects\callcenter\slworkset.cpp
;	COMDAT ?InitPort@CSLWorkSet@@AAEKXZ
_TEXT	SEGMENT
_com_t_out$ = -76					; size = 20
_dcb$ = -48						; size = 28
_this$ = -12						; size = 4
__$ArrayPad$ = -4					; size = 4
?InitPort@CSLWorkSet@@AAEKXZ PROC			; CSLWorkSet::InitPort, COMDAT
; _this$ = ecx

; 387  : {

	push	ebp
	mov	ebp, esp
	sub	esp, 272				; 00000110H
	push	ebx
	push	esi
	push	edi
	push	ecx
	lea	edi, DWORD PTR [ebp-272]
	mov	ecx, 68					; 00000044H
	mov	eax, -858993460				; ccccccccH
	rep stosd
	pop	ecx
	mov	eax, DWORD PTR ___security_cookie
	xor	eax, ebp
	mov	DWORD PTR __$ArrayPad$[ebp], eax
	mov	DWORD PTR _this$[ebp], ecx

; 388  : 	if (hPort!=INVALID_HANDLE_VALUE) CloseHandle(hPort);

	mov	eax, DWORD PTR _this$[ebp]
	cmp	DWORD PTR [eax+32], -1
	je	SHORT $LN2@InitPort
	mov	esi, esp
	mov	eax, DWORD PTR _this$[ebp]
	mov	ecx, DWORD PTR [eax+32]
	push	ecx
	call	DWORD PTR __imp__CloseHandle@4
	cmp	esi, esp
	call	__RTC_CheckEsp
$LN2@InitPort:

; 389  : 	hPort = CreateFile(PortName.c_str(), GENERIC_READ | GENERIC_WRITE,

	mov	esi, esp
	push	0
	push	128					; 00000080H
	push	3
	push	0
	push	0
	push	-1073741824				; c0000000H
	mov	ecx, DWORD PTR _this$[ebp]
	add	ecx, 24					; 00000018H
	call	?c_str@TZSuperShortString@@QBEPBDXZ	; TZSuperShortString::c_str
	push	eax
	call	DWORD PTR __imp__CreateFileA@28
	cmp	esi, esp
	call	__RTC_CheckEsp
	mov	ecx, DWORD PTR _this$[ebp]
	mov	DWORD PTR [ecx+32], eax

; 390  : 				0, NULL, OPEN_EXISTING, FILE_ATTRIBUTE_NORMAL, NULL);
; 391  : 	if (hPort==INVALID_HANDLE_VALUE) return GetLastError();

	mov	eax, DWORD PTR _this$[ebp]
	cmp	DWORD PTR [eax+32], -1
	jne	SHORT $LN3@InitPort
	mov	esi, esp
	call	DWORD PTR __imp__GetLastError@0
	cmp	esi, esp
	call	__RTC_CheckEsp
	jmp	$LN1@InitPort
$LN3@InitPort:

; 392  : 
; 393  : DCB dcb;
; 394  : 	memset(&dcb,0,sizeof(DCB));

	push	28					; 0000001cH
	push	0
	lea	eax, DWORD PTR _dcb$[ebp]
	push	eax
	call	_memset
	add	esp, 12					; 0000000cH

; 395  : 	dcb.DCBlength = sizeof(DCB);

	mov	DWORD PTR _dcb$[ebp], 28		; 0000001cH

; 396  : 	GetCommState(hPort, &dcb);

	mov	esi, esp
	lea	eax, DWORD PTR _dcb$[ebp]
	push	eax
	mov	ecx, DWORD PTR _this$[ebp]
	mov	edx, DWORD PTR [ecx+32]
	push	edx
	call	DWORD PTR __imp__GetCommState@8
	cmp	esi, esp
	call	__RTC_CheckEsp

; 397  : 	dcb.BaudRate = CBR_9600;

	mov	DWORD PTR _dcb$[ebp+4], 9600		; 00002580H

; 398  : 	dcb.ByteSize = 8;

	mov	BYTE PTR _dcb$[ebp+18], 8

; 399  : 	dcb.Parity   = EVENPARITY;

	mov	BYTE PTR _dcb$[ebp+19], 2

; 400  : 	dcb.StopBits = ONESTOPBIT;

	mov	BYTE PTR _dcb$[ebp+20], 0

; 401  : 	dcb.fOutxDsrFlow = FALSE;

	mov	eax, DWORD PTR _dcb$[ebp+8]
	and	eax, -9					; fffffff7H
	mov	DWORD PTR _dcb$[ebp+8], eax

; 402  : 	dcb.fOutxCtsFlow = FALSE;

	mov	eax, DWORD PTR _dcb$[ebp+8]
	and	eax, -5					; fffffffbH
	mov	DWORD PTR _dcb$[ebp+8], eax

; 403  : 	dcb.fDsrSensitivity = FALSE;

	mov	eax, DWORD PTR _dcb$[ebp+8]
	and	eax, -65				; ffffffbfH
	mov	DWORD PTR _dcb$[ebp+8], eax

; 404  : 	dcb.fInX = dcb.fOutX = FALSE;

	mov	eax, DWORD PTR _dcb$[ebp+8]
	and	eax, -257				; fffffeffH
	mov	DWORD PTR _dcb$[ebp+8], eax
	mov	ecx, DWORD PTR _dcb$[ebp+8]
	and	ecx, -513				; fffffdffH
	mov	DWORD PTR _dcb$[ebp+8], ecx

; 405  : 	dcb.fAbortOnError =FALSE;

	mov	eax, DWORD PTR _dcb$[ebp+8]
	and	eax, -16385				; ffffbfffH
	mov	DWORD PTR _dcb$[ebp+8], eax

; 406  : 	dcb.fDtrControl = DTR_CONTROL_DISABLE;

	mov	eax, DWORD PTR _dcb$[ebp+8]
	and	eax, -49				; ffffffcfH
	mov	DWORD PTR _dcb$[ebp+8], eax

; 407  : 	dcb.fRtsControl = DTR_CONTROL_DISABLE;

	mov	eax, DWORD PTR _dcb$[ebp+8]
	and	eax, -12289				; ffffcfffH
	mov	DWORD PTR _dcb$[ebp+8], eax

; 408  : 	dcb.fBinary = TRUE;

	mov	eax, DWORD PTR _dcb$[ebp+8]
	or	eax, 1
	mov	DWORD PTR _dcb$[ebp+8], eax

; 409  : 	dcb.fParity = TRUE;

	mov	eax, DWORD PTR _dcb$[ebp+8]
	or	eax, 2
	mov	DWORD PTR _dcb$[ebp+8], eax

; 410  : 	if (!SetCommState(hPort,&dcb)) return GetLastError();

	mov	esi, esp
	lea	eax, DWORD PTR _dcb$[ebp]
	push	eax
	mov	ecx, DWORD PTR _this$[ebp]
	mov	edx, DWORD PTR [ecx+32]
	push	edx
	call	DWORD PTR __imp__SetCommState@8
	cmp	esi, esp
	call	__RTC_CheckEsp
	test	eax, eax
	jne	SHORT $LN4@InitPort
	mov	esi, esp
	call	DWORD PTR __imp__GetLastError@0
	cmp	esi, esp
	call	__RTC_CheckEsp
	jmp	$LN1@InitPort
$LN4@InitPort:

; 411  : 
; 412  : COMMTIMEOUTS com_t_out;
; 413  : 	com_t_out.ReadIntervalTimeout = 1;

	mov	DWORD PTR _com_t_out$[ebp], 1

; 414  : 	com_t_out.ReadTotalTimeoutMultiplier = 3;

	mov	DWORD PTR _com_t_out$[ebp+4], 3

; 415  : 	com_t_out.ReadTotalTimeoutConstant = 1;

	mov	DWORD PTR _com_t_out$[ebp+8], 1

; 416  : 	com_t_out.WriteTotalTimeoutMultiplier = 10;

	mov	DWORD PTR _com_t_out$[ebp+12], 10	; 0000000aH

; 417  : 	com_t_out.WriteTotalTimeoutConstant = 200;

	mov	DWORD PTR _com_t_out$[ebp+16], 200	; 000000c8H

; 418  : 	if (!SetCommTimeouts(hPort, &com_t_out)) return GetLastError();

	mov	esi, esp
	lea	eax, DWORD PTR _com_t_out$[ebp]
	push	eax
	mov	ecx, DWORD PTR _this$[ebp]
	mov	edx, DWORD PTR [ecx+32]
	push	edx
	call	DWORD PTR __imp__SetCommTimeouts@8
	cmp	esi, esp
	call	__RTC_CheckEsp
	test	eax, eax
	jne	SHORT $LN5@InitPort
	mov	esi, esp
	call	DWORD PTR __imp__GetLastError@0
	cmp	esi, esp
	call	__RTC_CheckEsp
	jmp	SHORT $LN1@InitPort
$LN5@InitPort:

; 419  : 	if (!SetupComm(hPort, 512, 512)) return GetLastError();

	mov	esi, esp
	push	512					; 00000200H
	push	512					; 00000200H
	mov	eax, DWORD PTR _this$[ebp]
	mov	ecx, DWORD PTR [eax+32]
	push	ecx
	call	DWORD PTR __imp__SetupComm@12
	cmp	esi, esp
	call	__RTC_CheckEsp
	test	eax, eax
	jne	SHORT $LN6@InitPort
	mov	esi, esp
	call	DWORD PTR __imp__GetLastError@0
	cmp	esi, esp
	call	__RTC_CheckEsp
	jmp	SHORT $LN1@InitPort
$LN6@InitPort:

; 420  : 	return ERROR_SUCCESS;

	xor	eax, eax
$LN1@InitPort:

; 421  : }

	push	edx
	mov	ecx, ebp
	push	eax
	lea	edx, DWORD PTR $LN11@InitPort
	call	@_RTC_CheckStackVars@8
	pop	eax
	pop	edx
	pop	edi
	pop	esi
	pop	ebx
	mov	ecx, DWORD PTR __$ArrayPad$[ebp]
	xor	ecx, ebp
	call	@__security_check_cookie@4
	add	esp, 272				; 00000110H
	cmp	ebp, esp
	call	__RTC_CheckEsp
	mov	esp, ebp
	pop	ebp
	ret	0
	npad	3
$LN11@InitPort:
	DD	2
	DD	$LN10@InitPort
$LN10@InitPort:
	DD	-48					; ffffffd0H
	DD	28					; 0000001cH
	DD	$LN8@InitPort
	DD	-76					; ffffffb4H
	DD	20					; 00000014H
	DD	$LN9@InitPort
$LN9@InitPort:
	DB	99					; 00000063H
	DB	111					; 0000006fH
	DB	109					; 0000006dH
	DB	95					; 0000005fH
	DB	116					; 00000074H
	DB	95					; 0000005fH
	DB	111					; 0000006fH
	DB	117					; 00000075H
	DB	116					; 00000074H
	DB	0
$LN8@InitPort:
	DB	100					; 00000064H
	DB	99					; 00000063H
	DB	98					; 00000062H
	DB	0
?InitPort@CSLWorkSet@@AAEKXZ ENDP			; CSLWorkSet::InitPort
_TEXT	ENDS
; Function compile flags: /Odtp /RTCsu /ZI
; File c:\users\smith\projects\callcenter\slworkset.cpp
;	COMDAT ?OnDefault@CSLWorkSet@@IAEXI@Z
_TEXT	SEGMENT
_this$ = -8						; size = 4
_SLNumber$ = 8						; size = 4
?OnDefault@CSLWorkSet@@IAEXI@Z PROC			; CSLWorkSet::OnDefault, COMDAT
; _this$ = ecx

; 201  : {

	push	ebp
	mov	ebp, esp
	sub	esp, 204				; 000000ccH
	push	ebx
	push	esi
	push	edi
	push	ecx
	lea	edi, DWORD PTR [ebp-204]
	mov	ecx, 51					; 00000033H
	mov	eax, -858993460				; ccccccccH
	rep stosd
	pop	ecx
	mov	DWORD PTR _this$[ebp], ecx

; 202  : 	PostSysMessage(SCMD_CHECKSLCOUNT, 0, SLNumber, SLList[SLNumber].SLServiceGroup);

	imul	eax, DWORD PTR _SLNumber$[ebp], 44
	mov	ecx, DWORD PTR _this$[ebp]
	mov	edx, DWORD PTR [ecx+eax+36]
	push	edx
	movzx	eax, WORD PTR _SLNumber$[ebp]
	push	eax
	push	0
	push	67					; 00000043H
	mov	ecx, DWORD PTR _this$[ebp]
	add	ecx, 24					; 00000018H
	call	?PostSysMessage@CSystemObject@@IAEXEEGI@Z ; CSystemObject::PostSysMessage

; 203  : }

	pop	edi
	pop	esi
	pop	ebx
	add	esp, 204				; 000000ccH
	cmp	ebp, esp
	call	__RTC_CheckEsp
	mov	esp, ebp
	pop	ebp
	ret	4
?OnDefault@CSLWorkSet@@IAEXI@Z ENDP			; CSLWorkSet::OnDefault
_TEXT	ENDS
; Function compile flags: /Odtp /RTCsu /ZI
; File c:\users\smith\projects\callcenter\slworkset.cpp
;	COMDAT ?OnAlarm@CSLWorkSet@@IAEXI@Z
_TEXT	SEGMENT
_i$1 = -20						; size = 4
_this$ = -8						; size = 4
_SLNumber$ = 8						; size = 4
?OnAlarm@CSLWorkSet@@IAEXI@Z PROC			; CSLWorkSet::OnAlarm, COMDAT
; _this$ = ecx

; 171  : {

	push	ebp
	mov	ebp, esp
	sub	esp, 216				; 000000d8H
	push	ebx
	push	esi
	push	edi
	push	ecx
	lea	edi, DWORD PTR [ebp-216]
	mov	ecx, 54					; 00000036H
	mov	eax, -858993460				; ccccccccH
	rep stosd
	pop	ecx
	mov	DWORD PTR _this$[ebp], ecx

; 172  : 	if (SLList[SLNumber].MustBeBlocked==false)

	imul	eax, DWORD PTR _SLNumber$[ebp], 44
	mov	ecx, DWORD PTR _this$[ebp]
	movzx	edx, BYTE PTR [ecx+eax+76]
	test	edx, edx
	jne	$LN1@OnAlarm

; 173  : 	{
; 174  : 	int i;
; 175  : 		for (i=SLNumber+1; i<SLCount; i++)

	mov	eax, DWORD PTR _SLNumber$[ebp]
	add	eax, 1
	mov	DWORD PTR _i$1[ebp], eax
	jmp	SHORT $LN4@OnAlarm
$LN2@OnAlarm:
	mov	eax, DWORD PTR _i$1[ebp]
	add	eax, 1
	mov	DWORD PTR _i$1[ebp], eax
$LN4@OnAlarm:
	cmp	DWORD PTR _i$1[ebp], 12			; 0000000cH
	jge	SHORT $LN3@OnAlarm

; 176  : 		{
; 177  : 			if (SLList[i].SLServiceGroup==SLList[SLNumber].SLServiceGroup &&
; 178  : 				SLList[i].MustBeBlocked==true && SLList[i].AlarmBlocking==false)

	imul	eax, DWORD PTR _i$1[ebp], 44
	imul	ecx, DWORD PTR _SLNumber$[ebp], 44
	mov	edx, DWORD PTR _this$[ebp]
	mov	esi, DWORD PTR _this$[ebp]
	mov	eax, DWORD PTR [edx+eax+36]
	cmp	eax, DWORD PTR [esi+ecx+36]
	jne	SHORT $LN9@OnAlarm
	imul	eax, DWORD PTR _i$1[ebp], 44
	mov	ecx, DWORD PTR _this$[ebp]
	movzx	edx, BYTE PTR [ecx+eax+76]
	cmp	edx, 1
	jne	SHORT $LN9@OnAlarm
	imul	eax, DWORD PTR _i$1[ebp], 44
	mov	ecx, DWORD PTR _this$[ebp]
	movzx	edx, BYTE PTR [ecx+eax+77]
	test	edx, edx
	jne	SHORT $LN9@OnAlarm

; 179  : 			{
; 180  : 				SLList[i].MustBeBlocked = false;

	imul	eax, DWORD PTR _i$1[ebp], 44
	mov	ecx, DWORD PTR _this$[ebp]
	mov	BYTE PTR [ecx+eax+76], 0

; 181  : 				if (SLList[i].RTState==CCS_BLOCKED)

	imul	eax, DWORD PTR _i$1[ebp], 44
	mov	ecx, DWORD PTR _this$[ebp]
	cmp	DWORD PTR [ecx+eax+72], 14		; 0000000eH
	jne	SHORT $LN10@OnAlarm

; 182  : 					SetSLState(i, CCS_SLSETTODEFAULT);

	push	15					; 0000000fH
	mov	eax, DWORD PTR _i$1[ebp]
	push	eax
	mov	ecx, DWORD PTR _this$[ebp]
	call	?SetSLState@CSLWorkSet@@QAEXII@Z	; CSLWorkSet::SetSLState
$LN10@OnAlarm:

; 183  : 				return;

	jmp	$LN1@OnAlarm
$LN9@OnAlarm:

; 184  : 			};
; 185  : 		};

	jmp	SHORT $LN2@OnAlarm
$LN3@OnAlarm:

; 186  : 		for (i=0; i<SLNumber; i++)

	mov	DWORD PTR _i$1[ebp], 0
	jmp	SHORT $LN7@OnAlarm
$LN5@OnAlarm:
	mov	eax, DWORD PTR _i$1[ebp]
	add	eax, 1
	mov	DWORD PTR _i$1[ebp], eax
$LN7@OnAlarm:
	mov	eax, DWORD PTR _i$1[ebp]
	cmp	eax, DWORD PTR _SLNumber$[ebp]
	jae	SHORT $LN1@OnAlarm

; 187  : 		{
; 188  : 			if (SLList[i].SLServiceGroup==SLList[SLNumber].SLServiceGroup &&
; 189  : 				SLList[i].MustBeBlocked==true && SLList[i].AlarmBlocking==false)

	imul	eax, DWORD PTR _i$1[ebp], 44
	imul	ecx, DWORD PTR _SLNumber$[ebp], 44
	mov	edx, DWORD PTR _this$[ebp]
	mov	esi, DWORD PTR _this$[ebp]
	mov	eax, DWORD PTR [edx+eax+36]
	cmp	eax, DWORD PTR [esi+ecx+36]
	jne	SHORT $LN11@OnAlarm
	imul	eax, DWORD PTR _i$1[ebp], 44
	mov	ecx, DWORD PTR _this$[ebp]
	movzx	edx, BYTE PTR [ecx+eax+76]
	cmp	edx, 1
	jne	SHORT $LN11@OnAlarm
	imul	eax, DWORD PTR _i$1[ebp], 44
	mov	ecx, DWORD PTR _this$[ebp]
	movzx	edx, BYTE PTR [ecx+eax+77]
	test	edx, edx
	jne	SHORT $LN11@OnAlarm

; 190  : 			{
; 191  : 				SLList[i].MustBeBlocked = false;

	imul	eax, DWORD PTR _i$1[ebp], 44
	mov	ecx, DWORD PTR _this$[ebp]
	mov	BYTE PTR [ecx+eax+76], 0

; 192  : 				if (SLList[i].RTState==CCS_BLOCKED)

	imul	eax, DWORD PTR _i$1[ebp], 44
	mov	ecx, DWORD PTR _this$[ebp]
	cmp	DWORD PTR [ecx+eax+72], 14		; 0000000eH
	jne	SHORT $LN12@OnAlarm

; 193  : 					SetSLState(i, CCS_SLSETTODEFAULT);

	push	15					; 0000000fH
	mov	eax, DWORD PTR _i$1[ebp]
	push	eax
	mov	ecx, DWORD PTR _this$[ebp]
	call	?SetSLState@CSLWorkSet@@QAEXII@Z	; CSLWorkSet::SetSLState
$LN12@OnAlarm:

; 194  : 				return;

	jmp	SHORT $LN1@OnAlarm
$LN11@OnAlarm:

; 195  : 			};
; 196  : 		};

	jmp	SHORT $LN5@OnAlarm
$LN1@OnAlarm:

; 197  : 	};
; 198  : }

	pop	edi
	pop	esi
	pop	ebx
	add	esp, 216				; 000000d8H
	cmp	ebp, esp
	call	__RTC_CheckEsp
	mov	esp, ebp
	pop	ebp
	ret	4
?OnAlarm@CSLWorkSet@@IAEXI@Z ENDP			; CSLWorkSet::OnAlarm
_TEXT	ENDS
; Function compile flags: /Odtp /RTCsu /ZI
; File c:\users\smith\projects\callcenter\slworkset.cpp
;	COMDAT ?ProcessComCommand@CSLWorkSet@@IAEXAAVTZSuperShortString@@@Z
_TEXT	SEGMENT
tv489 = -260						; size = 4
tv345 = -260						; size = 4
tv312 = -260						; size = 4
tv170 = -260						; size = 4
tv137 = -260						; size = 4
tv490 = -256						; size = 4
tv347 = -256						; size = 4
tv346 = -256						; size = 4
tv313 = -256						; size = 4
tv178 = -256						; size = 4
tv171 = -256						; size = 4
tv138 = -256						; size = 4
_i$1 = -56						; size = 4
_i$2 = -44						; size = 4
_PTState$ = -32						; size = 4
_PTNum$ = -20						; size = 4
_this$ = -8						; size = 4
_str$ = 8						; size = 4
?ProcessComCommand@CSLWorkSet@@IAEXAAVTZSuperShortString@@@Z PROC ; CSLWorkSet::ProcessComCommand, COMDAT
; _this$ = ecx

; 312  : {

	push	ebp
	mov	ebp, esp
	sub	esp, 260				; 00000104H
	push	ebx
	push	esi
	push	edi
	push	ecx
	lea	edi, DWORD PTR [ebp-260]
	mov	ecx, 65					; 00000041H
	mov	eax, -858993460				; ccccccccH
	rep stosd
	pop	ecx
	mov	DWORD PTR _this$[ebp], ecx

; 313  : unsigned PTNum, PTState;
; 314  : //	FLOG << "PortIn : " << str.c_str() << endl;
; 315  : 
; 316  : 	if (str[1]=='T' && str[2]=='L')

	push	1
	mov	ecx, DWORD PTR _str$[ebp]
	call	??ATZSuperShortString@@QAEAADE@Z	; TZSuperShortString::operator[]
	movsx	eax, BYTE PTR [eax]
	cmp	eax, 84					; 00000054H
	jne	$LN12@ProcessCom
	push	2
	mov	ecx, DWORD PTR _str$[ebp]
	call	??ATZSuperShortString@@QAEAADE@Z	; TZSuperShortString::operator[]
	movsx	eax, BYTE PTR [eax]
	cmp	eax, 76					; 0000004cH
	jne	$LN12@ProcessCom

; 317  : 	{
; 318  : 		PTNum = (str[4]>='0'&&str[4]<='9')?str[4]-0x30:((str[4]>='a'&&str[4]<='f')?(unsigned char)str[4]-97+10:0);

	push	4
	mov	ecx, DWORD PTR _str$[ebp]
	call	??ATZSuperShortString@@QAEAADE@Z	; TZSuperShortString::operator[]
	movsx	eax, BYTE PTR [eax]
	cmp	eax, 48					; 00000030H
	jl	SHORT $LN36@ProcessCom
	push	4
	mov	ecx, DWORD PTR _str$[ebp]
	call	??ATZSuperShortString@@QAEAADE@Z	; TZSuperShortString::operator[]
	movsx	ecx, BYTE PTR [eax]
	cmp	ecx, 57					; 00000039H
	jg	SHORT $LN36@ProcessCom
	push	4
	mov	ecx, DWORD PTR _str$[ebp]
	call	??ATZSuperShortString@@QAEAADE@Z	; TZSuperShortString::operator[]
	movsx	edx, BYTE PTR [eax]
	sub	edx, 48					; 00000030H
	mov	DWORD PTR tv138[ebp], edx
	jmp	SHORT $LN39@ProcessCom
$LN36@ProcessCom:
	push	4
	mov	ecx, DWORD PTR _str$[ebp]
	call	??ATZSuperShortString@@QAEAADE@Z	; TZSuperShortString::operator[]
	movsx	eax, BYTE PTR [eax]
	cmp	eax, 97					; 00000061H
	jl	SHORT $LN37@ProcessCom
	push	4
	mov	ecx, DWORD PTR _str$[ebp]
	call	??ATZSuperShortString@@QAEAADE@Z	; TZSuperShortString::operator[]
	movsx	ecx, BYTE PTR [eax]
	cmp	ecx, 102				; 00000066H
	jg	SHORT $LN37@ProcessCom
	push	4
	mov	ecx, DWORD PTR _str$[ebp]
	call	??ATZSuperShortString@@QAEAADE@Z	; TZSuperShortString::operator[]
	movzx	edx, BYTE PTR [eax]
	sub	edx, 87					; 00000057H
	mov	DWORD PTR tv137[ebp], edx
	jmp	SHORT $LN38@ProcessCom
$LN37@ProcessCom:
	mov	DWORD PTR tv137[ebp], 0
$LN38@ProcessCom:
	mov	eax, DWORD PTR tv137[ebp]
	mov	DWORD PTR tv138[ebp], eax
$LN39@ProcessCom:
	mov	ecx, DWORD PTR tv138[ebp]
	mov	DWORD PTR _PTNum$[ebp], ecx

; 319  : 		PTState = (str[6]>='0'&&str[6]<='9')?str[6]-0x30:((str[6]>='a'&&str[6]<='f')?(unsigned char)str[6]-97+10:0);

	push	6
	mov	ecx, DWORD PTR _str$[ebp]
	call	??ATZSuperShortString@@QAEAADE@Z	; TZSuperShortString::operator[]
	movsx	eax, BYTE PTR [eax]
	cmp	eax, 48					; 00000030H
	jl	SHORT $LN40@ProcessCom
	push	6
	mov	ecx, DWORD PTR _str$[ebp]
	call	??ATZSuperShortString@@QAEAADE@Z	; TZSuperShortString::operator[]
	movsx	ecx, BYTE PTR [eax]
	cmp	ecx, 57					; 00000039H
	jg	SHORT $LN40@ProcessCom
	push	6
	mov	ecx, DWORD PTR _str$[ebp]
	call	??ATZSuperShortString@@QAEAADE@Z	; TZSuperShortString::operator[]
	movsx	edx, BYTE PTR [eax]
	sub	edx, 48					; 00000030H
	mov	DWORD PTR tv171[ebp], edx
	jmp	SHORT $LN43@ProcessCom
$LN40@ProcessCom:
	push	6
	mov	ecx, DWORD PTR _str$[ebp]
	call	??ATZSuperShortString@@QAEAADE@Z	; TZSuperShortString::operator[]
	movsx	eax, BYTE PTR [eax]
	cmp	eax, 97					; 00000061H
	jl	SHORT $LN41@ProcessCom
	push	6
	mov	ecx, DWORD PTR _str$[ebp]
	call	??ATZSuperShortString@@QAEAADE@Z	; TZSuperShortString::operator[]
	movsx	ecx, BYTE PTR [eax]
	cmp	ecx, 102				; 00000066H
	jg	SHORT $LN41@ProcessCom
	push	6
	mov	ecx, DWORD PTR _str$[ebp]
	call	??ATZSuperShortString@@QAEAADE@Z	; TZSuperShortString::operator[]
	movzx	edx, BYTE PTR [eax]
	sub	edx, 87					; 00000057H
	mov	DWORD PTR tv170[ebp], edx
	jmp	SHORT $LN42@ProcessCom
$LN41@ProcessCom:
	mov	DWORD PTR tv170[ebp], 0
$LN42@ProcessCom:
	mov	eax, DWORD PTR tv170[ebp]
	mov	DWORD PTR tv171[ebp], eax
$LN43@ProcessCom:
	mov	ecx, DWORD PTR tv171[ebp]
	mov	DWORD PTR _PTState$[ebp], ecx

; 320  : 		if (PTNum>=SLCount) return;

	cmp	DWORD PTR _PTNum$[ebp], 12		; 0000000cH
	jb	SHORT $LN14@ProcessCom
	jmp	$LN1@ProcessCom
$LN14@ProcessCom:

; 321  : 
; 322  : 		if (PTState!=CCS_ALARM2)

	cmp	DWORD PTR _PTState$[ebp], 3
	je	SHORT $LN15@ProcessCom

; 323  : 			SLList[PTNum].AlarmBlocking = false;

	imul	eax, DWORD PTR _PTNum$[ebp], 44
	mov	ecx, DWORD PTR _this$[ebp]
	mov	BYTE PTR [ecx+eax+77], 0
$LN15@ProcessCom:

; 324  : 		switch (PTState)

	mov	eax, DWORD PTR _PTState$[ebp]
	mov	DWORD PTR tv178[ebp], eax
	cmp	DWORD PTR tv178[ebp], 14		; 0000000eH
	ja	$LN2@ProcessCom
	mov	ecx, DWORD PTR tv178[ebp]
	movzx	edx, BYTE PTR $LN56@ProcessCom[ecx]
	jmp	DWORD PTR $LN57@ProcessCom[edx*4]
$LN16@ProcessCom:

; 325  : 		{
; 326  : 			case CCS_RING:
; 327  : 				FLOG << time << "RING on line " << PTNum << " " << PTState<< endl;

	push	OFFSET ?endl@@YAAAVCSysOut@@AAV1@@Z	; endl
	mov	eax, DWORD PTR _PTState$[ebp]
	push	eax
	push	OFFSET ??_C@_01CLKCMJKC@?5?$AA@
	mov	ecx, DWORD PTR _PTNum$[ebp]
	push	ecx
	push	OFFSET ??_C@_0O@NJDGMLDN@RING?5on?5line?5?$AA@
	push	OFFSET ?time@@YAAAVCSysOut@@AAV1@@Z	; time
	mov	ecx, OFFSET ?FLOG@@3VCSysOut@@A		; FLOG
	call	??6CSysOut@@QAEAAV0@P6AAAV0@AAV0@@Z@Z	; CSysOut::operator<<
	mov	ecx, eax
	call	??6CSysOut@@QAEAAV0@PBD@Z		; CSysOut::operator<<
	mov	ecx, eax
	call	??6CSysOut@@QAEAAV0@I@Z			; CSysOut::operator<<
	mov	ecx, eax
	call	??6CSysOut@@QAEAAV0@PBD@Z		; CSysOut::operator<<
	mov	ecx, eax
	call	??6CSysOut@@QAEAAV0@I@Z			; CSysOut::operator<<
	mov	ecx, eax
	call	??6CSysOut@@QAEAAV0@P6AAAV0@AAV0@@Z@Z	; CSysOut::operator<<

; 328  : //				if (SLList[PTNum].RTState!=CCS_RING)
; 329  : 				PostSysMessage(SCMD_ADDRINGINQUEUE, 0, PTNum, SLList[PTNum].SLServiceGroup);

	imul	eax, DWORD PTR _PTNum$[ebp], 44
	mov	ecx, DWORD PTR _this$[ebp]
	mov	edx, DWORD PTR [ecx+eax+36]
	push	edx
	movzx	eax, WORD PTR _PTNum$[ebp]
	push	eax
	push	0
	push	32					; 00000020H
	mov	ecx, DWORD PTR _this$[ebp]
	add	ecx, 24					; 00000018H
	call	?PostSysMessage@CSystemObject@@IAEXEEGI@Z ; CSystemObject::PostSysMessage

; 330  : 				SLList[PTNum].RTState = CCS_RING;

	imul	eax, DWORD PTR _PTNum$[ebp], 44
	mov	ecx, DWORD PTR _this$[ebp]
	mov	DWORD PTR [ecx+eax+72], 1

; 331  : 				break;

	jmp	$LN2@ProcessCom

; 332  : 			case CCS_CALLINPROGRESS:
; 333  : 			case CCS_COMBUSY:
; 334  : 				break;

	jmp	$LN2@ProcessCom
$LN18@ProcessCom:

; 335  : 			case CCS_BLOCKED:
; 336  : 				SLList[PTNum].MustBeBlocked = false;

	imul	eax, DWORD PTR _PTNum$[ebp], 44
	mov	ecx, DWORD PTR _this$[ebp]
	mov	BYTE PTR [ecx+eax+76], 0

; 337  : 			case CCS_ALARM:
; 338  : 				break;

	jmp	$LN2@ProcessCom
$LN20@ProcessCom:

; 339  : 			case CCS_ALARM2:
; 340  : //				SLList[PTNum].AlarmBlocking = true;
; 341  : 				PostSysMessage(SCMD_CHECKSLCOUNT, 0, PTNum, SLList[PTNum].SLServiceGroup);

	imul	eax, DWORD PTR _PTNum$[ebp], 44
	mov	ecx, DWORD PTR _this$[ebp]
	mov	edx, DWORD PTR [ecx+eax+36]
	push	edx
	movzx	eax, WORD PTR _PTNum$[ebp]
	push	eax
	push	0
	push	67					; 00000043H
	mov	ecx, DWORD PTR _this$[ebp]
	add	ecx, 24					; 00000018H
	call	?PostSysMessage@CSystemObject@@IAEXEEGI@Z ; CSystemObject::PostSysMessage

; 342  : //				SetSLState(PTNum, CCS_SLBLOCK);
; 343  : 				break;

	jmp	SHORT $LN2@ProcessCom
$LN21@ProcessCom:

; 344  : 			case CCS_DEFAULT:
; 345  : 				if (SLList[PTNum].RTState==CCS_ALARM2) PostSysMessage(SCMD_CHECKSLCOUNT, 0, PTNum, SLList[PTNum].SLServiceGroup);

	imul	eax, DWORD PTR _PTNum$[ebp], 44
	mov	ecx, DWORD PTR _this$[ebp]
	cmp	DWORD PTR [ecx+eax+72], 3
	jne	SHORT $LN22@ProcessCom
	imul	eax, DWORD PTR _PTNum$[ebp], 44
	mov	ecx, DWORD PTR _this$[ebp]
	mov	edx, DWORD PTR [ecx+eax+36]
	push	edx
	movzx	eax, WORD PTR _PTNum$[ebp]
	push	eax
	push	0
	push	67					; 00000043H
	mov	ecx, DWORD PTR _this$[ebp]
	add	ecx, 24					; 00000018H
	call	?PostSysMessage@CSystemObject@@IAEXEEGI@Z ; CSystemObject::PostSysMessage
$LN22@ProcessCom:

; 346  : 				if (SLList[PTNum].MustBeBlocked==true) SetSLState(PTNum, CCS_SLBLOCK);

	imul	eax, DWORD PTR _PTNum$[ebp], 44
	mov	ecx, DWORD PTR _this$[ebp]
	movzx	edx, BYTE PTR [ecx+eax+76]
	cmp	edx, 1
	jne	SHORT $LN24@ProcessCom
	push	13					; 0000000dH
	mov	eax, DWORD PTR _PTNum$[ebp]
	push	eax
	mov	ecx, DWORD PTR _this$[ebp]
	call	?SetSLState@CSLWorkSet@@QAEXII@Z	; CSLWorkSet::SetSLState
$LN24@ProcessCom:

; 347  : 			case CCS_HOLD:
; 348  : 				PostSysMessage(SCMD_DELETERINGINQUEUE, 0, PTNum);

	push	0
	movzx	eax, WORD PTR _PTNum$[ebp]
	push	eax
	push	0
	push	33					; 00000021H
	mov	ecx, DWORD PTR _this$[ebp]
	add	ecx, 24					; 00000018H
	call	?PostSysMessage@CSystemObject@@IAEXEEGI@Z ; CSystemObject::PostSysMessage
$LN2@ProcessCom:

; 349  : 				break;
; 350  : 		};
; 351  : 		SLList[PTNum].RTState = PTState;

	imul	eax, DWORD PTR _PTNum$[ebp], 44
	mov	ecx, DWORD PTR _this$[ebp]
	mov	edx, DWORD PTR _PTState$[ebp]
	mov	DWORD PTR [ecx+eax+72], edx
	jmp	$LN1@ProcessCom
$LN12@ProcessCom:

; 352  : 	} else if (str[1]=='R' && str[2]=='M')

	push	1
	mov	ecx, DWORD PTR _str$[ebp]
	call	??ATZSuperShortString@@QAEAADE@Z	; TZSuperShortString::operator[]
	movsx	eax, BYTE PTR [eax]
	cmp	eax, 82					; 00000052H
	jne	$LN25@ProcessCom
	push	2
	mov	ecx, DWORD PTR _str$[ebp]
	call	??ATZSuperShortString@@QAEAADE@Z	; TZSuperShortString::operator[]
	movsx	eax, BYTE PTR [eax]
	cmp	eax, 77					; 0000004dH
	jne	$LN25@ProcessCom

; 353  : 	{
; 354  : 		PTNum = (str[4]>='0'&&str[4]<='9')?str[4]-0x30:((str[4]>='a'&&str[4]<='f')?(unsigned char)str[4]-97+10:0);

	push	4
	mov	ecx, DWORD PTR _str$[ebp]
	call	??ATZSuperShortString@@QAEAADE@Z	; TZSuperShortString::operator[]
	movsx	eax, BYTE PTR [eax]
	cmp	eax, 48					; 00000030H
	jl	SHORT $LN44@ProcessCom
	push	4
	mov	ecx, DWORD PTR _str$[ebp]
	call	??ATZSuperShortString@@QAEAADE@Z	; TZSuperShortString::operator[]
	movsx	ecx, BYTE PTR [eax]
	cmp	ecx, 57					; 00000039H
	jg	SHORT $LN44@ProcessCom
	push	4
	mov	ecx, DWORD PTR _str$[ebp]
	call	??ATZSuperShortString@@QAEAADE@Z	; TZSuperShortString::operator[]
	movsx	edx, BYTE PTR [eax]
	sub	edx, 48					; 00000030H
	mov	DWORD PTR tv313[ebp], edx
	jmp	SHORT $LN47@ProcessCom
$LN44@ProcessCom:
	push	4
	mov	ecx, DWORD PTR _str$[ebp]
	call	??ATZSuperShortString@@QAEAADE@Z	; TZSuperShortString::operator[]
	movsx	eax, BYTE PTR [eax]
	cmp	eax, 97					; 00000061H
	jl	SHORT $LN45@ProcessCom
	push	4
	mov	ecx, DWORD PTR _str$[ebp]
	call	??ATZSuperShortString@@QAEAADE@Z	; TZSuperShortString::operator[]
	movsx	ecx, BYTE PTR [eax]
	cmp	ecx, 102				; 00000066H
	jg	SHORT $LN45@ProcessCom
	push	4
	mov	ecx, DWORD PTR _str$[ebp]
	call	??ATZSuperShortString@@QAEAADE@Z	; TZSuperShortString::operator[]
	movzx	edx, BYTE PTR [eax]
	sub	edx, 87					; 00000057H
	mov	DWORD PTR tv312[ebp], edx
	jmp	SHORT $LN46@ProcessCom
$LN45@ProcessCom:
	mov	DWORD PTR tv312[ebp], 0
$LN46@ProcessCom:
	mov	eax, DWORD PTR tv312[ebp]
	mov	DWORD PTR tv313[ebp], eax
$LN47@ProcessCom:
	mov	ecx, DWORD PTR tv313[ebp]
	mov	DWORD PTR _PTNum$[ebp], ecx

; 355  : 		PTState = (str[6]>='0'&&str[6]<='9')?str[6]-0x30:((str[6]>='a'&&str[6]<='f')?(unsigned char)str[6]-97+10:0);

	push	6
	mov	ecx, DWORD PTR _str$[ebp]
	call	??ATZSuperShortString@@QAEAADE@Z	; TZSuperShortString::operator[]
	movsx	eax, BYTE PTR [eax]
	cmp	eax, 48					; 00000030H
	jl	SHORT $LN48@ProcessCom
	push	6
	mov	ecx, DWORD PTR _str$[ebp]
	call	??ATZSuperShortString@@QAEAADE@Z	; TZSuperShortString::operator[]
	movsx	ecx, BYTE PTR [eax]
	cmp	ecx, 57					; 00000039H
	jg	SHORT $LN48@ProcessCom
	push	6
	mov	ecx, DWORD PTR _str$[ebp]
	call	??ATZSuperShortString@@QAEAADE@Z	; TZSuperShortString::operator[]
	movsx	edx, BYTE PTR [eax]
	sub	edx, 48					; 00000030H
	mov	DWORD PTR tv346[ebp], edx
	jmp	SHORT $LN51@ProcessCom
$LN48@ProcessCom:
	push	6
	mov	ecx, DWORD PTR _str$[ebp]
	call	??ATZSuperShortString@@QAEAADE@Z	; TZSuperShortString::operator[]
	movsx	eax, BYTE PTR [eax]
	cmp	eax, 97					; 00000061H
	jl	SHORT $LN49@ProcessCom
	push	6
	mov	ecx, DWORD PTR _str$[ebp]
	call	??ATZSuperShortString@@QAEAADE@Z	; TZSuperShortString::operator[]
	movsx	ecx, BYTE PTR [eax]
	cmp	ecx, 102				; 00000066H
	jg	SHORT $LN49@ProcessCom
	push	6
	mov	ecx, DWORD PTR _str$[ebp]
	call	??ATZSuperShortString@@QAEAADE@Z	; TZSuperShortString::operator[]
	movzx	edx, BYTE PTR [eax]
	sub	edx, 87					; 00000057H
	mov	DWORD PTR tv345[ebp], edx
	jmp	SHORT $LN50@ProcessCom
$LN49@ProcessCom:
	mov	DWORD PTR tv345[ebp], 0
$LN50@ProcessCom:
	mov	eax, DWORD PTR tv345[ebp]
	mov	DWORD PTR tv346[ebp], eax
$LN51@ProcessCom:
	mov	ecx, DWORD PTR tv346[ebp]
	mov	DWORD PTR _PTState$[ebp], ecx

; 356  : 		switch (PTState)

	mov	eax, DWORD PTR _PTState$[ebp]
	mov	DWORD PTR tv347[ebp], eax
	cmp	DWORD PTR tv347[ebp], 0
	je	SHORT $LN27@ProcessCom
	cmp	DWORD PTR tv347[ebp], 1
	je	SHORT $LN28@ProcessCom
	jmp	SHORT $LN4@ProcessCom
$LN27@ProcessCom:

; 357  : 		{
; 358  : 			case CCS_RMALARM:
; 359  : 				PostSysMessage(SCMD_RMOALARM, 0, PTNum);

	push	0
	movzx	eax, WORD PTR _PTNum$[ebp]
	push	eax
	push	0
	push	100					; 00000064H
	mov	ecx, DWORD PTR _this$[ebp]
	add	ecx, 24					; 00000018H
	call	?PostSysMessage@CSystemObject@@IAEXEEGI@Z ; CSystemObject::PostSysMessage

; 360  : 				break;

	jmp	SHORT $LN4@ProcessCom
$LN28@ProcessCom:

; 361  : 			case CCS_RMINUSE:
; 362  : 				PostSysMessage(SCMD_SETRMOINSERV, 0, PTNum);

	push	0
	movzx	eax, WORD PTR _PTNum$[ebp]
	push	eax
	push	0
	push	102					; 00000066H
	mov	ecx, DWORD PTR _this$[ebp]
	add	ecx, 24					; 00000018H
	call	?PostSysMessage@CSystemObject@@IAEXEEGI@Z ; CSystemObject::PostSysMessage
$LN4@ProcessCom:

; 363  : 				break;
; 364  : 		};
; 365  : 	} else if (str[1]=='S' && str[2]=='R')

	jmp	$LN1@ProcessCom
$LN25@ProcessCom:
	push	1
	mov	ecx, DWORD PTR _str$[ebp]
	call	??ATZSuperShortString@@QAEAADE@Z	; TZSuperShortString::operator[]
	movsx	eax, BYTE PTR [eax]
	cmp	eax, 83					; 00000053H
	jne	SHORT $LN29@ProcessCom
	push	2
	mov	ecx, DWORD PTR _str$[ebp]
	call	??ATZSuperShortString@@QAEAADE@Z	; TZSuperShortString::operator[]
	movsx	eax, BYTE PTR [eax]
	cmp	eax, 82					; 00000052H
	jne	SHORT $LN29@ProcessCom

; 366  : 	{
; 367  : 		for (int i=0; i<SLCount; i++)

	mov	DWORD PTR _i$2[ebp], 0
	jmp	SHORT $LN8@ProcessCom
$LN6@ProcessCom:
	mov	eax, DWORD PTR _i$2[ebp]
	add	eax, 1
	mov	DWORD PTR _i$2[ebp], eax
$LN8@ProcessCom:
	cmp	DWORD PTR _i$2[ebp], 12			; 0000000cH
	jge	SHORT $LN7@ProcessCom

; 368  : 			if (str[i+4]=='0') PostSysMessage(SCMD_RMOALARM, 0, i);

	mov	eax, DWORD PTR _i$2[ebp]
	add	eax, 4
	push	eax
	mov	ecx, DWORD PTR _str$[ebp]
	call	??ATZSuperShortString@@QAEAADE@Z	; TZSuperShortString::operator[]
	movsx	ecx, BYTE PTR [eax]
	cmp	ecx, 48					; 00000030H
	jne	SHORT $LN31@ProcessCom
	push	0
	movzx	eax, WORD PTR _i$2[ebp]
	push	eax
	push	0
	push	100					; 00000064H
	mov	ecx, DWORD PTR _this$[ebp]
	add	ecx, 24					; 00000018H
	call	?PostSysMessage@CSystemObject@@IAEXEEGI@Z ; CSystemObject::PostSysMessage
$LN31@ProcessCom:

; 369  : 	} else if (str[1]=='S' && str[2]=='T')

	jmp	SHORT $LN6@ProcessCom
$LN7@ProcessCom:
	jmp	$LN1@ProcessCom
$LN29@ProcessCom:
	push	1
	mov	ecx, DWORD PTR _str$[ebp]
	call	??ATZSuperShortString@@QAEAADE@Z	; TZSuperShortString::operator[]
	movsx	eax, BYTE PTR [eax]
	cmp	eax, 83					; 00000053H
	jne	$LN1@ProcessCom
	push	2
	mov	ecx, DWORD PTR _str$[ebp]
	call	??ATZSuperShortString@@QAEAADE@Z	; TZSuperShortString::operator[]
	movsx	eax, BYTE PTR [eax]
	cmp	eax, 84					; 00000054H
	jne	$LN1@ProcessCom

; 370  : 	{
; 371  : //		FLOG << "SLState::" << str.c_str() << endl;
; 372  : 		FLOG << time << "SLST-AMSC [";

	push	OFFSET ??_C@_0M@MKNJIHDK@SLST?9AMSC?5?$FL?$AA@
	push	OFFSET ?time@@YAAAVCSysOut@@AAV1@@Z	; time
	mov	ecx, OFFSET ?FLOG@@3VCSysOut@@A		; FLOG
	call	??6CSysOut@@QAEAAV0@P6AAAV0@AAV0@@Z@Z	; CSysOut::operator<<
	mov	ecx, eax
	call	??6CSysOut@@QAEAAV0@PBD@Z		; CSysOut::operator<<

; 373  : 		for (int i=0; i<SLCount; i++) 

	mov	DWORD PTR _i$1[ebp], 0
	jmp	SHORT $LN11@ProcessCom
$LN9@ProcessCom:
	mov	eax, DWORD PTR _i$1[ebp]
	add	eax, 1
	mov	DWORD PTR _i$1[ebp], eax
$LN11@ProcessCom:
	cmp	DWORD PTR _i$1[ebp], 12			; 0000000cH
	jge	$LN10@ProcessCom

; 374  : 		{
; 375  : 			FLOG << SLList[i].AlarmBlocking << SLList[i].MustBeBlocked << str[i+4] << "x";

	push	OFFSET ??_C@_01FJMABOPO@x?$AA@
	mov	eax, DWORD PTR _i$1[ebp]
	add	eax, 4
	push	eax
	mov	ecx, DWORD PTR _str$[ebp]
	call	??ATZSuperShortString@@QAEAADE@Z	; TZSuperShortString::operator[]
	mov	cl, BYTE PTR [eax]
	movzx	edx, cl
	push	edx
	imul	eax, DWORD PTR _i$1[ebp], 44
	mov	ecx, DWORD PTR _this$[ebp]
	movzx	edx, BYTE PTR [ecx+eax+76]
	push	edx
	imul	eax, DWORD PTR _i$1[ebp], 44
	mov	ecx, DWORD PTR _this$[ebp]
	movzx	edx, BYTE PTR [ecx+eax+77]
	push	edx
	mov	ecx, OFFSET ?FLOG@@3VCSysOut@@A		; FLOG
	call	??6CSysOut@@QAEAAV0@H@Z			; CSysOut::operator<<
	mov	ecx, eax
	call	??6CSysOut@@QAEAAV0@H@Z			; CSysOut::operator<<
	mov	ecx, eax
	call	??6CSysOut@@QAEAAV0@D@Z			; CSysOut::operator<<
	mov	ecx, eax
	call	??6CSysOut@@QAEAAV0@PBD@Z		; CSysOut::operator<<

; 376  : 			if (i!=SLCount-1) FLOG << ".";

	cmp	DWORD PTR _i$1[ebp], 11			; 0000000bH
	je	SHORT $LN33@ProcessCom
	push	OFFSET ??_C@_01LFCBOECM@?4?$AA@
	mov	ecx, OFFSET ?FLOG@@3VCSysOut@@A		; FLOG
	call	??6CSysOut@@QAEAAV0@PBD@Z		; CSysOut::operator<<
$LN33@ProcessCom:

; 377  : 			SLList[i].RTState = (str[i+4]>='0'&&str[i+4]<='9')?str[i+4]-0x30:((str[i+4]>='a'&&str[i+4]<='f')?(unsigned char)str[i+4]-97+10:0);

	mov	eax, DWORD PTR _i$1[ebp]
	add	eax, 4
	push	eax
	mov	ecx, DWORD PTR _str$[ebp]
	call	??ATZSuperShortString@@QAEAADE@Z	; TZSuperShortString::operator[]
	movsx	ecx, BYTE PTR [eax]
	cmp	ecx, 48					; 00000030H
	jl	SHORT $LN52@ProcessCom
	mov	edx, DWORD PTR _i$1[ebp]
	add	edx, 4
	push	edx
	mov	ecx, DWORD PTR _str$[ebp]
	call	??ATZSuperShortString@@QAEAADE@Z	; TZSuperShortString::operator[]
	movsx	eax, BYTE PTR [eax]
	cmp	eax, 57					; 00000039H
	jg	SHORT $LN52@ProcessCom
	mov	ecx, DWORD PTR _i$1[ebp]
	add	ecx, 4
	push	ecx
	mov	ecx, DWORD PTR _str$[ebp]
	call	??ATZSuperShortString@@QAEAADE@Z	; TZSuperShortString::operator[]
	movsx	edx, BYTE PTR [eax]
	sub	edx, 48					; 00000030H
	mov	DWORD PTR tv490[ebp], edx
	jmp	SHORT $LN55@ProcessCom
$LN52@ProcessCom:
	mov	eax, DWORD PTR _i$1[ebp]
	add	eax, 4
	push	eax
	mov	ecx, DWORD PTR _str$[ebp]
	call	??ATZSuperShortString@@QAEAADE@Z	; TZSuperShortString::operator[]
	movsx	ecx, BYTE PTR [eax]
	cmp	ecx, 97					; 00000061H
	jl	SHORT $LN53@ProcessCom
	mov	edx, DWORD PTR _i$1[ebp]
	add	edx, 4
	push	edx
	mov	ecx, DWORD PTR _str$[ebp]
	call	??ATZSuperShortString@@QAEAADE@Z	; TZSuperShortString::operator[]
	movsx	eax, BYTE PTR [eax]
	cmp	eax, 102				; 00000066H
	jg	SHORT $LN53@ProcessCom
	mov	ecx, DWORD PTR _i$1[ebp]
	add	ecx, 4
	push	ecx
	mov	ecx, DWORD PTR _str$[ebp]
	call	??ATZSuperShortString@@QAEAADE@Z	; TZSuperShortString::operator[]
	movzx	edx, BYTE PTR [eax]
	sub	edx, 87					; 00000057H
	mov	DWORD PTR tv489[ebp], edx
	jmp	SHORT $LN54@ProcessCom
$LN53@ProcessCom:
	mov	DWORD PTR tv489[ebp], 0
$LN54@ProcessCom:
	mov	eax, DWORD PTR tv489[ebp]
	mov	DWORD PTR tv490[ebp], eax
$LN55@ProcessCom:
	imul	ecx, DWORD PTR _i$1[ebp], 44
	mov	edx, DWORD PTR _this$[ebp]
	mov	eax, DWORD PTR tv490[ebp]
	mov	DWORD PTR [edx+ecx+72], eax

; 378  : 			if (SLList[i].RTState==CCS_DEFAULT && SLList[i].MustBeBlocked)

	imul	eax, DWORD PTR _i$1[ebp], 44
	mov	ecx, DWORD PTR _this$[ebp]
	cmp	DWORD PTR [ecx+eax+72], 0
	jne	SHORT $LN34@ProcessCom
	imul	eax, DWORD PTR _i$1[ebp], 44
	mov	ecx, DWORD PTR _this$[ebp]
	movzx	edx, BYTE PTR [ecx+eax+76]
	test	edx, edx
	je	SHORT $LN34@ProcessCom

; 379  : 				SetSLState(i, CCS_SLBLOCK);

	push	13					; 0000000dH
	mov	eax, DWORD PTR _i$1[ebp]
	push	eax
	mov	ecx, DWORD PTR _this$[ebp]
	call	?SetSLState@CSLWorkSet@@QAEXII@Z	; CSLWorkSet::SetSLState
$LN34@ProcessCom:

; 380  : 		};

	jmp	$LN9@ProcessCom
$LN10@ProcessCom:

; 381  : 		FLOG << "]" << endl;

	push	OFFSET ?endl@@YAAAVCSysOut@@AAV1@@Z	; endl
	push	OFFSET ??_C@_01LBDDMOBJ@?$FN?$AA@
	mov	ecx, OFFSET ?FLOG@@3VCSysOut@@A		; FLOG
	call	??6CSysOut@@QAEAAV0@PBD@Z		; CSysOut::operator<<
	mov	ecx, eax
	call	??6CSysOut@@QAEAAV0@P6AAAV0@AAV0@@Z@Z	; CSysOut::operator<<
$LN1@ProcessCom:

; 382  : 
; 383  : 	};
; 384  : }

	pop	edi
	pop	esi
	pop	ebx
	add	esp, 260				; 00000104H
	cmp	ebp, esp
	call	__RTC_CheckEsp
	mov	esp, ebp
	pop	ebp
	ret	4
	npad	1
$LN57@ProcessCom:
	DD	$LN21@ProcessCom
	DD	$LN16@ProcessCom
	DD	$LN20@ProcessCom
	DD	$LN24@ProcessCom
	DD	$LN18@ProcessCom
	DD	$LN2@ProcessCom
$LN56@ProcessCom:
	DB	0
	DB	1
	DB	5
	DB	2
	DB	5
	DB	5
	DB	5
	DB	3
	DB	5
	DB	5
	DB	5
	DB	5
	DB	5
	DB	5
	DB	4
?ProcessComCommand@CSLWorkSet@@IAEXAAVTZSuperShortString@@@Z ENDP ; CSLWorkSet::ProcessComCommand
_TEXT	ENDS
; Function compile flags: /Odtp /RTCsu /ZI
; File c:\users\smith\projects\callcenter\slworkset.cpp
;	COMDAT ?Execute@CSLWorkSet@@MAEXXZ
_TEXT	SEGMENT
tv195 = -348						; size = 4
tv201 = -344						; size = 4
tv194 = -344						; size = 4
tv192 = -344						; size = 4
tv199 = -340						; size = 4
tv196 = -340						; size = 4
tv181 = -340						; size = 4
tv73 = -340						; size = 4
tv200 = -337						; size = 1
tv198 = -337						; size = 1
tv197 = -337						; size = 1
$T2 = -332						; size = 4
$T3 = -320						; size = 4
$T4 = -308						; size = 8
_i$5 = -100						; size = 4
_cbw$ = -88						; size = 4
_outstr$ = -76						; size = 4
_str$ = -64						; size = 8
_CS$ = -48						; size = 12
_this$ = -28						; size = 4
__$ArrayPad$ = -20					; size = 4
__$EHRec$ = -16						; size = 16
?Execute@CSLWorkSet@@MAEXXZ PROC			; CSLWorkSet::Execute, COMDAT
; _this$ = ecx

; 263  : {

	push	ebp
	mov	ebp, esp
	push	-1
	push	__ehhandler$?Execute@CSLWorkSet@@MAEXXZ
	mov	eax, DWORD PTR fs:0
	push	eax
	push	ecx
	sub	esp, 332				; 0000014cH
	push	ebx
	push	esi
	push	edi
	push	ecx
	lea	edi, DWORD PTR [ebp-348]
	mov	ecx, 83					; 00000053H
	mov	eax, -858993460				; ccccccccH
	rep stosd
	pop	ecx
	mov	eax, DWORD PTR ___security_cookie
	xor	eax, ebp
	mov	DWORD PTR __$ArrayPad$[ebp], eax
	push	eax
	lea	eax, DWORD PTR __$EHRec$[ebp+4]
	mov	DWORD PTR fs:0, eax
	mov	DWORD PTR __$EHRec$[ebp], esp
	mov	DWORD PTR _this$[ebp], ecx

; 264  : 	FLOG << time << "Start CSLWorkSet" << endl;

	push	OFFSET ?endl@@YAAAVCSysOut@@AAV1@@Z	; endl
	push	OFFSET ??_C@_0BB@MFLPPJFO@Start?5CSLWorkSet?$AA@
	push	OFFSET ?time@@YAAAVCSysOut@@AAV1@@Z	; time
	mov	ecx, OFFSET ?FLOG@@3VCSysOut@@A		; FLOG
	call	??6CSysOut@@QAEAAV0@P6AAAV0@AAV0@@Z@Z	; CSysOut::operator<<
	mov	ecx, eax
	call	??6CSysOut@@QAEAAV0@PBD@Z		; CSysOut::operator<<
	mov	ecx, eax
	call	??6CSysOut@@QAEAAV0@P6AAAV0@AAV0@@Z@Z	; CSysOut::operator<<

; 265  : 
; 266  : COMSTAT CS;
; 267  : TZSuperShortString str;

	lea	ecx, DWORD PTR _str$[ebp]
	call	??0TZSuperShortString@@QAE@XZ		; TZSuperShortString::TZSuperShortString
	mov	DWORD PTR __$EHRec$[ebp+12], 0

; 268  : TZSuperShortString *outstr;
; 269  : DWORD cbw;
; 270  : 
; 271  : 	InitPort();

	mov	ecx, DWORD PTR _this$[ebp]
	call	?InitPort@CSLWorkSet@@AAEKXZ		; CSLWorkSet::InitPort

; 272  : 
; 273  : 	LockAllSL();

	mov	ecx, DWORD PTR _this$[ebp]
	call	?LockAllSL@CSLWorkSet@@QAEXXZ		; CSLWorkSet::LockAllSL

; 274  : 	for (int i=0; i<15; i++) SetSLState(i, 0xf);

	mov	DWORD PTR _i$5[ebp], 0
	jmp	SHORT $LN4@Execute
$LN2@Execute:
	mov	eax, DWORD PTR _i$5[ebp]
	add	eax, 1
	mov	DWORD PTR _i$5[ebp], eax
$LN4@Execute:
	cmp	DWORD PTR _i$5[ebp], 15			; 0000000fH
	jge	SHORT $LN3@Execute
	push	15					; 0000000fH
	mov	eax, DWORD PTR _i$5[ebp]
	push	eax
	mov	ecx, DWORD PTR _this$[ebp]
	call	?SetSLState@CSLWorkSet@@QAEXII@Z	; CSLWorkSet::SetSLState
	jmp	SHORT $LN2@Execute
$LN3@Execute:

; 275  : 	RequestSLsState();

	mov	ecx, DWORD PTR _this$[ebp]
	call	?RequestSLsState@CSLWorkSet@@QAEXXZ	; CSLWorkSet::RequestSLsState

; 276  : 	RequestRMsState();

	mov	ecx, DWORD PTR _this$[ebp]
	call	?RequestRMsState@CSLWorkSet@@QAEXXZ	; CSLWorkSet::RequestRMsState

; 277  : 
; 278  : 	CS.cbInQue = 0;

	mov	DWORD PTR _CS$[ebp+4], 0

; 279  : 	HCB.GetMaxSize(CS.cbInQue);

	mov	eax, DWORD PTR _CS$[ebp+4]
	push	eax
	mov	ecx, DWORD PTR _this$[ebp]
	add	ecx, 564				; 00000234H
	call	?GetMaxSize@HCharBuffer@@QAEKK@Z	; HCharBuffer::GetMaxSize
$LN7@Execute:

; 280  : 
; 281  : 	for (;!Terminated;)

	mov	eax, DWORD PTR _this$[ebp]
	movzx	ecx, BYTE PTR [eax+4]
	test	ecx, ecx
	jne	$LN6@Execute

; 282  : 	{
; 283  : //		cout << "aa" << HCB.GetMaxSize(CS.cbInQue) << endl;
; 284  : 		try

	mov	BYTE PTR __$EHRec$[ebp+12], 1

; 285  : 		{
; 286  : 			ReadFile(hPort, HCB.GetBufPtr(), HCB.GetMaxSize(100), HCB.GetLPCBR(), NULL);

	mov	ecx, DWORD PTR _this$[ebp]
	add	ecx, 564				; 00000234H
	call	?GetLPCBR@HCharBuffer@@QAEPAKXZ		; HCharBuffer::GetLPCBR
	mov	DWORD PTR tv73[ebp], eax
	push	100					; 00000064H
	mov	ecx, DWORD PTR _this$[ebp]
	add	ecx, 564				; 00000234H
	call	?GetMaxSize@HCharBuffer@@QAEKK@Z	; HCharBuffer::GetMaxSize
	mov	DWORD PTR tv194[ebp], eax
	mov	ecx, DWORD PTR _this$[ebp]
	add	ecx, 564				; 00000234H
	call	?GetBufPtr@HCharBuffer@@QAEPAXXZ	; HCharBuffer::GetBufPtr
	mov	DWORD PTR tv195[ebp], eax
	mov	esi, esp
	push	0
	mov	eax, DWORD PTR tv73[ebp]
	push	eax
	mov	ecx, DWORD PTR tv194[ebp]
	push	ecx
	mov	edx, DWORD PTR tv195[ebp]
	push	edx
	mov	eax, DWORD PTR _this$[ebp]
	mov	ecx, DWORD PTR [eax+32]
	push	ecx
	call	DWORD PTR __imp__ReadFile@20
	cmp	esi, esp
	call	__RTC_CheckEsp
$LN10@Execute:

; 287  : 			for (;;)
; 288  : 			{
; 289  : 				HCB.CheckBuffer();

	mov	ecx, DWORD PTR _this$[ebp]
	add	ecx, 564				; 00000234H
	call	?CheckBuffer@HCharBuffer@@QAEXXZ	; HCharBuffer::CheckBuffer

; 290  : 				str = HCB.GetCommand();

	lea	eax, DWORD PTR $T4[ebp]
	push	eax
	mov	ecx, DWORD PTR _this$[ebp]
	add	ecx, 564				; 00000234H
	call	?GetCommand@HCharBuffer@@QAE?AVTZSuperShortString@@XZ ; HCharBuffer::GetCommand
	mov	DWORD PTR tv196[ebp], eax
	mov	ecx, DWORD PTR tv196[ebp]
	mov	DWORD PTR tv192[ebp], ecx
	mov	BYTE PTR __$EHRec$[ebp+12], 2
	mov	edx, DWORD PTR tv192[ebp]
	push	edx
	lea	ecx, DWORD PTR _str$[ebp]
	call	??4TZSuperShortString@@QAEXABV0@@Z	; TZSuperShortString::operator=
	mov	BYTE PTR __$EHRec$[ebp+12], 1
	lea	ecx, DWORD PTR $T4[ebp]
	call	??1TZSuperShortString@@QAE@XZ		; TZSuperShortString::~TZSuperShortString

; 291  : 				if (str.length()!=0)

	lea	ecx, DWORD PTR _str$[ebp]
	call	?length@TZSuperShortString@@QBEEXZ	; TZSuperShortString::length
	mov	BYTE PTR tv197[ebp], al
	movzx	eax, BYTE PTR tv197[ebp]
	test	eax, eax
	je	SHORT $LN12@Execute

; 292  : 				{
; 293  : 					ProcessComCommand(str);

	lea	eax, DWORD PTR _str$[ebp]
	push	eax
	mov	ecx, DWORD PTR _this$[ebp]
	call	?ProcessComCommand@CSLWorkSet@@IAEXAAVTZSuperShortString@@@Z ; CSLWorkSet::ProcessComCommand

; 294  : 				} else break;

	jmp	SHORT $LN13@Execute
$LN12@Execute:
	jmp	SHORT $LN9@Execute
$LN13@Execute:

; 295  : 			};

	jmp	$LN10@Execute
$LN9@Execute:

; 296  : 			if (!OutboundQueue.IsEmpty())

	mov	ecx, DWORD PTR _this$[ebp]
	add	ecx, 608				; 00000260H
	call	?IsEmpty@?$TCSPtrQueue@VTZSuperShortString@@@@QAE_NXZ ; TCSPtrQueue<TZSuperShortString>::IsEmpty
	mov	BYTE PTR tv198[ebp], al
	movzx	eax, BYTE PTR tv198[ebp]
	test	eax, eax
	jne	$LN14@Execute

; 297  : 			{
; 298  : 				outstr = OutboundQueue.Pop();

	mov	ecx, DWORD PTR _this$[ebp]
	add	ecx, 608				; 00000260H
	call	?Pop@?$TCSPtrQueue@VTZSuperShortString@@@@QAEPAVTZSuperShortString@@XZ ; TCSPtrQueue<TZSuperShortString>::Pop
	mov	DWORD PTR tv199[ebp], eax
	mov	eax, DWORD PTR tv199[ebp]
	mov	DWORD PTR _outstr$[ebp], eax

; 299  : //					FLOG << "PortOut: " << outstr->c_str() << endl;
; 300  : 				WriteFile(hPort, outstr->c_str(), outstr->length(), &cbw, NULL);

	mov	ecx, DWORD PTR _outstr$[ebp]
	call	?length@TZSuperShortString@@QBEEXZ	; TZSuperShortString::length
	mov	BYTE PTR tv200[ebp], al
	mov	ecx, DWORD PTR _outstr$[ebp]
	call	?c_str@TZSuperShortString@@QBEPBDXZ	; TZSuperShortString::c_str
	mov	DWORD PTR tv201[ebp], eax
	mov	esi, esp
	push	0
	lea	eax, DWORD PTR _cbw$[ebp]
	push	eax
	movzx	ecx, BYTE PTR tv200[ebp]
	push	ecx
	mov	edx, DWORD PTR tv201[ebp]
	push	edx
	mov	eax, DWORD PTR _this$[ebp]
	mov	ecx, DWORD PTR [eax+32]
	push	ecx
	call	DWORD PTR __imp__WriteFile@20
	cmp	esi, esp
	call	__RTC_CheckEsp

; 301  : 				delete outstr;

	mov	eax, DWORD PTR _outstr$[ebp]
	mov	DWORD PTR $T2[ebp], eax
	mov	ecx, DWORD PTR $T2[ebp]
	mov	DWORD PTR $T3[ebp], ecx
	cmp	DWORD PTR $T3[ebp], 0
	je	SHORT $LN16@Execute
	push	1
	mov	ecx, DWORD PTR $T3[ebp]
	call	??_GTZSuperShortString@@QAEPAXI@Z
	mov	DWORD PTR tv181[ebp], eax
	jmp	SHORT $LN14@Execute
$LN16@Execute:
	mov	DWORD PTR tv181[ebp], 0
$LN14@Execute:

; 302  : 			};
; 303  : 		}

	jmp	SHORT $LN18@Execute
__catch$?Execute@CSLWorkSet@@MAEXXZ$0:

; 304  : 		catch (...)
; 305  : 		{
; 306  : 			FLOG << time << "Exception in SLWorkSet" << endl;

	push	OFFSET ?endl@@YAAAVCSysOut@@AAV1@@Z	; endl
	push	OFFSET ??_C@_0BH@NCEHHEAG@Exception?5in?5SLWorkSet?$AA@
	push	OFFSET ?time@@YAAAVCSysOut@@AAV1@@Z	; time
	mov	ecx, OFFSET ?FLOG@@3VCSysOut@@A		; FLOG
	call	??6CSysOut@@QAEAAV0@P6AAAV0@AAV0@@Z@Z	; CSysOut::operator<<
	mov	ecx, eax
	call	??6CSysOut@@QAEAAV0@PBD@Z		; CSysOut::operator<<
	mov	ecx, eax
	call	??6CSysOut@@QAEAAV0@P6AAAV0@AAV0@@Z@Z	; CSysOut::operator<<

; 307  : 		};

	mov	eax, $LN23@Execute
	ret	0
$LN18@Execute:
	mov	DWORD PTR __$EHRec$[ebp+12], 0
	jmp	SHORT __tryend$?Execute@CSLWorkSet@@MAEXXZ$1
$LN23@Execute:
	mov	DWORD PTR __$EHRec$[ebp+12], 0
__tryend$?Execute@CSLWorkSet@@MAEXXZ$1:

; 308  : 	};

	jmp	$LN7@Execute
$LN6@Execute:

; 309  : }

	mov	DWORD PTR __$EHRec$[ebp+12], -1
	lea	ecx, DWORD PTR _str$[ebp]
	call	??1TZSuperShortString@@QAE@XZ		; TZSuperShortString::~TZSuperShortString
	push	edx
	mov	ecx, ebp
	push	eax
	lea	edx, DWORD PTR $LN29@Execute
	call	@_RTC_CheckStackVars@8
	pop	eax
	pop	edx
	mov	ecx, DWORD PTR __$EHRec$[ebp+4]
	mov	DWORD PTR fs:0, ecx
	pop	ecx
	pop	edi
	pop	esi
	pop	ebx
	mov	ecx, DWORD PTR __$ArrayPad$[ebp]
	xor	ecx, ebp
	call	@__security_check_cookie@4
	add	esp, 348				; 0000015cH
	cmp	ebp, esp
	call	__RTC_CheckEsp
	mov	esp, ebp
	pop	ebp
	ret	0
$LN29@Execute:
	DD	3
	DD	$LN28@Execute
$LN28@Execute:
	DD	-48					; ffffffd0H
	DD	12					; 0000000cH
	DD	$LN24@Execute
	DD	-64					; ffffffc0H
	DD	8
	DD	$LN25@Execute
	DD	-88					; ffffffa8H
	DD	4
	DD	$LN26@Execute
$LN26@Execute:
	DB	99					; 00000063H
	DB	98					; 00000062H
	DB	119					; 00000077H
	DB	0
$LN25@Execute:
	DB	115					; 00000073H
	DB	116					; 00000074H
	DB	114					; 00000072H
	DB	0
$LN24@Execute:
	DB	67					; 00000043H
	DB	83					; 00000053H
	DB	0
_TEXT	ENDS
;	COMDAT text$x
text$x	SEGMENT
__unwindfunclet$?Execute@CSLWorkSet@@MAEXXZ$2:
	lea	ecx, DWORD PTR _str$[ebp]
	jmp	??1TZSuperShortString@@QAE@XZ		; TZSuperShortString::~TZSuperShortString
__unwindfunclet$?Execute@CSLWorkSet@@MAEXXZ$3:
	lea	ecx, DWORD PTR $T4[ebp]
	jmp	??1TZSuperShortString@@QAE@XZ		; TZSuperShortString::~TZSuperShortString
__ehhandler$?Execute@CSLWorkSet@@MAEXXZ:
	mov	edx, DWORD PTR [esp+8]
	lea	eax, DWORD PTR [edx+12]
	mov	ecx, DWORD PTR [edx-352]
	xor	ecx, eax
	call	@__security_check_cookie@4
	mov	ecx, DWORD PTR [edx-8]
	xor	ecx, eax
	call	@__security_check_cookie@4
	mov	eax, OFFSET __ehfuncinfo$?Execute@CSLWorkSet@@MAEXXZ
	jmp	___CxxFrameHandler3
text$x	ENDS
?Execute@CSLWorkSet@@MAEXXZ ENDP			; CSLWorkSet::Execute
; Function compile flags: /Odtp /RTCsu /ZI
; File c:\users\smith\projects\callcenter\slworkset.cpp
;	COMDAT ?CheckSLCount@CSLWorkSet@@QAEXIII@Z
_TEXT	SEGMENT
_i$ = -32						; size = 4
_TAC$ = -20						; size = 4
_this$ = -8						; size = 4
_SGUID$ = 8						; size = 4
_ActSLCount$ = 12					; size = 4
_FirstSL$ = 16						; size = 4
?CheckSLCount@CSLWorkSet@@QAEXIII@Z PROC		; CSLWorkSet::CheckSLCount, COMDAT
; _this$ = ecx

; 206  : {

	push	ebp
	mov	ebp, esp
	sub	esp, 228				; 000000e4H
	push	ebx
	push	esi
	push	edi
	push	ecx
	lea	edi, DWORD PTR [ebp-228]
	mov	ecx, 57					; 00000039H
	mov	eax, -858993460				; ccccccccH
	rep stosd
	pop	ecx
	mov	DWORD PTR _this$[ebp], ecx

; 207  : __int32 TAC=0, i;

	mov	DWORD PTR _TAC$[ebp], 0

; 208  : 	for (i=0; i<SLCount; i++)

	mov	DWORD PTR _i$[ebp], 0
	jmp	SHORT $LN4@CheckSLCou
$LN2@CheckSLCou:
	mov	eax, DWORD PTR _i$[ebp]
	add	eax, 1
	mov	DWORD PTR _i$[ebp], eax
$LN4@CheckSLCou:
	cmp	DWORD PTR _i$[ebp], 12			; 0000000cH
	jge	SHORT $LN3@CheckSLCou

; 209  : 		if (SLList[i].SLServiceGroup==SGUID && SLList[i].RTState!=CCS_BLOCKED &&
; 210  : 			SLList[i].RTState!=CCS_ALARM2 && SLList[i].MustBeBlocked!=true) TAC++;

	imul	eax, DWORD PTR _i$[ebp], 44
	mov	ecx, DWORD PTR _this$[ebp]
	mov	edx, DWORD PTR [ecx+eax+36]
	cmp	edx, DWORD PTR _SGUID$[ebp]
	jne	SHORT $LN11@CheckSLCou
	imul	eax, DWORD PTR _i$[ebp], 44
	mov	ecx, DWORD PTR _this$[ebp]
	cmp	DWORD PTR [ecx+eax+72], 14		; 0000000eH
	je	SHORT $LN11@CheckSLCou
	imul	eax, DWORD PTR _i$[ebp], 44
	mov	ecx, DWORD PTR _this$[ebp]
	cmp	DWORD PTR [ecx+eax+72], 3
	je	SHORT $LN11@CheckSLCou
	imul	eax, DWORD PTR _i$[ebp], 44
	mov	ecx, DWORD PTR _this$[ebp]
	movzx	edx, BYTE PTR [ecx+eax+76]
	cmp	edx, 1
	je	SHORT $LN11@CheckSLCou
	mov	eax, DWORD PTR _TAC$[ebp]
	add	eax, 1
	mov	DWORD PTR _TAC$[ebp], eax
$LN11@CheckSLCou:

; 211  : 	FLOG << time << "CHECK SL: " << SGUID << " " << ActSLCount << " " << TAC << endl;

	jmp	SHORT $LN2@CheckSLCou
$LN3@CheckSLCou:
	push	OFFSET ?endl@@YAAAVCSysOut@@AAV1@@Z	; endl
	mov	eax, DWORD PTR _TAC$[ebp]
	push	eax
	push	OFFSET ??_C@_01CLKCMJKC@?5?$AA@
	mov	ecx, DWORD PTR _ActSLCount$[ebp]
	push	ecx
	push	OFFSET ??_C@_01CLKCMJKC@?5?$AA@
	mov	edx, DWORD PTR _SGUID$[ebp]
	push	edx
	push	OFFSET ??_C@_0L@DGABMHCA@CHECK?5SL?3?5?$AA@
	push	OFFSET ?time@@YAAAVCSysOut@@AAV1@@Z	; time
	mov	ecx, OFFSET ?FLOG@@3VCSysOut@@A		; FLOG
	call	??6CSysOut@@QAEAAV0@P6AAAV0@AAV0@@Z@Z	; CSysOut::operator<<
	mov	ecx, eax
	call	??6CSysOut@@QAEAAV0@PBD@Z		; CSysOut::operator<<
	mov	ecx, eax
	call	??6CSysOut@@QAEAAV0@I@Z			; CSysOut::operator<<
	mov	ecx, eax
	call	??6CSysOut@@QAEAAV0@PBD@Z		; CSysOut::operator<<
	mov	ecx, eax
	call	??6CSysOut@@QAEAAV0@I@Z			; CSysOut::operator<<
	mov	ecx, eax
	call	??6CSysOut@@QAEAAV0@PBD@Z		; CSysOut::operator<<
	mov	ecx, eax
	call	??6CSysOut@@QAEAAV0@H@Z			; CSysOut::operator<<
	mov	ecx, eax
	call	??6CSysOut@@QAEAAV0@P6AAAV0@AAV0@@Z@Z	; CSysOut::operator<<

; 212  : 
; 213  : 	if (TAC>=ActSLCount) //   

	mov	eax, DWORD PTR _TAC$[ebp]
	cmp	eax, DWORD PTR _ActSLCount$[ebp]
	jb	$LN12@CheckSLCou

; 214  : 	{
; 215  : 		for (i=SLCount-1; i>=0; i--)

	mov	DWORD PTR _i$[ebp], 11			; 0000000bH
	jmp	SHORT $LN7@CheckSLCou
$LN5@CheckSLCou:
	mov	eax, DWORD PTR _i$[ebp]
	sub	eax, 1
	mov	DWORD PTR _i$[ebp], eax
$LN7@CheckSLCou:
	cmp	DWORD PTR _i$[ebp], 0
	jl	$LN6@CheckSLCou

; 216  : 		{
; 217  : 			if (TAC<=ActSLCount) return;

	mov	eax, DWORD PTR _TAC$[ebp]
	cmp	eax, DWORD PTR _ActSLCount$[ebp]
	ja	SHORT $LN14@CheckSLCou
	jmp	$LN1@CheckSLCou
$LN14@CheckSLCou:

; 218  : 			if (SLList[i].SLServiceGroup==SGUID && SLList[i].RTState!=CCS_BLOCKED &&
; 219  : 				SLList[i].RTState!=CCS_ALARM2 && SLList[i].MustBeBlocked!=true)

	imul	eax, DWORD PTR _i$[ebp], 44
	mov	ecx, DWORD PTR _this$[ebp]
	mov	edx, DWORD PTR [ecx+eax+36]
	cmp	edx, DWORD PTR _SGUID$[ebp]
	jne	SHORT $LN15@CheckSLCou
	imul	eax, DWORD PTR _i$[ebp], 44
	mov	ecx, DWORD PTR _this$[ebp]
	cmp	DWORD PTR [ecx+eax+72], 14		; 0000000eH
	je	SHORT $LN15@CheckSLCou
	imul	eax, DWORD PTR _i$[ebp], 44
	mov	ecx, DWORD PTR _this$[ebp]
	cmp	DWORD PTR [ecx+eax+72], 3
	je	SHORT $LN15@CheckSLCou
	imul	eax, DWORD PTR _i$[ebp], 44
	mov	ecx, DWORD PTR _this$[ebp]
	movzx	edx, BYTE PTR [ecx+eax+76]
	cmp	edx, 1
	je	SHORT $LN15@CheckSLCou

; 220  : 			{
; 221  : 				SLList[i].MustBeBlocked = true;

	imul	eax, DWORD PTR _i$[ebp], 44
	mov	ecx, DWORD PTR _this$[ebp]
	mov	BYTE PTR [ecx+eax+76], 1

; 222  : 				TAC--;

	mov	eax, DWORD PTR _TAC$[ebp]
	sub	eax, 1
	mov	DWORD PTR _TAC$[ebp], eax
$LN15@CheckSLCou:

; 223  : 			};
; 224  : 
; 225  : 			if (SLList[i].SLServiceGroup==SGUID && ActSLCount==0 && SLList[i].RTState!=CCS_ALARM2)

	imul	eax, DWORD PTR _i$[ebp], 44
	mov	ecx, DWORD PTR _this$[ebp]
	mov	edx, DWORD PTR [ecx+eax+36]
	cmp	edx, DWORD PTR _SGUID$[ebp]
	jne	SHORT $LN16@CheckSLCou
	cmp	DWORD PTR _ActSLCount$[ebp], 0
	jne	SHORT $LN16@CheckSLCou
	imul	eax, DWORD PTR _i$[ebp], 44
	mov	ecx, DWORD PTR _this$[ebp]
	cmp	DWORD PTR [ecx+eax+72], 3
	je	SHORT $LN16@CheckSLCou

; 226  : 			{
; 227  : 				SLList[i].MustBeBlocked = true;

	imul	eax, DWORD PTR _i$[ebp], 44
	mov	ecx, DWORD PTR _this$[ebp]
	mov	BYTE PTR [ecx+eax+76], 1

; 228  : 				SetSLState(i, CCS_SLBLOCK);

	push	13					; 0000000dH
	mov	eax, DWORD PTR _i$[ebp]
	push	eax
	mov	ecx, DWORD PTR _this$[ebp]
	call	?SetSLState@CSLWorkSet@@QAEXII@Z	; CSLWorkSet::SetSLState
$LN16@CheckSLCou:

; 229  : 			};
; 230  : 		};

	jmp	$LN5@CheckSLCou
$LN6@CheckSLCou:

; 231  : 		return;

	jmp	$LN1@CheckSLCou

; 232  : 	} 
; 233  : 	else

	jmp	$LN1@CheckSLCou
$LN12@CheckSLCou:

; 234  : 	{
; 235  : 		for (i=0; i<SLCount; i++) //    

	mov	DWORD PTR _i$[ebp], 0
	jmp	SHORT $LN10@CheckSLCou
$LN8@CheckSLCou:
	mov	eax, DWORD PTR _i$[ebp]
	add	eax, 1
	mov	DWORD PTR _i$[ebp], eax
$LN10@CheckSLCou:
	cmp	DWORD PTR _i$[ebp], 12			; 0000000cH
	jge	SHORT $LN1@CheckSLCou

; 236  : 		{
; 237  : 			if (TAC>=ActSLCount) return;

	mov	eax, DWORD PTR _TAC$[ebp]
	cmp	eax, DWORD PTR _ActSLCount$[ebp]
	jb	SHORT $LN17@CheckSLCou
	jmp	SHORT $LN1@CheckSLCou
$LN17@CheckSLCou:

; 238  : 			if (SLList[i].SLServiceGroup==SGUID && 
; 239  : 				(SLList[i].RTState==CCS_BLOCKED || SLList[i].RTState==CCS_DEFAULT) &&

	imul	eax, DWORD PTR _i$[ebp], 44
	mov	ecx, DWORD PTR _this$[ebp]
	mov	edx, DWORD PTR [ecx+eax+36]
	cmp	edx, DWORD PTR _SGUID$[ebp]
	jne	SHORT $LN18@CheckSLCou
	imul	eax, DWORD PTR _i$[ebp], 44
	mov	ecx, DWORD PTR _this$[ebp]
	cmp	DWORD PTR [ecx+eax+72], 14		; 0000000eH
	je	SHORT $LN19@CheckSLCou
	imul	eax, DWORD PTR _i$[ebp], 44
	mov	ecx, DWORD PTR _this$[ebp]
	cmp	DWORD PTR [ecx+eax+72], 0
	jne	SHORT $LN18@CheckSLCou
$LN19@CheckSLCou:
	imul	eax, DWORD PTR _i$[ebp], 44
	mov	ecx, DWORD PTR _this$[ebp]
	movzx	edx, BYTE PTR [ecx+eax+76]
	cmp	edx, 1
	jne	SHORT $LN18@CheckSLCou

; 240  : 				SLList[i].MustBeBlocked==true)
; 241  : 			{
; 242  : 				SLList[i].MustBeBlocked=false;

	imul	eax, DWORD PTR _i$[ebp], 44
	mov	ecx, DWORD PTR _this$[ebp]
	mov	BYTE PTR [ecx+eax+76], 0

; 243  : 				SetSLState(i, CCS_SLSETTODEFAULT);

	push	15					; 0000000fH
	mov	eax, DWORD PTR _i$[ebp]
	push	eax
	mov	ecx, DWORD PTR _this$[ebp]
	call	?SetSLState@CSLWorkSet@@QAEXII@Z	; CSLWorkSet::SetSLState

; 244  : 				TAC++;

	mov	eax, DWORD PTR _TAC$[ebp]
	add	eax, 1
	mov	DWORD PTR _TAC$[ebp], eax
$LN18@CheckSLCou:

; 245  : 			};
; 246  : 		};

	jmp	SHORT $LN8@CheckSLCou
$LN1@CheckSLCou:

; 247  : 	};
; 248  : }

	pop	edi
	pop	esi
	pop	ebx
	add	esp, 228				; 000000e4H
	cmp	ebp, esp
	call	__RTC_CheckEsp
	mov	esp, ebp
	pop	ebp
	ret	12					; 0000000cH
?CheckSLCount@CSLWorkSet@@QAEXIII@Z ENDP		; CSLWorkSet::CheckSLCount
_TEXT	ENDS
; Function compile flags: /Odtp /RTCsu /ZI
; File c:\users\smith\projects\callcenter\slworkset.cpp
;	COMDAT ?LockAllSL@CSLWorkSet@@QAEXXZ
_TEXT	SEGMENT
_i$1 = -32						; size = 4
_k$ = -20						; size = 4
_this$ = -8						; size = 4
?LockAllSL@CSLWorkSet@@QAEXXZ PROC			; CSLWorkSet::LockAllSL, COMDAT
; _this$ = ecx

; 251  : {

	push	ebp
	mov	ebp, esp
	sub	esp, 228				; 000000e4H
	push	ebx
	push	esi
	push	edi
	push	ecx
	lea	edi, DWORD PTR [ebp-228]
	mov	ecx, 57					; 00000039H
	mov	eax, -858993460				; ccccccccH
	rep stosd
	pop	ecx
	mov	DWORD PTR _this$[ebp], ecx

; 252  : unsigned k=SL_UNATTACHED;

	mov	DWORD PTR _k$[ebp], 1

; 253  : 
; 254  : 	for (int i=0; i<12; i++) 

	mov	DWORD PTR _i$1[ebp], 0
	jmp	SHORT $LN4@LockAllSL
$LN2@LockAllSL:
	mov	eax, DWORD PTR _i$1[ebp]
	add	eax, 1
	mov	DWORD PTR _i$1[ebp], eax
$LN4@LockAllSL:
	cmp	DWORD PTR _i$1[ebp], 12			; 0000000cH
	jge	SHORT $LN1@LockAllSL

; 255  : 	{
; 256  : 		SetSLState(i, CCS_SLSETTODEFAULT);

	push	15					; 0000000fH
	mov	eax, DWORD PTR _i$1[ebp]
	push	eax
	mov	ecx, DWORD PTR _this$[ebp]
	call	?SetSLState@CSLWorkSet@@QAEXII@Z	; CSLWorkSet::SetSLState

; 257  : 			SLList[i].MustBeBlocked = true;

	imul	eax, DWORD PTR _i$1[ebp], 44
	mov	ecx, DWORD PTR _this$[ebp]
	mov	BYTE PTR [ecx+eax+76], 1

; 258  : 	};

	jmp	SHORT $LN2@LockAllSL
$LN1@LockAllSL:

; 259  : }

	pop	edi
	pop	esi
	pop	ebx
	add	esp, 228				; 000000e4H
	cmp	ebp, esp
	call	__RTC_CheckEsp
	mov	esp, ebp
	pop	ebp
	ret	0
?LockAllSL@CSLWorkSet@@QAEXXZ ENDP			; CSLWorkSet::LockAllSL
_TEXT	ENDS
; Function compile flags: /Odtp /RTCsu /ZI
; File c:\users\smith\projects\callcenter\slworkset.cpp
;	COMDAT ?RequestRMsState@CSLWorkSet@@QAEXXZ
_TEXT	SEGMENT
tv78 = -244						; size = 4
$T2 = -236						; size = 4
$T3 = -224						; size = 4
_this$ = -20						; size = 4
__$EHRec$ = -12						; size = 12
?RequestRMsState@CSLWorkSet@@QAEXXZ PROC		; CSLWorkSet::RequestRMsState, COMDAT
; _this$ = ecx

; 164  : {

	push	ebp
	mov	ebp, esp
	push	-1
	push	__ehhandler$?RequestRMsState@CSLWorkSet@@QAEXXZ
	mov	eax, DWORD PTR fs:0
	push	eax
	sub	esp, 232				; 000000e8H
	push	ebx
	push	esi
	push	edi
	push	ecx
	lea	edi, DWORD PTR [ebp-244]
	mov	ecx, 58					; 0000003aH
	mov	eax, -858993460				; ccccccccH
	rep stosd
	pop	ecx
	mov	eax, DWORD PTR ___security_cookie
	xor	eax, ebp
	push	eax
	lea	eax, DWORD PTR __$EHRec$[ebp]
	mov	DWORD PTR fs:0, eax
	mov	DWORD PTR _this$[ebp], ecx

; 165  : 	OutboundQueue.Push(new TZSuperShortString("-SS11="));

	push	8
	call	??2@YAPAXI@Z				; operator new
	add	esp, 4
	mov	DWORD PTR $T2[ebp], eax
	mov	DWORD PTR __$EHRec$[ebp+8], 0
	cmp	DWORD PTR $T2[ebp], 0
	je	SHORT $LN3@RequestRMs
	push	OFFSET ??_C@_06DOIGOPEC@?9SS11?$DN?$AA@
	mov	ecx, DWORD PTR $T2[ebp]
	call	??0TZSuperShortString@@QAE@PBD@Z	; TZSuperShortString::TZSuperShortString
	mov	DWORD PTR tv78[ebp], eax
	jmp	SHORT $LN4@RequestRMs
$LN3@RequestRMs:
	mov	DWORD PTR tv78[ebp], 0
$LN4@RequestRMs:
	mov	eax, DWORD PTR tv78[ebp]
	mov	DWORD PTR $T3[ebp], eax
	mov	DWORD PTR __$EHRec$[ebp+8], -1
	mov	ecx, DWORD PTR $T3[ebp]
	push	ecx
	mov	ecx, DWORD PTR _this$[ebp]
	add	ecx, 608				; 00000260H
	call	?Push@?$TCSPtrQueue@VTZSuperShortString@@@@QAEXPAVTZSuperShortString@@@Z ; TCSPtrQueue<TZSuperShortString>::Push

; 166  : //	RequestSLsState();
; 167  : }

	mov	ecx, DWORD PTR __$EHRec$[ebp]
	mov	DWORD PTR fs:0, ecx
	pop	ecx
	pop	edi
	pop	esi
	pop	ebx
	add	esp, 244				; 000000f4H
	cmp	ebp, esp
	call	__RTC_CheckEsp
	mov	esp, ebp
	pop	ebp
	ret	0
_TEXT	ENDS
;	COMDAT text$x
text$x	SEGMENT
__unwindfunclet$?RequestRMsState@CSLWorkSet@@QAEXXZ$0:
	push	8
	mov	eax, DWORD PTR $T2[ebp]
	push	eax
	call	??3@YAXPAXI@Z				; operator delete
	add	esp, 8
	ret	0
__ehhandler$?RequestRMsState@CSLWorkSet@@QAEXXZ:
	mov	edx, DWORD PTR [esp+8]
	lea	eax, DWORD PTR [edx+12]
	mov	ecx, DWORD PTR [edx-248]
	xor	ecx, eax
	call	@__security_check_cookie@4
	mov	eax, OFFSET __ehfuncinfo$?RequestRMsState@CSLWorkSet@@QAEXXZ
	jmp	___CxxFrameHandler3
text$x	ENDS
?RequestRMsState@CSLWorkSet@@QAEXXZ ENDP		; CSLWorkSet::RequestRMsState
; Function compile flags: /Odtp /RTCsu /ZI
; File c:\users\smith\projects\callcenter\slworkset.cpp
;	COMDAT ?RequestSLsState@CSLWorkSet@@QAEXXZ
_TEXT	SEGMENT
tv93 = -268						; size = 4
tv78 = -268						; size = 4
$T2 = -260						; size = 4
$T3 = -248						; size = 4
$T4 = -236						; size = 4
$T5 = -224						; size = 4
_this$ = -20						; size = 4
__$EHRec$ = -12						; size = 12
?RequestSLsState@CSLWorkSet@@QAEXXZ PROC		; CSLWorkSet::RequestSLsState, COMDAT
; _this$ = ecx

; 158  : {

	push	ebp
	mov	ebp, esp
	push	-1
	push	__ehhandler$?RequestSLsState@CSLWorkSet@@QAEXXZ
	mov	eax, DWORD PTR fs:0
	push	eax
	sub	esp, 256				; 00000100H
	push	ebx
	push	esi
	push	edi
	push	ecx
	lea	edi, DWORD PTR [ebp-268]
	mov	ecx, 64					; 00000040H
	mov	eax, -858993460				; ccccccccH
	rep stosd
	pop	ecx
	mov	eax, DWORD PTR ___security_cookie
	xor	eax, ebp
	push	eax
	lea	eax, DWORD PTR __$EHRec$[ebp]
	mov	DWORD PTR fs:0, eax
	mov	DWORD PTR _this$[ebp], ecx

; 159  : 	OutboundQueue.Push(new TZSuperShortString("-SS22="));

	push	8
	call	??2@YAPAXI@Z				; operator new
	add	esp, 4
	mov	DWORD PTR $T4[ebp], eax
	mov	DWORD PTR __$EHRec$[ebp+8], 0
	cmp	DWORD PTR $T4[ebp], 0
	je	SHORT $LN3@RequestSLs
	push	OFFSET ??_C@_06COHFPOPF@?9SS22?$DN?$AA@
	mov	ecx, DWORD PTR $T4[ebp]
	call	??0TZSuperShortString@@QAE@PBD@Z	; TZSuperShortString::TZSuperShortString
	mov	DWORD PTR tv78[ebp], eax
	jmp	SHORT $LN4@RequestSLs
$LN3@RequestSLs:
	mov	DWORD PTR tv78[ebp], 0
$LN4@RequestSLs:
	mov	eax, DWORD PTR tv78[ebp]
	mov	DWORD PTR $T5[ebp], eax
	mov	DWORD PTR __$EHRec$[ebp+8], -1
	mov	ecx, DWORD PTR $T5[ebp]
	push	ecx
	mov	ecx, DWORD PTR _this$[ebp]
	add	ecx, 608				; 00000260H
	call	?Push@?$TCSPtrQueue@VTZSuperShortString@@@@QAEXPAVTZSuperShortString@@@Z ; TCSPtrQueue<TZSuperShortString>::Push

; 160  : 	OutboundQueue.Push(new TZSuperShortString("-SS33="));

	push	8
	call	??2@YAPAXI@Z				; operator new
	add	esp, 4
	mov	DWORD PTR $T2[ebp], eax
	mov	DWORD PTR __$EHRec$[ebp+8], 1
	cmp	DWORD PTR $T2[ebp], 0
	je	SHORT $LN5@RequestSLs
	push	OFFSET ??_C@_06JHALPDKH@?9SS33?$DN?$AA@
	mov	ecx, DWORD PTR $T2[ebp]
	call	??0TZSuperShortString@@QAE@PBD@Z	; TZSuperShortString::TZSuperShortString
	mov	DWORD PTR tv93[ebp], eax
	jmp	SHORT $LN6@RequestSLs
$LN5@RequestSLs:
	mov	DWORD PTR tv93[ebp], 0
$LN6@RequestSLs:
	mov	eax, DWORD PTR tv93[ebp]
	mov	DWORD PTR $T3[ebp], eax
	mov	DWORD PTR __$EHRec$[ebp+8], -1
	mov	ecx, DWORD PTR $T3[ebp]
	push	ecx
	mov	ecx, DWORD PTR _this$[ebp]
	add	ecx, 608				; 00000260H
	call	?Push@?$TCSPtrQueue@VTZSuperShortString@@@@QAEXPAVTZSuperShortString@@@Z ; TCSPtrQueue<TZSuperShortString>::Push

; 161  : }

	mov	ecx, DWORD PTR __$EHRec$[ebp]
	mov	DWORD PTR fs:0, ecx
	pop	ecx
	pop	edi
	pop	esi
	pop	ebx
	add	esp, 268				; 0000010cH
	cmp	ebp, esp
	call	__RTC_CheckEsp
	mov	esp, ebp
	pop	ebp
	ret	0
_TEXT	ENDS
;	COMDAT text$x
text$x	SEGMENT
__unwindfunclet$?RequestSLsState@CSLWorkSet@@QAEXXZ$0:
	push	8
	mov	eax, DWORD PTR $T4[ebp]
	push	eax
	call	??3@YAXPAXI@Z				; operator delete
	add	esp, 8
	ret	0
__unwindfunclet$?RequestSLsState@CSLWorkSet@@QAEXXZ$1:
	push	8
	mov	eax, DWORD PTR $T2[ebp]
	push	eax
	call	??3@YAXPAXI@Z				; operator delete
	add	esp, 8
	ret	0
__ehhandler$?RequestSLsState@CSLWorkSet@@QAEXXZ:
	mov	edx, DWORD PTR [esp+8]
	lea	eax, DWORD PTR [edx+12]
	mov	ecx, DWORD PTR [edx-272]
	xor	ecx, eax
	call	@__security_check_cookie@4
	mov	eax, OFFSET __ehfuncinfo$?RequestSLsState@CSLWorkSet@@QAEXXZ
	jmp	___CxxFrameHandler3
text$x	ENDS
?RequestSLsState@CSLWorkSet@@QAEXXZ ENDP		; CSLWorkSet::RequestSLsState
; Function compile flags: /Odtp /RTCsu /ZI
; File c:\users\smith\projects\callcenter\slworkset.cpp
;	COMDAT ?SetRMState@CSLWorkSet@@QAEXII@Z
_TEXT	SEGMENT
tv85 = -288						; size = 4
$T2 = -280						; size = 4
$T3 = -268						; size = 4
_buf$ = -64						; size = 30
_this$ = -24						; size = 4
__$ArrayPad$ = -16					; size = 4
__$EHRec$ = -12						; size = 12
_index$ = 8						; size = 4
_State$ = 12						; size = 4
?SetRMState@CSLWorkSet@@QAEXII@Z PROC			; CSLWorkSet::SetRMState, COMDAT
; _this$ = ecx

; 149  : {

	push	ebp
	mov	ebp, esp
	push	-1
	push	__ehhandler$?SetRMState@CSLWorkSet@@QAEXII@Z
	mov	eax, DWORD PTR fs:0
	push	eax
	sub	esp, 276				; 00000114H
	push	ebx
	push	esi
	push	edi
	push	ecx
	lea	edi, DWORD PTR [ebp-288]
	mov	ecx, 69					; 00000045H
	mov	eax, -858993460				; ccccccccH
	rep stosd
	pop	ecx
	mov	eax, DWORD PTR ___security_cookie
	xor	eax, ebp
	mov	DWORD PTR __$ArrayPad$[ebp], eax
	push	eax
	lea	eax, DWORD PTR __$EHRec$[ebp]
	mov	DWORD PTR fs:0, eax
	mov	DWORD PTR _this$[ebp], ecx

; 150  : 	if (index>=SLCount) return;

	cmp	DWORD PTR _index$[ebp], 12		; 0000000cH
	jb	SHORT $LN2@SetRMState
	jmp	$LN1@SetRMState
$LN2@SetRMState:

; 151  : char buf[30];
; 152  : 	sprintf(buf, "-RR%X%X%X%X=", index, index, State, State);

	mov	eax, DWORD PTR _State$[ebp]
	push	eax
	mov	ecx, DWORD PTR _State$[ebp]
	push	ecx
	mov	edx, DWORD PTR _index$[ebp]
	push	edx
	mov	eax, DWORD PTR _index$[ebp]
	push	eax
	push	OFFSET ??_C@_0N@PFLAKKKN@?9RR?$CFX?$CFX?$CFX?$CFX?$DN?$AA@
	lea	ecx, DWORD PTR _buf$[ebp]
	push	ecx
	call	_sprintf
	add	esp, 24					; 00000018H

; 153  : 	OutboundQueue.Push(new TZSuperShortString(buf));

	push	8
	call	??2@YAPAXI@Z				; operator new
	add	esp, 4
	mov	DWORD PTR $T2[ebp], eax
	mov	DWORD PTR __$EHRec$[ebp+8], 0
	cmp	DWORD PTR $T2[ebp], 0
	je	SHORT $LN4@SetRMState
	lea	eax, DWORD PTR _buf$[ebp]
	push	eax
	mov	ecx, DWORD PTR $T2[ebp]
	call	??0TZSuperShortString@@QAE@PBD@Z	; TZSuperShortString::TZSuperShortString
	mov	DWORD PTR tv85[ebp], eax
	jmp	SHORT $LN5@SetRMState
$LN4@SetRMState:
	mov	DWORD PTR tv85[ebp], 0
$LN5@SetRMState:
	mov	ecx, DWORD PTR tv85[ebp]
	mov	DWORD PTR $T3[ebp], ecx
	mov	DWORD PTR __$EHRec$[ebp+8], -1
	mov	edx, DWORD PTR $T3[ebp]
	push	edx
	mov	ecx, DWORD PTR _this$[ebp]
	add	ecx, 608				; 00000260H
	call	?Push@?$TCSPtrQueue@VTZSuperShortString@@@@QAEXPAVTZSuperShortString@@@Z ; TCSPtrQueue<TZSuperShortString>::Push
$LN1@SetRMState:

; 154  : }

	push	edx
	mov	ecx, ebp
	push	eax
	lea	edx, DWORD PTR $LN10@SetRMState
	call	@_RTC_CheckStackVars@8
	pop	eax
	pop	edx
	mov	ecx, DWORD PTR __$EHRec$[ebp]
	mov	DWORD PTR fs:0, ecx
	pop	ecx
	pop	edi
	pop	esi
	pop	ebx
	mov	ecx, DWORD PTR __$ArrayPad$[ebp]
	xor	ecx, ebp
	call	@__security_check_cookie@4
	add	esp, 288				; 00000120H
	cmp	ebp, esp
	call	__RTC_CheckEsp
	mov	esp, ebp
	pop	ebp
	ret	8
	npad	2
$LN10@SetRMState:
	DD	1
	DD	$LN9@SetRMState
$LN9@SetRMState:
	DD	-64					; ffffffc0H
	DD	30					; 0000001eH
	DD	$LN7@SetRMState
$LN7@SetRMState:
	DB	98					; 00000062H
	DB	117					; 00000075H
	DB	102					; 00000066H
	DB	0
_TEXT	ENDS
;	COMDAT text$x
text$x	SEGMENT
__unwindfunclet$?SetRMState@CSLWorkSet@@QAEXII@Z$0:
	push	8
	mov	eax, DWORD PTR $T2[ebp]
	push	eax
	call	??3@YAXPAXI@Z				; operator delete
	add	esp, 8
	ret	0
__ehhandler$?SetRMState@CSLWorkSet@@QAEXII@Z:
	mov	edx, DWORD PTR [esp+8]
	lea	eax, DWORD PTR [edx+12]
	mov	ecx, DWORD PTR [edx-292]
	xor	ecx, eax
	call	@__security_check_cookie@4
	mov	ecx, DWORD PTR [edx-4]
	xor	ecx, eax
	call	@__security_check_cookie@4
	mov	eax, OFFSET __ehfuncinfo$?SetRMState@CSLWorkSet@@QAEXII@Z
	jmp	___CxxFrameHandler3
text$x	ENDS
?SetRMState@CSLWorkSet@@QAEXII@Z ENDP			; CSLWorkSet::SetRMState
; Function compile flags: /Odtp /RTCsu /ZI
; File c:\users\smith\projects\callcenter\slworkset.cpp
;	COMDAT ?GetRMState@CSLWorkSet@@QAEII@Z
_TEXT	SEGMENT
_this$ = -8						; size = 4
_index$ = 8						; size = 4
?GetRMState@CSLWorkSet@@QAEII@Z PROC			; CSLWorkSet::GetRMState, COMDAT
; _this$ = ecx

; 144  : {

	push	ebp
	mov	ebp, esp
	sub	esp, 204				; 000000ccH
	push	ebx
	push	esi
	push	edi
	push	ecx
	lea	edi, DWORD PTR [ebp-204]
	mov	ecx, 51					; 00000033H
	mov	eax, -858993460				; ccccccccH
	rep stosd
	pop	ecx
	mov	DWORD PTR _this$[ebp], ecx

; 145  : 	return 0;

	xor	eax, eax

; 146  : }

	pop	edi
	pop	esi
	pop	ebx
	mov	esp, ebp
	pop	ebp
	ret	4
?GetRMState@CSLWorkSet@@QAEII@Z ENDP			; CSLWorkSet::GetRMState
_TEXT	ENDS
; Function compile flags: /Odtp /RTCsu /ZI
; File c:\users\smith\projects\callcenter\slworkset.cpp
;	COMDAT ?SetSLState@CSLWorkSet@@QAEXII@Z
_TEXT	SEGMENT
tv85 = -288						; size = 4
$T2 = -280						; size = 4
$T3 = -268						; size = 4
_buf$ = -64						; size = 30
_this$ = -24						; size = 4
__$ArrayPad$ = -16					; size = 4
__$EHRec$ = -12						; size = 12
_index$ = 8						; size = 4
_State$ = 12						; size = 4
?SetSLState@CSLWorkSet@@QAEXII@Z PROC			; CSLWorkSet::SetSLState, COMDAT
; _this$ = ecx

; 136  : {

	push	ebp
	mov	ebp, esp
	push	-1
	push	__ehhandler$?SetSLState@CSLWorkSet@@QAEXII@Z
	mov	eax, DWORD PTR fs:0
	push	eax
	sub	esp, 276				; 00000114H
	push	ebx
	push	esi
	push	edi
	push	ecx
	lea	edi, DWORD PTR [ebp-288]
	mov	ecx, 69					; 00000045H
	mov	eax, -858993460				; ccccccccH
	rep stosd
	pop	ecx
	mov	eax, DWORD PTR ___security_cookie
	xor	eax, ebp
	mov	DWORD PTR __$ArrayPad$[ebp], eax
	push	eax
	lea	eax, DWORD PTR __$EHRec$[ebp]
	mov	DWORD PTR fs:0, eax
	mov	DWORD PTR _this$[ebp], ecx

; 137  : 	if (index>=SLCount) return;

	cmp	DWORD PTR _index$[ebp], 12		; 0000000cH
	jb	SHORT $LN2@SetSLState
	jmp	$LN1@SetSLState
$LN2@SetSLState:

; 138  : char buf[30];
; 139  : 	sprintf(buf, "-KK%X%X%X%X=", index, index, State, State);

	mov	eax, DWORD PTR _State$[ebp]
	push	eax
	mov	ecx, DWORD PTR _State$[ebp]
	push	ecx
	mov	edx, DWORD PTR _index$[ebp]
	push	edx
	mov	eax, DWORD PTR _index$[ebp]
	push	eax
	push	OFFSET ??_C@_0N@LBLKIHIO@?9KK?$CFX?$CFX?$CFX?$CFX?$DN?$AA@
	lea	ecx, DWORD PTR _buf$[ebp]
	push	ecx
	call	_sprintf
	add	esp, 24					; 00000018H

; 140  : 	OutboundQueue.Push(new TZSuperShortString(buf));

	push	8
	call	??2@YAPAXI@Z				; operator new
	add	esp, 4
	mov	DWORD PTR $T2[ebp], eax
	mov	DWORD PTR __$EHRec$[ebp+8], 0
	cmp	DWORD PTR $T2[ebp], 0
	je	SHORT $LN4@SetSLState
	lea	eax, DWORD PTR _buf$[ebp]
	push	eax
	mov	ecx, DWORD PTR $T2[ebp]
	call	??0TZSuperShortString@@QAE@PBD@Z	; TZSuperShortString::TZSuperShortString
	mov	DWORD PTR tv85[ebp], eax
	jmp	SHORT $LN5@SetSLState
$LN4@SetSLState:
	mov	DWORD PTR tv85[ebp], 0
$LN5@SetSLState:
	mov	ecx, DWORD PTR tv85[ebp]
	mov	DWORD PTR $T3[ebp], ecx
	mov	DWORD PTR __$EHRec$[ebp+8], -1
	mov	edx, DWORD PTR $T3[ebp]
	push	edx
	mov	ecx, DWORD PTR _this$[ebp]
	add	ecx, 608				; 00000260H
	call	?Push@?$TCSPtrQueue@VTZSuperShortString@@@@QAEXPAVTZSuperShortString@@@Z ; TCSPtrQueue<TZSuperShortString>::Push
$LN1@SetSLState:

; 141  : }

	push	edx
	mov	ecx, ebp
	push	eax
	lea	edx, DWORD PTR $LN10@SetSLState
	call	@_RTC_CheckStackVars@8
	pop	eax
	pop	edx
	mov	ecx, DWORD PTR __$EHRec$[ebp]
	mov	DWORD PTR fs:0, ecx
	pop	ecx
	pop	edi
	pop	esi
	pop	ebx
	mov	ecx, DWORD PTR __$ArrayPad$[ebp]
	xor	ecx, ebp
	call	@__security_check_cookie@4
	add	esp, 288				; 00000120H
	cmp	ebp, esp
	call	__RTC_CheckEsp
	mov	esp, ebp
	pop	ebp
	ret	8
	npad	2
$LN10@SetSLState:
	DD	1
	DD	$LN9@SetSLState
$LN9@SetSLState:
	DD	-64					; ffffffc0H
	DD	30					; 0000001eH
	DD	$LN7@SetSLState
$LN7@SetSLState:
	DB	98					; 00000062H
	DB	117					; 00000075H
	DB	102					; 00000066H
	DB	0
_TEXT	ENDS
;	COMDAT text$x
text$x	SEGMENT
__unwindfunclet$?SetSLState@CSLWorkSet@@QAEXII@Z$0:
	push	8
	mov	eax, DWORD PTR $T2[ebp]
	push	eax
	call	??3@YAXPAXI@Z				; operator delete
	add	esp, 8
	ret	0
__ehhandler$?SetSLState@CSLWorkSet@@QAEXII@Z:
	mov	edx, DWORD PTR [esp+8]
	lea	eax, DWORD PTR [edx+12]
	mov	ecx, DWORD PTR [edx-292]
	xor	ecx, eax
	call	@__security_check_cookie@4
	mov	ecx, DWORD PTR [edx-4]
	xor	ecx, eax
	call	@__security_check_cookie@4
	mov	eax, OFFSET __ehfuncinfo$?SetSLState@CSLWorkSet@@QAEXII@Z
	jmp	___CxxFrameHandler3
text$x	ENDS
?SetSLState@CSLWorkSet@@QAEXII@Z ENDP			; CSLWorkSet::SetSLState
; Function compile flags: /Odtp /RTCsu /ZI
; File c:\users\smith\projects\callcenter\slworkset.cpp
;	COMDAT ?GetSLState@CSLWorkSet@@QAEII@Z
_TEXT	SEGMENT
_ret$ = -20						; size = 4
_this$ = -8						; size = 4
_index$ = 8						; size = 4
?GetSLState@CSLWorkSet@@QAEII@Z PROC			; CSLWorkSet::GetSLState, COMDAT
; _this$ = ecx

; 126  : {

	push	ebp
	mov	ebp, esp
	sub	esp, 216				; 000000d8H
	push	ebx
	push	esi
	push	edi
	push	ecx
	lea	edi, DWORD PTR [ebp-216]
	mov	ecx, 54					; 00000036H
	mov	eax, -858993460				; ccccccccH
	rep stosd
	pop	ecx
	mov	DWORD PTR _this$[ebp], ecx

; 127  : 	if (index>=SLCount) return 0;

	cmp	DWORD PTR _index$[ebp], 12		; 0000000cH
	jb	SHORT $LN2@GetSLState
	xor	eax, eax
	jmp	SHORT $LN1@GetSLState
$LN2@GetSLState:

; 128  : unsigned ret;
; 129  : 	EnterCriticalSection(&SLList[index].CS);

	imul	eax, DWORD PTR _index$[ebp], 44
	mov	ecx, DWORD PTR _this$[ebp]
	lea	edx, DWORD PTR [ecx+eax+48]
	mov	esi, esp
	push	edx
	call	DWORD PTR __imp__EnterCriticalSection@4
	cmp	esi, esp
	call	__RTC_CheckEsp

; 130  : 	ret = SLList[index].RTState;

	imul	eax, DWORD PTR _index$[ebp], 44
	mov	ecx, DWORD PTR _this$[ebp]
	mov	edx, DWORD PTR [ecx+eax+72]
	mov	DWORD PTR _ret$[ebp], edx

; 131  : 	LeaveCriticalSection(&SLList[index].CS);

	imul	eax, DWORD PTR _index$[ebp], 44
	mov	ecx, DWORD PTR _this$[ebp]
	lea	edx, DWORD PTR [ecx+eax+48]
	mov	esi, esp
	push	edx
	call	DWORD PTR __imp__LeaveCriticalSection@4
	cmp	esi, esp
	call	__RTC_CheckEsp

; 132  : 	return ret;

	mov	eax, DWORD PTR _ret$[ebp]
$LN1@GetSLState:

; 133  : }

	pop	edi
	pop	esi
	pop	ebx
	add	esp, 216				; 000000d8H
	cmp	ebp, esp
	call	__RTC_CheckEsp
	mov	esp, ebp
	pop	ebp
	ret	4
?GetSLState@CSLWorkSet@@QAEII@Z ENDP			; CSLWorkSet::GetSLState
_TEXT	ENDS
; Function compile flags: /Odtp /RTCsu /ZI
; File c:\users\smith\projects\callcenter\slworkset.cpp
;	COMDAT ?GetSLSG@CSLWorkSet@@QAEII@Z
_TEXT	SEGMENT
_ret$ = -20						; size = 4
_this$ = -8						; size = 4
_index$ = 8						; size = 4
?GetSLSG@CSLWorkSet@@QAEII@Z PROC			; CSLWorkSet::GetSLSG, COMDAT
; _this$ = ecx

; 116  : {

	push	ebp
	mov	ebp, esp
	sub	esp, 216				; 000000d8H
	push	ebx
	push	esi
	push	edi
	push	ecx
	lea	edi, DWORD PTR [ebp-216]
	mov	ecx, 54					; 00000036H
	mov	eax, -858993460				; ccccccccH
	rep stosd
	pop	ecx
	mov	DWORD PTR _this$[ebp], ecx

; 117  : 	if (index>=SLCount) return 0;

	cmp	DWORD PTR _index$[ebp], 12		; 0000000cH
	jb	SHORT $LN2@GetSLSG
	xor	eax, eax
	jmp	SHORT $LN1@GetSLSG
$LN2@GetSLSG:

; 118  : unsigned ret;
; 119  : 	EnterCriticalSection(&SLList[index].CS);

	imul	eax, DWORD PTR _index$[ebp], 44
	mov	ecx, DWORD PTR _this$[ebp]
	lea	edx, DWORD PTR [ecx+eax+48]
	mov	esi, esp
	push	edx
	call	DWORD PTR __imp__EnterCriticalSection@4
	cmp	esi, esp
	call	__RTC_CheckEsp

; 120  : 	ret = SLList[index].SLServiceGroup;

	imul	eax, DWORD PTR _index$[ebp], 44
	mov	ecx, DWORD PTR _this$[ebp]
	mov	edx, DWORD PTR [ecx+eax+36]
	mov	DWORD PTR _ret$[ebp], edx

; 121  : 	LeaveCriticalSection(&SLList[index].CS);

	imul	eax, DWORD PTR _index$[ebp], 44
	mov	ecx, DWORD PTR _this$[ebp]
	lea	edx, DWORD PTR [ecx+eax+48]
	mov	esi, esp
	push	edx
	call	DWORD PTR __imp__LeaveCriticalSection@4
	cmp	esi, esp
	call	__RTC_CheckEsp

; 122  : 	return ret;

	mov	eax, DWORD PTR _ret$[ebp]
$LN1@GetSLSG:

; 123  : }

	pop	edi
	pop	esi
	pop	ebx
	add	esp, 216				; 000000d8H
	cmp	ebp, esp
	call	__RTC_CheckEsp
	mov	esp, ebp
	pop	ebp
	ret	4
?GetSLSG@CSLWorkSet@@QAEII@Z ENDP			; CSLWorkSet::GetSLSG
_TEXT	ENDS
; Function compile flags: /Odtp /RTCsu /ZI
; File c:\users\smith\projects\callcenter\slworkset.cpp
;	COMDAT ?LoadFrom@CSLWorkSet@@QAEXPAV?$TFixedSizeBinaryData@$0BAAA@@@@Z
_TEXT	SEGMENT
_k$ = -20						; size = 4
_this$ = -8						; size = 4
_TND$ = 8						; size = 4
?LoadFrom@CSLWorkSet@@QAEXPAV?$TFixedSizeBinaryData@$0BAAA@@@@Z PROC ; CSLWorkSet::LoadFrom, COMDAT
; _this$ = ecx

; 106  : {

	push	ebp
	mov	ebp, esp
	sub	esp, 216				; 000000d8H
	push	ebx
	push	esi
	push	edi
	push	ecx
	lea	edi, DWORD PTR [ebp-216]
	mov	ecx, 54					; 00000036H
	mov	eax, -858993460				; ccccccccH
	rep stosd
	pop	ecx
	mov	DWORD PTR _this$[ebp], ecx

; 107  : unsigned __int32 k;
; 108  : 	(*TND) >> k;

	lea	eax, DWORD PTR _k$[ebp]
	push	eax
	mov	ecx, DWORD PTR _TND$[ebp]
	call	??5?$TFixedSizeBinaryData@$0BAAA@@@QAEAAV0@AAI@Z ; TFixedSizeBinaryData<4096>::operator>>

; 109  : 	if (k<0 || k>=SLCount) return;

	cmp	DWORD PTR _k$[ebp], 0
	jb	SHORT $LN3@LoadFrom
	cmp	DWORD PTR _k$[ebp], 12			; 0000000cH
	jb	SHORT $LN2@LoadFrom
$LN3@LoadFrom:
	jmp	SHORT $LN1@LoadFrom
$LN2@LoadFrom:

; 110  : 	(*TND) >> SLList[k].SLServiceGroup >> SLList[k].SLComment;

	imul	eax, DWORD PTR _k$[ebp], 44
	mov	ecx, DWORD PTR _this$[ebp]
	lea	edx, DWORD PTR [ecx+eax+40]
	push	edx
	imul	eax, DWORD PTR _k$[ebp], 44
	mov	ecx, DWORD PTR _this$[ebp]
	lea	edx, DWORD PTR [ecx+eax+36]
	push	edx
	mov	ecx, DWORD PTR _TND$[ebp]
	call	??5?$TFixedSizeBinaryData@$0BAAA@@@QAEAAV0@AAI@Z ; TFixedSizeBinaryData<4096>::operator>>
	push	eax
	call	??$?5$0BAAA@@@YAAAV?$TFixedSizeBinaryData@$0BAAA@@@AAV0@AAVTZSuperShortString@@@Z ; operator>><4096>
	add	esp, 8

; 111  : 	PostSysMessage(SCMD_SAVEPROFILE);

	push	0
	push	0
	push	0
	push	2
	mov	ecx, DWORD PTR _this$[ebp]
	add	ecx, 24					; 00000018H
	call	?PostSysMessage@CSystemObject@@IAEXEEGI@Z ; CSystemObject::PostSysMessage
$LN1@LoadFrom:

; 112  : }

	push	edx
	mov	ecx, ebp
	push	eax
	lea	edx, DWORD PTR $LN7@LoadFrom
	call	@_RTC_CheckStackVars@8
	pop	eax
	pop	edx
	pop	edi
	pop	esi
	pop	ebx
	add	esp, 216				; 000000d8H
	cmp	ebp, esp
	call	__RTC_CheckEsp
	mov	esp, ebp
	pop	ebp
	ret	4
$LN7@LoadFrom:
	DD	1
	DD	$LN6@LoadFrom
$LN6@LoadFrom:
	DD	-20					; ffffffecH
	DD	4
	DD	$LN5@LoadFrom
$LN5@LoadFrom:
	DB	107					; 0000006bH
	DB	0
?LoadFrom@CSLWorkSet@@QAEXPAV?$TFixedSizeBinaryData@$0BAAA@@@@Z ENDP ; CSLWorkSet::LoadFrom
_TEXT	ENDS
; Function compile flags: /Odtp /RTCsu /ZI
; File c:\users\smith\projects\callcenter\slworkset.cpp
;	COMDAT ?SaveTo@CSLWorkSet@@QAEXPAV?$TFixedSizeBinaryData@$0BAAA@@@@Z
_TEXT	SEGMENT
_i$1 = -20						; size = 4
_this$ = -8						; size = 4
_TND$ = 8						; size = 4
?SaveTo@CSLWorkSet@@QAEXPAV?$TFixedSizeBinaryData@$0BAAA@@@@Z PROC ; CSLWorkSet::SaveTo, COMDAT
; _this$ = ecx

; 100  : {

	push	ebp
	mov	ebp, esp
	sub	esp, 216				; 000000d8H
	push	ebx
	push	esi
	push	edi
	push	ecx
	lea	edi, DWORD PTR [ebp-216]
	mov	ecx, 54					; 00000036H
	mov	eax, -858993460				; ccccccccH
	rep stosd
	pop	ecx
	mov	DWORD PTR _this$[ebp], ecx

; 101  : 	for (int i=0; i<SLCount; i++)

	mov	DWORD PTR _i$1[ebp], 0
	jmp	SHORT $LN4@SaveTo
$LN2@SaveTo:
	mov	eax, DWORD PTR _i$1[ebp]
	add	eax, 1
	mov	DWORD PTR _i$1[ebp], eax
$LN4@SaveTo:
	cmp	DWORD PTR _i$1[ebp], 12			; 0000000cH
	jge	SHORT $LN1@SaveTo

; 102  : 		(*TND) << SLList[i].SLServiceGroup << SLList[i].SLComment;

	imul	eax, DWORD PTR _i$1[ebp], 44
	mov	ecx, DWORD PTR _this$[ebp]
	lea	edx, DWORD PTR [ecx+eax+40]
	push	edx
	imul	eax, DWORD PTR _i$1[ebp], 44
	mov	ecx, DWORD PTR _this$[ebp]
	lea	edx, DWORD PTR [ecx+eax+36]
	push	edx
	mov	ecx, DWORD PTR _TND$[ebp]
	call	??6?$TFixedSizeBinaryData@$0BAAA@@@QAEAAV0@ABI@Z ; TFixedSizeBinaryData<4096>::operator<<
	push	eax
	call	??$?6$0BAAA@@@YAAAV?$TFixedSizeBinaryData@$0BAAA@@@AAV0@AAVTZSuperShortString@@@Z ; operator<<<4096>
	add	esp, 8
	jmp	SHORT $LN2@SaveTo
$LN1@SaveTo:

; 103  : }

	pop	edi
	pop	esi
	pop	ebx
	add	esp, 216				; 000000d8H
	cmp	ebp, esp
	call	__RTC_CheckEsp
	mov	esp, ebp
	pop	ebp
	ret	4
?SaveTo@CSLWorkSet@@QAEXPAV?$TFixedSizeBinaryData@$0BAAA@@@@Z ENDP ; CSLWorkSet::SaveTo
_TEXT	ENDS
; Function compile flags: /Odtp /RTCsu /ZI
; File c:\users\smith\projects\callcenter\slworkset.cpp
;	COMDAT ?LoadFrom@CSLWorkSet@@QAEXPAVTBinaryData@@@Z
_TEXT	SEGMENT
_i$1 = -20						; size = 4
_this$ = -8						; size = 4
_TBD$ = 8						; size = 4
?LoadFrom@CSLWorkSet@@QAEXPAVTBinaryData@@@Z PROC	; CSLWorkSet::LoadFrom, COMDAT
; _this$ = ecx

; 94   : {

	push	ebp
	mov	ebp, esp
	sub	esp, 216				; 000000d8H
	push	ebx
	push	esi
	push	edi
	push	ecx
	lea	edi, DWORD PTR [ebp-216]
	mov	ecx, 54					; 00000036H
	mov	eax, -858993460				; ccccccccH
	rep stosd
	pop	ecx
	mov	DWORD PTR _this$[ebp], ecx

; 95   : 	for (int i=0; i<SLCount; i++)

	mov	DWORD PTR _i$1[ebp], 0
	jmp	SHORT $LN4@LoadFrom
$LN2@LoadFrom:
	mov	eax, DWORD PTR _i$1[ebp]
	add	eax, 1
	mov	DWORD PTR _i$1[ebp], eax
$LN4@LoadFrom:
	cmp	DWORD PTR _i$1[ebp], 12			; 0000000cH
	jge	SHORT $LN1@LoadFrom

; 96   : 		(*TBD) >> SLList[i].SLServiceGroup >> SLList[i].SLComment;

	imul	eax, DWORD PTR _i$1[ebp], 44
	mov	ecx, DWORD PTR _this$[ebp]
	lea	edx, DWORD PTR [ecx+eax+40]
	push	edx
	imul	eax, DWORD PTR _i$1[ebp], 44
	mov	ecx, DWORD PTR _this$[ebp]
	lea	edx, DWORD PTR [ecx+eax+36]
	push	edx
	mov	ecx, DWORD PTR _TBD$[ebp]
	call	??5TBinaryData@@QAEAAV0@AAI@Z		; TBinaryData::operator>>
	push	eax
	call	??5@YAAAVTBinaryData@@AAV0@AAVTZSuperShortString@@@Z ; operator>>
	add	esp, 8
	jmp	SHORT $LN2@LoadFrom
$LN1@LoadFrom:

; 97   : }

	pop	edi
	pop	esi
	pop	ebx
	add	esp, 216				; 000000d8H
	cmp	ebp, esp
	call	__RTC_CheckEsp
	mov	esp, ebp
	pop	ebp
	ret	4
?LoadFrom@CSLWorkSet@@QAEXPAVTBinaryData@@@Z ENDP	; CSLWorkSet::LoadFrom
_TEXT	ENDS
; Function compile flags: /Odtp /RTCsu /ZI
; File c:\users\smith\projects\callcenter\slworkset.cpp
;	COMDAT ?SaveTo@CSLWorkSet@@QAEXPAVTBinaryData@@@Z
_TEXT	SEGMENT
_i$1 = -20						; size = 4
_this$ = -8						; size = 4
_TBD$ = 8						; size = 4
?SaveTo@CSLWorkSet@@QAEXPAVTBinaryData@@@Z PROC		; CSLWorkSet::SaveTo, COMDAT
; _this$ = ecx

; 88   : {

	push	ebp
	mov	ebp, esp
	sub	esp, 216				; 000000d8H
	push	ebx
	push	esi
	push	edi
	push	ecx
	lea	edi, DWORD PTR [ebp-216]
	mov	ecx, 54					; 00000036H
	mov	eax, -858993460				; ccccccccH
	rep stosd
	pop	ecx
	mov	DWORD PTR _this$[ebp], ecx

; 89   : 	for (int i=0; i<SLCount; i++)

	mov	DWORD PTR _i$1[ebp], 0
	jmp	SHORT $LN4@SaveTo
$LN2@SaveTo:
	mov	eax, DWORD PTR _i$1[ebp]
	add	eax, 1
	mov	DWORD PTR _i$1[ebp], eax
$LN4@SaveTo:
	cmp	DWORD PTR _i$1[ebp], 12			; 0000000cH
	jge	SHORT $LN1@SaveTo

; 90   : 		(*TBD) << SLList[i].SLServiceGroup << SLList[i].SLComment;

	imul	eax, DWORD PTR _i$1[ebp], 44
	mov	ecx, DWORD PTR _this$[ebp]
	lea	edx, DWORD PTR [ecx+eax+40]
	push	edx
	imul	eax, DWORD PTR _i$1[ebp], 44
	mov	ecx, DWORD PTR _this$[ebp]
	lea	edx, DWORD PTR [ecx+eax+36]
	push	edx
	mov	ecx, DWORD PTR _TBD$[ebp]
	call	??6TBinaryData@@QAEAAV0@ABI@Z		; TBinaryData::operator<<
	push	eax
	call	??6@YAAAVTBinaryData@@AAV0@AAVTZSuperShortString@@@Z ; operator<<
	add	esp, 8
	jmp	SHORT $LN2@SaveTo
$LN1@SaveTo:

; 91   : }

	pop	edi
	pop	esi
	pop	ebx
	add	esp, 216				; 000000d8H
	cmp	ebp, esp
	call	__RTC_CheckEsp
	mov	esp, ebp
	pop	ebp
	ret	4
?SaveTo@CSLWorkSet@@QAEXPAVTBinaryData@@@Z ENDP		; CSLWorkSet::SaveTo
_TEXT	ENDS
; Function compile flags: /Odtp /RTCsu /ZI
; File c:\users\smith\projects\callcenter\slworkset.cpp
;	COMDAT ??1CSLWorkSet@@UAE@XZ
_TEXT	SEGMENT
_this$ = -20						; size = 4
__$EHRec$ = -12						; size = 12
??1CSLWorkSet@@UAE@XZ PROC				; CSLWorkSet::~CSLWorkSet, COMDAT
; _this$ = ecx

; 83   : {

	push	ebp
	mov	ebp, esp
	push	-1
	push	__ehhandler$??1CSLWorkSet@@UAE@XZ
	mov	eax, DWORD PTR fs:0
	push	eax
	sub	esp, 204				; 000000ccH
	push	ebx
	push	esi
	push	edi
	push	ecx
	lea	edi, DWORD PTR [ebp-216]
	mov	ecx, 51					; 00000033H
	mov	eax, -858993460				; ccccccccH
	rep stosd
	pop	ecx
	mov	eax, DWORD PTR ___security_cookie
	xor	eax, ebp
	push	eax
	lea	eax, DWORD PTR __$EHRec$[ebp]
	mov	DWORD PTR fs:0, eax
	mov	DWORD PTR _this$[ebp], ecx
	mov	eax, DWORD PTR _this$[ebp]
	mov	DWORD PTR [eax], OFFSET ??_7CSLWorkSet@@6B@

; 84   : 
; 85   : }

	mov	ecx, DWORD PTR _this$[ebp]
	add	ecx, 608				; 00000260H
	call	??1?$TCSPtrQueue@VTZSuperShortString@@@@QAE@XZ ; TCSPtrQueue<TZSuperShortString>::~TCSPtrQueue<TZSuperShortString>
	push	OFFSET ??1CSLine@@QAE@XZ		; CSLine::~CSLine
	push	12					; 0000000cH
	push	44					; 0000002cH
	mov	eax, DWORD PTR _this$[ebp]
	add	eax, 36					; 00000024H
	push	eax
	call	??_M@YGXPAXIIP6EX0@Z@Z
	mov	ecx, DWORD PTR _this$[ebp]
	add	ecx, 24					; 00000018H
	call	??1TZSuperShortString@@QAE@XZ		; TZSuperShortString::~TZSuperShortString
	mov	ecx, DWORD PTR _this$[ebp]
	call	??1CThread@@UAE@XZ			; CThread::~CThread
	mov	ecx, DWORD PTR __$EHRec$[ebp]
	mov	DWORD PTR fs:0, ecx
	pop	ecx
	pop	edi
	pop	esi
	pop	ebx
	add	esp, 216				; 000000d8H
	cmp	ebp, esp
	call	__RTC_CheckEsp
	mov	esp, ebp
	pop	ebp
	ret	0
_TEXT	ENDS
;	COMDAT text$x
text$x	SEGMENT
__ehhandler$??1CSLWorkSet@@UAE@XZ:
	mov	edx, DWORD PTR [esp+8]
	lea	eax, DWORD PTR [edx+12]
	mov	ecx, DWORD PTR [edx-220]
	xor	ecx, eax
	call	@__security_check_cookie@4
	mov	eax, OFFSET __ehfuncinfo$??1CSLWorkSet@@UAE@XZ
	jmp	___CxxFrameHandler3
text$x	ENDS
??1CSLWorkSet@@UAE@XZ ENDP				; CSLWorkSet::~CSLWorkSet
; Function compile flags: /Odtp /RTCsu /ZI
; File c:\users\smith\projects\callcenter\slworkset.cpp
;	COMDAT ??0CSLWorkSet@@QAE@_N@Z
_TEXT	SEGMENT
$T2 = -228						; size = 8
_this$ = -20						; size = 4
__$EHRec$ = -12						; size = 12
_CreateSuspend$ = 8					; size = 1
??0CSLWorkSet@@QAE@_N@Z PROC				; CSLWorkSet::CSLWorkSet, COMDAT
; _this$ = ecx

; 77   : {

	push	ebp
	mov	ebp, esp
	push	-1
	push	__ehhandler$??0CSLWorkSet@@QAE@_N@Z
	mov	eax, DWORD PTR fs:0
	push	eax
	sub	esp, 220				; 000000dcH
	push	ebx
	push	esi
	push	edi
	push	ecx
	lea	edi, DWORD PTR [ebp-232]
	mov	ecx, 55					; 00000037H
	mov	eax, -858993460				; ccccccccH
	rep stosd
	pop	ecx
	mov	eax, DWORD PTR ___security_cookie
	xor	eax, ebp
	push	eax
	lea	eax, DWORD PTR __$EHRec$[ebp]
	mov	DWORD PTR fs:0, eax
	mov	DWORD PTR _this$[ebp], ecx

; 76   : CSLWorkSet::CSLWorkSet(bool CreateSuspend) : CThread(CreateSuspend)

	movzx	eax, BYTE PTR _CreateSuspend$[ebp]
	push	eax
	mov	ecx, DWORD PTR _this$[ebp]
	call	??0CThread@@QAE@_N@Z			; CThread::CThread
	mov	DWORD PTR __$EHRec$[ebp+8], 0

; 77   : {

	mov	eax, DWORD PTR _this$[ebp]
	mov	DWORD PTR [eax], OFFSET ??_7CSLWorkSet@@6B@
	mov	ecx, DWORD PTR _this$[ebp]
	add	ecx, 24					; 00000018H
	call	??0TZSuperShortString@@QAE@XZ		; TZSuperShortString::TZSuperShortString
	mov	BYTE PTR __$EHRec$[ebp+8], 1
	push	OFFSET ??1CSLine@@QAE@XZ		; CSLine::~CSLine
	push	OFFSET ??0CSLine@@QAE@XZ		; CSLine::CSLine
	push	12					; 0000000cH
	push	44					; 0000002cH
	mov	eax, DWORD PTR _this$[ebp]
	add	eax, 36					; 00000024H
	push	eax
	call	??_L@YGXPAXIIP6EX0@Z1@Z
	mov	BYTE PTR __$EHRec$[ebp+8], 2
	mov	ecx, DWORD PTR _this$[ebp]
	add	ecx, 564				; 00000234H
	call	??0HCharBuffer@@QAE@XZ			; HCharBuffer::HCharBuffer
	mov	ecx, DWORD PTR _this$[ebp]
	add	ecx, 608				; 00000260H
	call	??0?$TCSPtrQueue@VTZSuperShortString@@@@QAE@XZ ; TCSPtrQueue<TZSuperShortString>::TCSPtrQueue<TZSuperShortString>
	mov	BYTE PTR __$EHRec$[ebp+8], 3

; 78   : 	hPort=INVALID_HANDLE_VALUE;

	mov	eax, DWORD PTR _this$[ebp]
	mov	DWORD PTR [eax+32], -1

; 79   : 	PortName = "\\\\.\\COM28";

	push	OFFSET ??_C@_09CJNDAKDF@?2?2?4?2COM28?$AA@
	lea	ecx, DWORD PTR $T2[ebp]
	call	??0TZSuperShortString@@QAE@PBD@Z	; TZSuperShortString::TZSuperShortString
	mov	BYTE PTR __$EHRec$[ebp+8], 4
	lea	eax, DWORD PTR $T2[ebp]
	push	eax
	mov	ecx, DWORD PTR _this$[ebp]
	add	ecx, 24					; 00000018H
	call	??4TZSuperShortString@@QAEXABV0@@Z	; TZSuperShortString::operator=
	mov	BYTE PTR __$EHRec$[ebp+8], 3
	lea	ecx, DWORD PTR $T2[ebp]
	call	??1TZSuperShortString@@QAE@XZ		; TZSuperShortString::~TZSuperShortString

; 80   : }

	mov	DWORD PTR __$EHRec$[ebp+8], -1
	mov	eax, DWORD PTR _this$[ebp]
	mov	ecx, DWORD PTR __$EHRec$[ebp]
	mov	DWORD PTR fs:0, ecx
	pop	ecx
	pop	edi
	pop	esi
	pop	ebx
	add	esp, 232				; 000000e8H
	cmp	ebp, esp
	call	__RTC_CheckEsp
	mov	esp, ebp
	pop	ebp
	ret	4
_TEXT	ENDS
;	COMDAT text$x
text$x	SEGMENT
__unwindfunclet$??0CSLWorkSet@@QAE@_N@Z$0:
	mov	ecx, DWORD PTR _this$[ebp]
	jmp	??1CThread@@UAE@XZ			; CThread::~CThread
__unwindfunclet$??0CSLWorkSet@@QAE@_N@Z$1:
	mov	ecx, DWORD PTR _this$[ebp]
	add	ecx, 24					; 00000018H
	jmp	??1TZSuperShortString@@QAE@XZ		; TZSuperShortString::~TZSuperShortString
__unwindfunclet$??0CSLWorkSet@@QAE@_N@Z$2:
	push	OFFSET ??1CSLine@@QAE@XZ		; CSLine::~CSLine
	push	12					; 0000000cH
	push	44					; 0000002cH
	mov	eax, DWORD PTR _this$[ebp]
	add	eax, 36					; 00000024H
	push	eax
	call	??_M@YGXPAXIIP6EX0@Z@Z
	ret	0
__unwindfunclet$??0CSLWorkSet@@QAE@_N@Z$3:
	mov	ecx, DWORD PTR _this$[ebp]
	add	ecx, 608				; 00000260H
	jmp	??1?$TCSPtrQueue@VTZSuperShortString@@@@QAE@XZ ; TCSPtrQueue<TZSuperShortString>::~TCSPtrQueue<TZSuperShortString>
__unwindfunclet$??0CSLWorkSet@@QAE@_N@Z$4:
	lea	ecx, DWORD PTR $T2[ebp]
	jmp	??1TZSuperShortString@@QAE@XZ		; TZSuperShortString::~TZSuperShortString
__ehhandler$??0CSLWorkSet@@QAE@_N@Z:
	mov	edx, DWORD PTR [esp+8]
	lea	eax, DWORD PTR [edx+12]
	mov	ecx, DWORD PTR [edx-236]
	xor	ecx, eax
	call	@__security_check_cookie@4
	mov	eax, OFFSET __ehfuncinfo$??0CSLWorkSet@@QAE@_N@Z
	jmp	___CxxFrameHandler3
text$x	ENDS
??0CSLWorkSet@@QAE@_N@Z ENDP				; CSLWorkSet::CSLWorkSet
; Function compile flags: /Odtp /RTCsu /ZI
; File c:\users\smith\projects\callcenter\slworkset.cpp
;	COMDAT ?CheckBuffer@HCharBuffer@@QAEXXZ
_TEXT	SEGMENT
_k$1 = -44						; size = 4
_HEQ$ = -32						; size = 4
_HMI$ = -20						; size = 4
_this$ = -8						; size = 4
?CheckBuffer@HCharBuffer@@QAEXXZ PROC			; HCharBuffer::CheckBuffer, COMDAT
; _this$ = ecx

; 31   : {

	push	ebp
	mov	ebp, esp
	sub	esp, 240				; 000000f0H
	push	ebx
	push	esi
	push	edi
	push	ecx
	lea	edi, DWORD PTR [ebp-240]
	mov	ecx, 60					; 0000003cH
	mov	eax, -858993460				; ccccccccH
	rep stosd
	pop	ecx
	mov	DWORD PTR _this$[ebp], ecx

; 32   : 	len += CBR; CBR=0;

	mov	eax, DWORD PTR _this$[ebp]
	mov	ecx, DWORD PTR [eax+36]
	mov	edx, DWORD PTR _this$[ebp]
	add	ecx, DWORD PTR [edx+40]
	mov	eax, DWORD PTR _this$[ebp]
	mov	DWORD PTR [eax+36], ecx
	mov	eax, DWORD PTR _this$[ebp]
	mov	DWORD PTR [eax+40], 0

; 33   : 	if (len==0) return;

	mov	eax, DWORD PTR _this$[ebp]
	cmp	DWORD PTR [eax+36], 0
	jne	SHORT $LN5@CheckBuffe
	jmp	$LN1@CheckBuffe
$LN5@CheckBuffe:

; 34   : int HMI=0;

	mov	DWORD PTR _HMI$[ebp], 0

; 35   : int HEQ=0;

	mov	DWORD PTR _HEQ$[ebp], 0

; 36   : 	for (unsigned k=0; k<len;)

	mov	DWORD PTR _k$1[ebp], 0
$LN4@CheckBuffe:
	mov	eax, DWORD PTR _this$[ebp]
	mov	ecx, DWORD PTR _k$1[ebp]
	cmp	ecx, DWORD PTR [eax+36]
	jae	$LN3@CheckBuffe

; 37   : 	{
; 38   : 		if (buf[k]=='-') HMI++;

	mov	eax, DWORD PTR _this$[ebp]
	add	eax, DWORD PTR _k$1[ebp]
	movsx	ecx, BYTE PTR [eax]
	cmp	ecx, 45					; 0000002dH
	jne	SHORT $LN6@CheckBuffe
	mov	eax, DWORD PTR _HMI$[ebp]
	add	eax, 1
	mov	DWORD PTR _HMI$[ebp], eax
$LN6@CheckBuffe:

; 39   : 		if (buf[k]=='=') HEQ++;

	mov	eax, DWORD PTR _this$[ebp]
	add	eax, DWORD PTR _k$1[ebp]
	movsx	ecx, BYTE PTR [eax]
	cmp	ecx, 61					; 0000003dH
	jne	SHORT $LN7@CheckBuffe
	mov	eax, DWORD PTR _HEQ$[ebp]
	add	eax, 1
	mov	DWORD PTR _HEQ$[ebp], eax
$LN7@CheckBuffe:

; 40   : 
; 41   : 		if ((k!=0 && buf[k]=='-' && (HMI==0 || (HMI==1 && HEQ==0) || (HMI==1 && HEQ>0))) ||

	cmp	DWORD PTR _k$1[ebp], 0
	je	SHORT $LN10@CheckBuffe
	mov	eax, DWORD PTR _this$[ebp]
	add	eax, DWORD PTR _k$1[ebp]
	movsx	ecx, BYTE PTR [eax]
	cmp	ecx, 45					; 0000002dH
	jne	SHORT $LN10@CheckBuffe
	cmp	DWORD PTR _HMI$[ebp], 0
	je	SHORT $LN9@CheckBuffe
	cmp	DWORD PTR _HMI$[ebp], 1
	jne	SHORT $LN11@CheckBuffe
	cmp	DWORD PTR _HEQ$[ebp], 0
	je	SHORT $LN9@CheckBuffe
$LN11@CheckBuffe:
	cmp	DWORD PTR _HMI$[ebp], 1
	jne	SHORT $LN10@CheckBuffe
	cmp	DWORD PTR _HEQ$[ebp], 0
	jg	SHORT $LN9@CheckBuffe
$LN10@CheckBuffe:
	cmp	DWORD PTR _k$1[ebp], 0
	je	SHORT $LN8@CheckBuffe
	cmp	DWORD PTR _HMI$[ebp], 0
	jne	SHORT $LN8@CheckBuffe
	cmp	DWORD PTR _HEQ$[ebp], 0
	je	SHORT $LN8@CheckBuffe
$LN9@CheckBuffe:

; 42   : 			(k!=0 && HMI==0 && HEQ!=0))
; 43   : 		{
; 44   : 			memcpy(&buf[0], &buf[k], len-k);

	mov	eax, DWORD PTR _this$[ebp]
	mov	ecx, DWORD PTR [eax+36]
	sub	ecx, DWORD PTR _k$1[ebp]
	push	ecx
	mov	edx, DWORD PTR _this$[ebp]
	add	edx, DWORD PTR _k$1[ebp]
	push	edx
	mov	eax, 1
	imul	ecx, eax, 0
	add	ecx, DWORD PTR _this$[ebp]
	push	ecx
	call	_memcpy
	add	esp, 12					; 0000000cH

; 45   : 			len-=k; k=0;

	mov	eax, DWORD PTR _this$[ebp]
	mov	ecx, DWORD PTR [eax+36]
	sub	ecx, DWORD PTR _k$1[ebp]
	mov	edx, DWORD PTR _this$[ebp]
	mov	DWORD PTR [edx+36], ecx
	mov	DWORD PTR _k$1[ebp], 0

; 46   : 			HEQ=0; HMI=0;

	mov	DWORD PTR _HEQ$[ebp], 0
	mov	DWORD PTR _HMI$[ebp], 0

; 47   : 			continue;

	jmp	$LN4@CheckBuffe
$LN8@CheckBuffe:

; 48   : 		};
; 49   : 		k++;

	mov	eax, DWORD PTR _k$1[ebp]
	add	eax, 1
	mov	DWORD PTR _k$1[ebp], eax

; 50   : 	};

	jmp	$LN4@CheckBuffe
$LN3@CheckBuffe:

; 51   : 	if (HMI==0) len=0;

	cmp	DWORD PTR _HMI$[ebp], 0
	jne	SHORT $LN1@CheckBuffe
	mov	eax, DWORD PTR _this$[ebp]
	mov	DWORD PTR [eax+36], 0
$LN1@CheckBuffe:

; 52   : 	return;
; 53   : };

	pop	edi
	pop	esi
	pop	ebx
	add	esp, 240				; 000000f0H
	cmp	ebp, esp
	call	__RTC_CheckEsp
	mov	esp, ebp
	pop	ebp
	ret	0
?CheckBuffer@HCharBuffer@@QAEXXZ ENDP			; HCharBuffer::CheckBuffer
_TEXT	ENDS
; Function compile flags: /Odtp /RTCsu /ZI
; File c:\users\smith\projects\callcenter\slworkset.h
;	COMDAT ?GetLPCBR@HCharBuffer@@QAEPAKXZ
_TEXT	SEGMENT
_this$ = -8						; size = 4
?GetLPCBR@HCharBuffer@@QAEPAKXZ PROC			; HCharBuffer::GetLPCBR, COMDAT
; _this$ = ecx

; 57   : 	DWORD *GetLPCBR(void) { return &CBR; };

	push	ebp
	mov	ebp, esp
	sub	esp, 204				; 000000ccH
	push	ebx
	push	esi
	push	edi
	push	ecx
	lea	edi, DWORD PTR [ebp-204]
	mov	ecx, 51					; 00000033H
	mov	eax, -858993460				; ccccccccH
	rep stosd
	pop	ecx
	mov	DWORD PTR _this$[ebp], ecx
	mov	eax, DWORD PTR _this$[ebp]
	add	eax, 40					; 00000028H
	pop	edi
	pop	esi
	pop	ebx
	mov	esp, ebp
	pop	ebp
	ret	0
?GetLPCBR@HCharBuffer@@QAEPAKXZ ENDP			; HCharBuffer::GetLPCBR
_TEXT	ENDS
; Function compile flags: /Odtp /RTCsu /ZI
; File c:\users\smith\projects\callcenter\slworkset.h
;	COMDAT ?GetMaxSize@HCharBuffer@@QAEKK@Z
_TEXT	SEGMENT
tv69 = -208						; size = 4
_this$ = -8						; size = 4
_k$ = 8							; size = 4
?GetMaxSize@HCharBuffer@@QAEKK@Z PROC			; HCharBuffer::GetMaxSize, COMDAT
; _this$ = ecx

; 56   : 	DWORD GetMaxSize(DWORD k) { return min(HCB_BUFSIZE-len, k); };	

	push	ebp
	mov	ebp, esp
	sub	esp, 208				; 000000d0H
	push	ebx
	push	esi
	push	edi
	push	ecx
	lea	edi, DWORD PTR [ebp-208]
	mov	ecx, 52					; 00000034H
	mov	eax, -858993460				; ccccccccH
	rep stosd
	pop	ecx
	mov	DWORD PTR _this$[ebp], ecx
	mov	eax, DWORD PTR _this$[ebp]
	mov	ecx, 32					; 00000020H
	sub	ecx, DWORD PTR [eax+36]
	cmp	ecx, DWORD PTR _k$[ebp]
	jae	SHORT $LN3@GetMaxSize
	mov	edx, DWORD PTR _this$[ebp]
	mov	eax, 32					; 00000020H
	sub	eax, DWORD PTR [edx+36]
	mov	DWORD PTR tv69[ebp], eax
	jmp	SHORT $LN4@GetMaxSize
$LN3@GetMaxSize:
	mov	ecx, DWORD PTR _k$[ebp]
	mov	DWORD PTR tv69[ebp], ecx
$LN4@GetMaxSize:
	mov	eax, DWORD PTR tv69[ebp]
	pop	edi
	pop	esi
	pop	ebx
	mov	esp, ebp
	pop	ebp
	ret	4
?GetMaxSize@HCharBuffer@@QAEKK@Z ENDP			; HCharBuffer::GetMaxSize
_TEXT	ENDS
; Function compile flags: /Odtp /RTCsu /ZI
; File c:\users\smith\projects\callcenter\slworkset.h
;	COMDAT ?GetBufPtr@HCharBuffer@@QAEPAXXZ
_TEXT	SEGMENT
_this$ = -8						; size = 4
?GetBufPtr@HCharBuffer@@QAEPAXXZ PROC			; HCharBuffer::GetBufPtr, COMDAT
; _this$ = ecx

; 55   : 	void *GetBufPtr(void) { return &buf[len]; };

	push	ebp
	mov	ebp, esp
	sub	esp, 204				; 000000ccH
	push	ebx
	push	esi
	push	edi
	push	ecx
	lea	edi, DWORD PTR [ebp-204]
	mov	ecx, 51					; 00000033H
	mov	eax, -858993460				; ccccccccH
	rep stosd
	pop	ecx
	mov	DWORD PTR _this$[ebp], ecx
	mov	eax, DWORD PTR _this$[ebp]
	mov	ecx, DWORD PTR _this$[ebp]
	add	ecx, DWORD PTR [eax+36]
	mov	eax, ecx
	pop	edi
	pop	esi
	pop	ebx
	mov	esp, ebp
	pop	ebp
	ret	0
?GetBufPtr@HCharBuffer@@QAEPAXXZ ENDP			; HCharBuffer::GetBufPtr
_TEXT	ENDS
; Function compile flags: /Odtp /RTCsu /ZI
; File c:\users\smith\projects\callcenter\slworkset.cpp
;	COMDAT ?GetCommand@HCharBuffer@@QAE?AVTZSuperShortString@@XZ
_TEXT	SEGMENT
tv158 = -280						; size = 4
tv83 = -276						; size = 4
$T2 = -268						; size = 4
$T3 = -256						; size = 8
_ret$4 = -48						; size = 8
_k$ = -32						; size = 4
_this$ = -20						; size = 4
__$EHRec$ = -12						; size = 12
___$ReturnUdt$ = 8					; size = 4
?GetCommand@HCharBuffer@@QAE?AVTZSuperShortString@@XZ PROC ; HCharBuffer::GetCommand, COMDAT
; _this$ = ecx

; 56   : {

	push	ebp
	mov	ebp, esp
	push	-1
	push	__ehhandler$?GetCommand@HCharBuffer@@QAE?AVTZSuperShortString@@XZ
	mov	eax, DWORD PTR fs:0
	push	eax
	sub	esp, 268				; 0000010cH
	push	ebx
	push	esi
	push	edi
	push	ecx
	lea	edi, DWORD PTR [ebp-280]
	mov	ecx, 67					; 00000043H
	mov	eax, -858993460				; ccccccccH
	rep stosd
	pop	ecx
	mov	eax, DWORD PTR ___security_cookie
	xor	eax, ebp
	push	eax
	lea	eax, DWORD PTR __$EHRec$[ebp]
	mov	DWORD PTR fs:0, eax
	mov	DWORD PTR _this$[ebp], ecx
	mov	DWORD PTR $T2[ebp], 0

; 57   : 	if (len==0 || buf[0]!='-') return TZSuperShortString();

	mov	eax, DWORD PTR _this$[ebp]
	cmp	DWORD PTR [eax+36], 0
	je	SHORT $LN6@GetCommand
	mov	eax, 1
	imul	ecx, eax, 0
	mov	edx, DWORD PTR _this$[ebp]
	movsx	eax, BYTE PTR [edx+ecx]
	cmp	eax, 45					; 0000002dH
	je	SHORT $LN5@GetCommand
$LN6@GetCommand:
	mov	ecx, DWORD PTR ___$ReturnUdt$[ebp]
	call	??0TZSuperShortString@@QAE@XZ		; TZSuperShortString::TZSuperShortString
	mov	eax, DWORD PTR $T2[ebp]
	or	eax, 1
	mov	DWORD PTR $T2[ebp], eax
	mov	eax, DWORD PTR ___$ReturnUdt$[ebp]
	jmp	$LN1@GetCommand
$LN5@GetCommand:

; 58   : unsigned int k;
; 59   : 	for (k=1; k<len; k++)

	mov	DWORD PTR _k$[ebp], 1
	jmp	SHORT $LN4@GetCommand
$LN2@GetCommand:
	mov	eax, DWORD PTR _k$[ebp]
	add	eax, 1
	mov	DWORD PTR _k$[ebp], eax
$LN4@GetCommand:
	mov	eax, DWORD PTR _this$[ebp]
	mov	ecx, DWORD PTR _k$[ebp]
	cmp	ecx, DWORD PTR [eax+36]
	jae	$LN3@GetCommand

; 60   : 	{
; 61   : 		if (buf[k]=='=')

	mov	eax, DWORD PTR _this$[ebp]
	add	eax, DWORD PTR _k$[ebp]
	movsx	ecx, BYTE PTR [eax]
	cmp	ecx, 61					; 0000003dH
	jne	$LN7@GetCommand

; 62   : 		{
; 63   : 		TZSuperShortString ret;

	lea	ecx, DWORD PTR _ret$4[ebp]
	call	??0TZSuperShortString@@QAE@XZ		; TZSuperShortString::TZSuperShortString
	mov	DWORD PTR __$EHRec$[ebp+8], 0

; 64   : 			ret = TZSuperShortString(&buf[0], k+1);

	mov	eax, DWORD PTR _k$[ebp]
	add	eax, 1
	push	eax
	mov	ecx, 1
	imul	edx, ecx, 0
	add	edx, DWORD PTR _this$[ebp]
	push	edx
	lea	ecx, DWORD PTR $T3[ebp]
	call	??0TZSuperShortString@@QAE@PBDH@Z	; TZSuperShortString::TZSuperShortString
	mov	DWORD PTR tv83[ebp], eax
	mov	eax, DWORD PTR tv83[ebp]
	mov	DWORD PTR tv158[ebp], eax
	mov	BYTE PTR __$EHRec$[ebp+8], 1
	mov	ecx, DWORD PTR tv158[ebp]
	push	ecx
	lea	ecx, DWORD PTR _ret$4[ebp]
	call	??4TZSuperShortString@@QAEXABV0@@Z	; TZSuperShortString::operator=
	mov	BYTE PTR __$EHRec$[ebp+8], 0
	lea	ecx, DWORD PTR $T3[ebp]
	call	??1TZSuperShortString@@QAE@XZ		; TZSuperShortString::~TZSuperShortString

; 65   : 			memcpy(&buf[0], &buf[k+1], len-k);

	mov	eax, DWORD PTR _this$[ebp]
	mov	ecx, DWORD PTR [eax+36]
	sub	ecx, DWORD PTR _k$[ebp]
	push	ecx
	mov	edx, DWORD PTR _k$[ebp]
	mov	eax, DWORD PTR _this$[ebp]
	lea	ecx, DWORD PTR [eax+edx+1]
	push	ecx
	mov	edx, 1
	imul	eax, edx, 0
	add	eax, DWORD PTR _this$[ebp]
	push	eax
	call	_memcpy
	add	esp, 12					; 0000000cH

; 66   : 			len-= k+1;

	mov	eax, DWORD PTR _k$[ebp]
	add	eax, 1
	mov	ecx, DWORD PTR _this$[ebp]
	mov	edx, DWORD PTR [ecx+36]
	sub	edx, eax
	mov	eax, DWORD PTR _this$[ebp]
	mov	DWORD PTR [eax+36], edx

; 67   : 			return ret;

	lea	eax, DWORD PTR _ret$4[ebp]
	push	eax
	mov	ecx, DWORD PTR ___$ReturnUdt$[ebp]
	call	??0TZSuperShortString@@QAE@ABV0@@Z	; TZSuperShortString::TZSuperShortString
	mov	ecx, DWORD PTR $T2[ebp]
	or	ecx, 1
	mov	DWORD PTR $T2[ebp], ecx
	mov	DWORD PTR __$EHRec$[ebp+8], -1
	lea	ecx, DWORD PTR _ret$4[ebp]
	call	??1TZSuperShortString@@QAE@XZ		; TZSuperShortString::~TZSuperShortString
	mov	eax, DWORD PTR ___$ReturnUdt$[ebp]
	jmp	SHORT $LN1@GetCommand
$LN7@GetCommand:

; 68   : 		};
; 69   : 	};

	jmp	$LN2@GetCommand
$LN3@GetCommand:

; 70   : 	return TZSuperShortString();

	mov	ecx, DWORD PTR ___$ReturnUdt$[ebp]
	call	??0TZSuperShortString@@QAE@XZ		; TZSuperShortString::TZSuperShortString
	mov	eax, DWORD PTR $T2[ebp]
	or	eax, 1
	mov	DWORD PTR $T2[ebp], eax
	mov	eax, DWORD PTR ___$ReturnUdt$[ebp]
$LN1@GetCommand:

; 71   : };

	push	edx
	mov	ecx, ebp
	push	eax
	lea	edx, DWORD PTR $LN16@GetCommand
	call	@_RTC_CheckStackVars@8
	pop	eax
	pop	edx
	mov	ecx, DWORD PTR __$EHRec$[ebp]
	mov	DWORD PTR fs:0, ecx
	pop	ecx
	pop	edi
	pop	esi
	pop	ebx
	add	esp, 280				; 00000118H
	cmp	ebp, esp
	call	__RTC_CheckEsp
	mov	esp, ebp
	pop	ebp
	ret	4
	npad	3
$LN16@GetCommand:
	DD	1
	DD	$LN15@GetCommand
$LN15@GetCommand:
	DD	-48					; ffffffd0H
	DD	8
	DD	$LN13@GetCommand
$LN13@GetCommand:
	DB	114					; 00000072H
	DB	101					; 00000065H
	DB	116					; 00000074H
	DB	0
_TEXT	ENDS
;	COMDAT text$x
text$x	SEGMENT
__unwindfunclet$?GetCommand@HCharBuffer@@QAE?AVTZSuperShortString@@XZ$1:
	lea	ecx, DWORD PTR _ret$4[ebp]
	jmp	??1TZSuperShortString@@QAE@XZ		; TZSuperShortString::~TZSuperShortString
__unwindfunclet$?GetCommand@HCharBuffer@@QAE?AVTZSuperShortString@@XZ$2:
	lea	ecx, DWORD PTR $T3[ebp]
	jmp	??1TZSuperShortString@@QAE@XZ		; TZSuperShortString::~TZSuperShortString
__ehhandler$?GetCommand@HCharBuffer@@QAE?AVTZSuperShortString@@XZ:
	mov	edx, DWORD PTR [esp+8]
	lea	eax, DWORD PTR [edx+12]
	mov	ecx, DWORD PTR [edx-284]
	xor	ecx, eax
	call	@__security_check_cookie@4
	mov	eax, OFFSET __ehfuncinfo$?GetCommand@HCharBuffer@@QAE?AVTZSuperShortString@@XZ
	jmp	___CxxFrameHandler3
text$x	ENDS
?GetCommand@HCharBuffer@@QAE?AVTZSuperShortString@@XZ ENDP ; HCharBuffer::GetCommand
; Function compile flags: /Odtp /RTCsu /ZI
; File c:\users\smith\projects\callcenter\slworkset.h
;	COMDAT ??0HCharBuffer@@QAE@XZ
_TEXT	SEGMENT
_this$ = -8						; size = 4
??0HCharBuffer@@QAE@XZ PROC				; HCharBuffer::HCharBuffer, COMDAT
; _this$ = ecx

; 50   : 	HCharBuffer() { curpos=0; len=0; };

	push	ebp
	mov	ebp, esp
	sub	esp, 204				; 000000ccH
	push	ebx
	push	esi
	push	edi
	push	ecx
	lea	edi, DWORD PTR [ebp-204]
	mov	ecx, 51					; 00000033H
	mov	eax, -858993460				; ccccccccH
	rep stosd
	pop	ecx
	mov	DWORD PTR _this$[ebp], ecx
	mov	eax, DWORD PTR _this$[ebp]
	mov	DWORD PTR [eax+32], 0
	mov	eax, DWORD PTR _this$[ebp]
	mov	DWORD PTR [eax+36], 0
	mov	eax, DWORD PTR _this$[ebp]
	pop	edi
	pop	esi
	pop	ebx
	mov	esp, ebp
	pop	ebp
	ret	0
??0HCharBuffer@@QAE@XZ ENDP				; HCharBuffer::HCharBuffer
_TEXT	ENDS
; Function compile flags: /Odtp /RTCsu /ZI
; File c:\users\smith\projects\callcenter\slworkset.cpp
;	COMDAT ??1CSLine@@QAE@XZ
_TEXT	SEGMENT
_this$ = -8						; size = 4
??1CSLine@@QAE@XZ PROC					; CSLine::~CSLine, COMDAT
; _this$ = ecx

; 24   : {

	push	ebp
	mov	ebp, esp
	sub	esp, 204				; 000000ccH
	push	ebx
	push	esi
	push	edi
	push	ecx
	lea	edi, DWORD PTR [ebp-204]
	mov	ecx, 51					; 00000033H
	mov	eax, -858993460				; ccccccccH
	rep stosd
	pop	ecx
	mov	DWORD PTR _this$[ebp], ecx

; 25   : 	DeleteCriticalSection(&CS);

	mov	eax, DWORD PTR _this$[ebp]
	add	eax, 12					; 0000000cH
	mov	esi, esp
	push	eax
	call	DWORD PTR __imp__DeleteCriticalSection@4
	cmp	esi, esp
	call	__RTC_CheckEsp

; 26   : }

	mov	ecx, DWORD PTR _this$[ebp]
	add	ecx, 4
	call	??1TZSuperShortString@@QAE@XZ		; TZSuperShortString::~TZSuperShortString
	pop	edi
	pop	esi
	pop	ebx
	add	esp, 204				; 000000ccH
	cmp	ebp, esp
	call	__RTC_CheckEsp
	mov	esp, ebp
	pop	ebp
	ret	0
??1CSLine@@QAE@XZ ENDP					; CSLine::~CSLine
_TEXT	ENDS
; Function compile flags: /Odtp /RTCsu /ZI
; File c:\users\smith\projects\callcenter\slworkset.cpp
;	COMDAT ??0CSLine@@QAE@XZ
_TEXT	SEGMENT
_this$ = -8						; size = 4
??0CSLine@@QAE@XZ PROC					; CSLine::CSLine, COMDAT
; _this$ = ecx

; 15   : {

	push	ebp
	mov	ebp, esp
	sub	esp, 204				; 000000ccH
	push	ebx
	push	esi
	push	edi
	push	ecx
	lea	edi, DWORD PTR [ebp-204]
	mov	ecx, 51					; 00000033H
	mov	eax, -858993460				; ccccccccH
	rep stosd
	pop	ecx
	mov	DWORD PTR _this$[ebp], ecx
	mov	ecx, DWORD PTR _this$[ebp]
	add	ecx, 4
	call	??0TZSuperShortString@@QAE@XZ		; TZSuperShortString::TZSuperShortString

; 16   : 	InitializeCriticalSection(&CS);

	mov	eax, DWORD PTR _this$[ebp]
	add	eax, 12					; 0000000cH
	mov	esi, esp
	push	eax
	call	DWORD PTR __imp__InitializeCriticalSection@4
	cmp	esi, esp
	call	__RTC_CheckEsp

; 17   : 	SLServiceGroup = SL_UNATTACHED;

	mov	eax, DWORD PTR _this$[ebp]
	mov	DWORD PTR [eax], 1

; 18   : 	RTState = CCS_BLOCKED;

	mov	eax, DWORD PTR _this$[ebp]
	mov	DWORD PTR [eax+36], 14			; 0000000eH

; 19   : 	MustBeBlocked = false;

	mov	eax, DWORD PTR _this$[ebp]
	mov	BYTE PTR [eax+40], 0

; 20   : 	AlarmBlocking = false;

	mov	eax, DWORD PTR _this$[ebp]
	mov	BYTE PTR [eax+41], 0

; 21   : }

	mov	eax, DWORD PTR _this$[ebp]
	pop	edi
	pop	esi
	pop	ebx
	add	esp, 204				; 000000ccH
	cmp	ebp, esp
	call	__RTC_CheckEsp
	mov	esp, ebp
	pop	ebp
	ret	0
??0CSLine@@QAE@XZ ENDP					; CSLine::CSLine
_TEXT	ENDS
; Function compile flags: /Odtp /RTCsu /ZI
;	COMDAT ??_GTZSuperShortString@@QAEPAXI@Z
_TEXT	SEGMENT
_this$ = -8						; size = 4
___flags$ = 8						; size = 4
??_GTZSuperShortString@@QAEPAXI@Z PROC			; TZSuperShortString::`scalar deleting destructor', COMDAT
; _this$ = ecx
	push	ebp
	mov	ebp, esp
	sub	esp, 204				; 000000ccH
	push	ebx
	push	esi
	push	edi
	push	ecx
	lea	edi, DWORD PTR [ebp-204]
	mov	ecx, 51					; 00000033H
	mov	eax, -858993460				; ccccccccH
	rep stosd
	pop	ecx
	mov	DWORD PTR _this$[ebp], ecx
	mov	ecx, DWORD PTR _this$[ebp]
	call	??1TZSuperShortString@@QAE@XZ		; TZSuperShortString::~TZSuperShortString
	mov	eax, DWORD PTR ___flags$[ebp]
	and	eax, 1
	je	SHORT $LN2@scalar
	push	8
	mov	eax, DWORD PTR _this$[ebp]
	push	eax
	call	??3@YAXPAXI@Z				; operator delete
	add	esp, 8
$LN2@scalar:
	mov	eax, DWORD PTR _this$[ebp]
	pop	edi
	pop	esi
	pop	ebx
	add	esp, 204				; 000000ccH
	cmp	ebp, esp
	call	__RTC_CheckEsp
	mov	esp, ebp
	pop	ebp
	ret	4
??_GTZSuperShortString@@QAEPAXI@Z ENDP			; TZSuperShortString::`scalar deleting destructor'
_TEXT	ENDS
; Function compile flags: /Odtp /RTCsu /ZI
; File c:\users\smith\projects\callcenter\tzssstring.h
;	COMDAT ?c_str@TZSuperShortString@@QBEPBDXZ
_TEXT	SEGMENT
_this$ = -8						; size = 4
?c_str@TZSuperShortString@@QBEPBDXZ PROC		; TZSuperShortString::c_str, COMDAT
; _this$ = ecx

; 29   : 	inline const char *c_str(void) const { return str; };

	push	ebp
	mov	ebp, esp
	sub	esp, 204				; 000000ccH
	push	ebx
	push	esi
	push	edi
	push	ecx
	lea	edi, DWORD PTR [ebp-204]
	mov	ecx, 51					; 00000033H
	mov	eax, -858993460				; ccccccccH
	rep stosd
	pop	ecx
	mov	DWORD PTR _this$[ebp], ecx
	mov	eax, DWORD PTR _this$[ebp]
	mov	eax, DWORD PTR [eax+4]
	pop	edi
	pop	esi
	pop	ebx
	mov	esp, ebp
	pop	ebp
	ret	0
?c_str@TZSuperShortString@@QBEPBDXZ ENDP		; TZSuperShortString::c_str
_TEXT	ENDS
; Function compile flags: /Odtp /RTCsu /ZI
; File c:\users\smith\projects\callcenter\sysout.h
;	COMDAT ?endl@@YAAAVCSysOut@@AAV1@@Z
_TEXT	SEGMENT
__outs$ = 8						; size = 4
?endl@@YAAAVCSysOut@@AAV1@@Z PROC			; endl, COMDAT

; 59   : inline CSysOut& __cdecl endl(CSysOut& _outs) { return _outs << '\n' << flush; }

	push	ebp
	mov	ebp, esp
	sub	esp, 192				; 000000c0H
	push	ebx
	push	esi
	push	edi
	lea	edi, DWORD PTR [ebp-192]
	mov	ecx, 48					; 00000030H
	mov	eax, -858993460				; ccccccccH
	rep stosd
	push	OFFSET ?flush@@YAAAVCSysOut@@AAV1@@Z	; flush
	push	10					; 0000000aH
	mov	ecx, DWORD PTR __outs$[ebp]
	call	??6CSysOut@@QAEAAV0@D@Z			; CSysOut::operator<<
	mov	ecx, eax
	call	??6CSysOut@@QAEAAV0@P6AAAV0@AAV0@@Z@Z	; CSysOut::operator<<
	pop	edi
	pop	esi
	pop	ebx
	add	esp, 192				; 000000c0H
	cmp	ebp, esp
	call	__RTC_CheckEsp
	mov	esp, ebp
	pop	ebp
	ret	0
?endl@@YAAAVCSysOut@@AAV1@@Z ENDP			; endl
_TEXT	ENDS
; Function compile flags: /Odtp /RTCsu /ZI
; File c:\users\smith\projects\callcenter\sysout.h
;	COMDAT ?flush@@YAAAVCSysOut@@AAV1@@Z
_TEXT	SEGMENT
__outs$ = 8						; size = 4
?flush@@YAAAVCSysOut@@AAV1@@Z PROC			; flush, COMDAT

; 58   : inline CSysOut& __cdecl flush(CSysOut& _outs) { return _outs.flush(); }

	push	ebp
	mov	ebp, esp
	sub	esp, 192				; 000000c0H
	push	ebx
	push	esi
	push	edi
	lea	edi, DWORD PTR [ebp-192]
	mov	ecx, 48					; 00000030H
	mov	eax, -858993460				; ccccccccH
	rep stosd
	mov	ecx, DWORD PTR __outs$[ebp]
	call	?flush@CSysOut@@QAEAAV1@XZ		; CSysOut::flush
	pop	edi
	pop	esi
	pop	ebx
	add	esp, 192				; 000000c0H
	cmp	ebp, esp
	call	__RTC_CheckEsp
	mov	esp, ebp
	pop	ebp
	ret	0
?flush@@YAAAVCSysOut@@AAV1@@Z ENDP			; flush
_TEXT	ENDS
; Function compile flags: /Odtp /RTCsu /ZI
; File c:\users\smith\projects\callcenter\sysout.h
;	COMDAT ??6CSysOut@@QAEAAV0@D@Z
_TEXT	SEGMENT
_this$ = -8						; size = 4
__c$ = 8						; size = 1
??6CSysOut@@QAEAAV0@D@Z PROC				; CSysOut::operator<<, COMDAT
; _this$ = ecx

; 52   : inline  CSysOut& CSysOut::operator<<(char _c) { return operator<<((unsigned char) _c); }

	push	ebp
	mov	ebp, esp
	sub	esp, 204				; 000000ccH
	push	ebx
	push	esi
	push	edi
	push	ecx
	lea	edi, DWORD PTR [ebp-204]
	mov	ecx, 51					; 00000033H
	mov	eax, -858993460				; ccccccccH
	rep stosd
	pop	ecx
	mov	DWORD PTR _this$[ebp], ecx
	movzx	eax, BYTE PTR __c$[ebp]
	push	eax
	mov	ecx, DWORD PTR _this$[ebp]
	call	??6CSysOut@@QAEAAV0@E@Z			; CSysOut::operator<<
	pop	edi
	pop	esi
	pop	ebx
	add	esp, 204				; 000000ccH
	cmp	ebp, esp
	call	__RTC_CheckEsp
	mov	esp, ebp
	pop	ebp
	ret	4
??6CSysOut@@QAEAAV0@D@Z ENDP				; CSysOut::operator<<
_TEXT	ENDS
; Function compile flags: /Odtp /RTCsu /ZI
; File c:\users\smith\projects\callcenter\sysout.h
;	COMDAT ??6CSysOut@@QAEAAV0@P6AAAV0@AAV0@@Z@Z
_TEXT	SEGMENT
_this$ = -8						; size = 4
__f$ = 8						; size = 4
??6CSysOut@@QAEAAV0@P6AAAV0@AAV0@@Z@Z PROC		; CSysOut::operator<<, COMDAT
; _this$ = ecx

; 49   : inline CSysOut& CSysOut::operator<<(CSysOut& (__cdecl * _f)(CSysOut&)) { (*_f)(*this); return *this; }

	push	ebp
	mov	ebp, esp
	sub	esp, 204				; 000000ccH
	push	ebx
	push	esi
	push	edi
	push	ecx
	lea	edi, DWORD PTR [ebp-204]
	mov	ecx, 51					; 00000033H
	mov	eax, -858993460				; ccccccccH
	rep stosd
	pop	ecx
	mov	DWORD PTR _this$[ebp], ecx
	mov	esi, esp
	mov	eax, DWORD PTR _this$[ebp]
	push	eax
	call	DWORD PTR __f$[ebp]
	add	esp, 4
	cmp	esi, esp
	call	__RTC_CheckEsp
	mov	eax, DWORD PTR _this$[ebp]
	pop	edi
	pop	esi
	pop	ebx
	add	esp, 204				; 000000ccH
	cmp	ebp, esp
	call	__RTC_CheckEsp
	mov	esp, ebp
	pop	ebp
	ret	4
??6CSysOut@@QAEAAV0@P6AAAV0@AAV0@@Z@Z ENDP		; CSysOut::operator<<
_TEXT	ENDS
; Function compile flags: /Odtp /RTCsu /ZI
; File c:\program files (x86)\windows kits\10\include\10.0.16299.0\ucrt\stdio.h
;	COMDAT _sprintf
_TEXT	SEGMENT
__ArgList$ = -20					; size = 4
__Result$ = -8						; size = 4
__Buffer$ = 8						; size = 4
__Format$ = 12						; size = 4
_sprintf PROC						; COMDAT

; 1779 :     {

	push	ebp
	mov	ebp, esp
	sub	esp, 216				; 000000d8H
	push	ebx
	push	esi
	push	edi
	lea	edi, DWORD PTR [ebp-216]
	mov	ecx, 54					; 00000036H
	mov	eax, -858993460				; ccccccccH
	rep stosd

; 1780 :         int _Result;
; 1781 :         va_list _ArgList;
; 1782 :         __crt_va_start(_ArgList, _Format);

	call	??$__vcrt_va_start_verify_argument_type@QBD@@YAXXZ ; __vcrt_va_start_verify_argument_type<char const * const>
	lea	eax, DWORD PTR __Format$[ebp+4]
	mov	DWORD PTR __ArgList$[ebp], eax

; 1783 : 
; 1784 :         #pragma warning(push)
; 1785 :         #pragma warning(disable: 4996) // Deprecation
; 1786 :         _Result = _vsprintf_l(_Buffer, _Format, NULL, _ArgList);

	mov	eax, DWORD PTR __ArgList$[ebp]
	push	eax
	push	0
	mov	ecx, DWORD PTR __Format$[ebp]
	push	ecx
	mov	edx, DWORD PTR __Buffer$[ebp]
	push	edx
	call	__vsprintf_l
	add	esp, 16					; 00000010H
	mov	DWORD PTR __Result$[ebp], eax

; 1787 :         #pragma warning(pop)
; 1788 : 
; 1789 :         __crt_va_end(_ArgList);

	mov	DWORD PTR __ArgList$[ebp], 0

; 1790 :         return _Result;

	mov	eax, DWORD PTR __Result$[ebp]

; 1791 :     }

	pop	edi
	pop	esi
	pop	ebx
	add	esp, 216				; 000000d8H
	cmp	ebp, esp
	call	__RTC_CheckEsp
	mov	esp, ebp
	pop	ebp
	ret	0
_sprintf ENDP
_TEXT	ENDS
; Function compile flags: /Odtp /RTCsu /ZI
; File c:\program files (x86)\windows kits\10\include\10.0.16299.0\ucrt\stdio.h
;	COMDAT __vsprintf_l
_TEXT	SEGMENT
__Buffer$ = 8						; size = 4
__Format$ = 12						; size = 4
__Locale$ = 16						; size = 4
__ArgList$ = 20						; size = 4
__vsprintf_l PROC					; COMDAT

; 1457 :     {

	push	ebp
	mov	ebp, esp
	sub	esp, 192				; 000000c0H
	push	ebx
	push	esi
	push	edi
	lea	edi, DWORD PTR [ebp-192]
	mov	ecx, 48					; 00000030H
	mov	eax, -858993460				; ccccccccH
	rep stosd

; 1458 :         #pragma warning(push)
; 1459 :         #pragma warning(disable: 4996) // Deprecation
; 1460 :         return _vsnprintf_l(_Buffer, (size_t)-1, _Format, _Locale, _ArgList);

	mov	eax, DWORD PTR __ArgList$[ebp]
	push	eax
	mov	ecx, DWORD PTR __Locale$[ebp]
	push	ecx
	mov	edx, DWORD PTR __Format$[ebp]
	push	edx
	push	-1
	mov	eax, DWORD PTR __Buffer$[ebp]
	push	eax
	call	__vsnprintf_l
	add	esp, 20					; 00000014H

; 1461 :         #pragma warning(pop)
; 1462 :     }

	pop	edi
	pop	esi
	pop	ebx
	add	esp, 192				; 000000c0H
	cmp	ebp, esp
	call	__RTC_CheckEsp
	mov	esp, ebp
	pop	ebp
	ret	0
__vsprintf_l ENDP
_TEXT	ENDS
; Function compile flags: /Odtp /RTCsu /ZI
; File c:\program files (x86)\windows kits\10\include\10.0.16299.0\ucrt\stdio.h
;	COMDAT __vsnprintf_l
_TEXT	SEGMENT
tv74 = -208						; size = 4
__Result$ = -8						; size = 4
__Buffer$ = 8						; size = 4
__BufferCount$ = 12					; size = 4
__Format$ = 16						; size = 4
__Locale$ = 20						; size = 4
__ArgList$ = 24						; size = 4
__vsnprintf_l PROC					; COMDAT

; 1387 :     {

	push	ebp
	mov	ebp, esp
	sub	esp, 208				; 000000d0H
	push	ebx
	push	esi
	push	edi
	lea	edi, DWORD PTR [ebp-208]
	mov	ecx, 52					; 00000034H
	mov	eax, -858993460				; ccccccccH
	rep stosd

; 1388 :         int const _Result = __stdio_common_vsprintf(

	mov	eax, DWORD PTR __ArgList$[ebp]
	push	eax
	mov	ecx, DWORD PTR __Locale$[ebp]
	push	ecx
	mov	edx, DWORD PTR __Format$[ebp]
	push	edx
	mov	eax, DWORD PTR __BufferCount$[ebp]
	push	eax
	mov	ecx, DWORD PTR __Buffer$[ebp]
	push	ecx
	call	___local_stdio_printf_options
	mov	edx, DWORD PTR [eax]
	or	edx, 1
	mov	eax, DWORD PTR [eax+4]
	push	eax
	push	edx
	call	___stdio_common_vsprintf
	add	esp, 28					; 0000001cH
	mov	DWORD PTR __Result$[ebp], eax

; 1389 :             _CRT_INTERNAL_LOCAL_PRINTF_OPTIONS | _CRT_INTERNAL_PRINTF_LEGACY_VSPRINTF_NULL_TERMINATION,
; 1390 :             _Buffer, _BufferCount, _Format, _Locale, _ArgList);
; 1391 : 
; 1392 :         return _Result < 0 ? -1 : _Result;

	cmp	DWORD PTR __Result$[ebp], 0
	jge	SHORT $LN3@vsnprintf_
	mov	DWORD PTR tv74[ebp], -1
	jmp	SHORT $LN4@vsnprintf_
$LN3@vsnprintf_:
	mov	eax, DWORD PTR __Result$[ebp]
	mov	DWORD PTR tv74[ebp], eax
$LN4@vsnprintf_:
	mov	eax, DWORD PTR tv74[ebp]

; 1393 :     }

	pop	edi
	pop	esi
	pop	ebx
	add	esp, 208				; 000000d0H
	cmp	ebp, esp
	call	__RTC_CheckEsp
	mov	esp, ebp
	pop	ebp
	ret	0
__vsnprintf_l ENDP
_TEXT	ENDS
; Function compile flags: /Odtp /RTCsu /ZI
; File c:\msvs\vs2017\vc\tools\msvc\14.13.26128\include\vadefs.h
;	COMDAT ??$__vcrt_va_start_verify_argument_type@QBD@@YAXXZ
_TEXT	SEGMENT
??$__vcrt_va_start_verify_argument_type@QBD@@YAXXZ PROC	; __vcrt_va_start_verify_argument_type<char const * const>, COMDAT

; 150  :         {

	push	ebp
	mov	ebp, esp
	sub	esp, 192				; 000000c0H
	push	ebx
	push	esi
	push	edi
	lea	edi, DWORD PTR [ebp-192]
	mov	ecx, 48					; 00000030H
	mov	eax, -858993460				; ccccccccH
	rep stosd

; 151  :             static_assert(!__vcrt_va_list_is_reference<_Ty>::__the_value, "va_start argument must not have reference type and must not be parenthesized");
; 152  :         }

	pop	edi
	pop	esi
	pop	ebx
	mov	esp, ebp
	pop	ebp
	ret	0
??$__vcrt_va_start_verify_argument_type@QBD@@YAXXZ ENDP	; __vcrt_va_start_verify_argument_type<char const * const>
_TEXT	ENDS
; Function compile flags: /Odtp /RTCsu /ZI
; File c:\program files (x86)\windows kits\10\include\10.0.16299.0\ucrt\corecrt_stdio_config.h
;	COMDAT ___local_stdio_printf_options
_TEXT	SEGMENT
___local_stdio_printf_options PROC			; COMDAT

; 85   :     {

	push	ebp
	mov	ebp, esp
	sub	esp, 192				; 000000c0H
	push	ebx
	push	esi
	push	edi
	lea	edi, DWORD PTR [ebp-192]
	mov	ecx, 48					; 00000030H
	mov	eax, -858993460				; ccccccccH
	rep stosd

; 86   :         static unsigned __int64 _OptionsStorage;
; 87   :         return &_OptionsStorage;

	mov	eax, OFFSET ?_OptionsStorage@?1??__local_stdio_printf_options@@9@4_KA ; `__local_stdio_printf_options'::`2'::_OptionsStorage

; 88   :     }

	pop	edi
	pop	esi
	pop	ebx
	mov	esp, ebp
	pop	ebp
	ret	0
___local_stdio_printf_options ENDP
_TEXT	ENDS
; Function compile flags: /Odtp /RTCsu /ZI
; File c:\users\smith\projects\callcenter\slworkset.cpp
;	COMDAT ?__empty_global_delete@@YAXPAXI@Z
_TEXT	SEGMENT
___formal$ = 8						; size = 4
___formal$ = 12						; size = 4
?__empty_global_delete@@YAXPAXI@Z PROC			; __empty_global_delete, COMDAT

	push	ebp
	mov	ebp, esp
	sub	esp, 192				; 000000c0H
	push	ebx
	push	esi
	push	edi
	lea	edi, DWORD PTR [ebp-192]
	mov	ecx, 48					; 00000030H
	mov	eax, -858993460				; ccccccccH
	rep stosd
	pop	edi
	pop	esi
	pop	ebx
	mov	esp, ebp
	pop	ebp
	ret	0
?__empty_global_delete@@YAXPAXI@Z ENDP			; __empty_global_delete
_TEXT	ENDS
; Function compile flags: /Odtp /RTCsu /ZI
; File c:\users\smith\projects\callcenter\slworkset.cpp
;	COMDAT ?__empty_global_delete@@YAXPAX@Z
_TEXT	SEGMENT
___formal$ = 8						; size = 4
?__empty_global_delete@@YAXPAX@Z PROC			; __empty_global_delete, COMDAT

	push	ebp
	mov	ebp, esp
	sub	esp, 192				; 000000c0H
	push	ebx
	push	esi
	push	edi
	lea	edi, DWORD PTR [ebp-192]
	mov	ecx, 48					; 00000030H
	mov	eax, -858993460				; ccccccccH
	rep stosd
	pop	edi
	pop	esi
	pop	ebx
	mov	esp, ebp
	pop	ebp
	ret	0
?__empty_global_delete@@YAXPAX@Z ENDP			; __empty_global_delete
_TEXT	ENDS
END
