; Listing generated by Microsoft (R) Optimizing Compiler Version 19.13.26131.1 

	TITLE	C:\Users\smith\Projects\CallCenter\SystemMessageQueueWithTimer.cpp
	.686P
	.XMM
	include listing.inc
	.model	flat

INCLUDELIB LIBCMTD
INCLUDELIB OLDNAMES

PUBLIC	?__empty_global_delete@@YAXPAX@Z		; __empty_global_delete
PUBLIC	?__empty_global_delete@@YAXPAXI@Z		; __empty_global_delete
PUBLIC	??0st_SCSMQWT@@QAE@K_K@Z			; st_SCSMQWT::st_SCSMQWT
PUBLIC	??0CSystemMessageQueueWithTimer@@QAE@XZ		; CSystemMessageQueueWithTimer::CSystemMessageQueueWithTimer
PUBLIC	??1CSystemMessageQueueWithTimer@@UAE@XZ		; CSystemMessageQueueWithTimer::~CSystemMessageQueueWithTimer
PUBLIC	?Push@CSystemMessageQueueWithTimer@@QAEXK_K@Z	; CSystemMessageQueueWithTimer::Push
PUBLIC	?Pop@CSystemMessageQueueWithTimer@@QAE_KXZ	; CSystemMessageQueueWithTimer::Pop
PUBLIC	?GetCount@?$TPtrList@Ust_SCSMQWT@@@@QAEIXZ	; TPtrList<st_SCSMQWT>::GetCount
PUBLIC	?Add@?$TPtrList@Ust_SCSMQWT@@@@QAEXPAUst_SCSMQWT@@@Z ; TPtrList<st_SCSMQWT>::Add
PUBLIC	?Delete@?$TPtrList@Ust_SCSMQWT@@@@QAEXI@Z	; TPtrList<st_SCSMQWT>::Delete
PUBLIC	?Reset@?$TPtrList@Ust_SCSMQWT@@@@QAEXXZ		; TPtrList<st_SCSMQWT>::Reset
PUBLIC	??A?$TPtrList@Ust_SCSMQWT@@@@QAEPAUst_SCSMQWT@@I@Z ; TPtrList<st_SCSMQWT>::operator[]
PUBLIC	??0?$TPtrList@Ust_SCSMQWT@@@@QAE@XZ		; TPtrList<st_SCSMQWT>::TPtrList<st_SCSMQWT>
PUBLIC	??1?$TPtrList@Ust_SCSMQWT@@@@QAE@XZ		; TPtrList<st_SCSMQWT>::~TPtrList<st_SCSMQWT>
PUBLIC	??_GCSystemMessageQueueWithTimer@@UAEPAXI@Z	; CSystemMessageQueueWithTimer::`scalar deleting destructor'
PUBLIC	??_7CSystemMessageQueueWithTimer@@6B@		; CSystemMessageQueueWithTimer::`vftable'
PUBLIC	??_R4CSystemMessageQueueWithTimer@@6B@		; CSystemMessageQueueWithTimer::`RTTI Complete Object Locator'
PUBLIC	??_R0?AVCSystemMessageQueueWithTimer@@@8	; CSystemMessageQueueWithTimer `RTTI Type Descriptor'
PUBLIC	??_R3CSystemMessageQueueWithTimer@@8		; CSystemMessageQueueWithTimer::`RTTI Class Hierarchy Descriptor'
PUBLIC	??_R2CSystemMessageQueueWithTimer@@8		; CSystemMessageQueueWithTimer::`RTTI Base Class Array'
PUBLIC	??_R1A@?0A@EA@CSystemMessageQueueWithTimer@@8	; CSystemMessageQueueWithTimer::`RTTI Base Class Descriptor at (0,-1,0,64)'
EXTRN	??2@YAPAXI@Z:PROC				; operator new
EXTRN	??3@YAXPAXI@Z:PROC				; operator delete
EXTRN	__imp__InitializeCriticalSection@4:PROC
EXTRN	__imp__EnterCriticalSection@4:PROC
EXTRN	__imp__LeaveCriticalSection@4:PROC
EXTRN	__imp__DeleteCriticalSection@4:PROC
EXTRN	__imp__GetTickCount@0:PROC
EXTRN	??0TUIList@@QAE@XZ:PROC				; TUIList::TUIList
EXTRN	??1TUIList@@QAE@XZ:PROC				; TUIList::~TUIList
EXTRN	?GetSize@TUIList@@QBEIXZ:PROC			; TUIList::GetSize
EXTRN	?Reset@TUIList@@QAEXXZ:PROC			; TUIList::Reset
EXTRN	?Add@TUIList@@QAE_NI@Z:PROC			; TUIList::Add
EXTRN	?Delete@TUIList@@QAE_NI@Z:PROC			; TUIList::Delete
EXTRN	??ATUIList@@QAEAAII@Z:PROC			; TUIList::operator[]
EXTRN	??_ECSystemMessageQueueWithTimer@@UAEPAXI@Z:PROC ; CSystemMessageQueueWithTimer::`vector deleting destructor'
EXTRN	@__security_check_cookie@4:PROC
EXTRN	__RTC_CheckEsp:PROC
EXTRN	__RTC_InitBase:PROC
EXTRN	__RTC_Shutdown:PROC
EXTRN	___CxxFrameHandler3:PROC
EXTRN	??_7type_info@@6B@:QWORD			; type_info::`vftable'
EXTRN	___security_cookie:DWORD
;	COMDAT rtc$TMZ
rtc$TMZ	SEGMENT
__RTC_Shutdown.rtc$TMZ DD FLAT:__RTC_Shutdown
rtc$TMZ	ENDS
;	COMDAT rtc$IMZ
rtc$IMZ	SEGMENT
__RTC_InitBase.rtc$IMZ DD FLAT:__RTC_InitBase
rtc$IMZ	ENDS
;	COMDAT ??_R1A@?0A@EA@CSystemMessageQueueWithTimer@@8
rdata$r	SEGMENT
??_R1A@?0A@EA@CSystemMessageQueueWithTimer@@8 DD FLAT:??_R0?AVCSystemMessageQueueWithTimer@@@8 ; CSystemMessageQueueWithTimer::`RTTI Base Class Descriptor at (0,-1,0,64)'
	DD	00H
	DD	00H
	DD	0ffffffffH
	DD	00H
	DD	040H
	DD	FLAT:??_R3CSystemMessageQueueWithTimer@@8
rdata$r	ENDS
;	COMDAT ??_R2CSystemMessageQueueWithTimer@@8
rdata$r	SEGMENT
??_R2CSystemMessageQueueWithTimer@@8 DD FLAT:??_R1A@?0A@EA@CSystemMessageQueueWithTimer@@8 ; CSystemMessageQueueWithTimer::`RTTI Base Class Array'
rdata$r	ENDS
;	COMDAT ??_R3CSystemMessageQueueWithTimer@@8
rdata$r	SEGMENT
??_R3CSystemMessageQueueWithTimer@@8 DD 00H		; CSystemMessageQueueWithTimer::`RTTI Class Hierarchy Descriptor'
	DD	00H
	DD	01H
	DD	FLAT:??_R2CSystemMessageQueueWithTimer@@8
rdata$r	ENDS
;	COMDAT ??_R0?AVCSystemMessageQueueWithTimer@@@8
data$r	SEGMENT
??_R0?AVCSystemMessageQueueWithTimer@@@8 DD FLAT:??_7type_info@@6B@ ; CSystemMessageQueueWithTimer `RTTI Type Descriptor'
	DD	00H
	DB	'.?AVCSystemMessageQueueWithTimer@@', 00H
data$r	ENDS
;	COMDAT ??_R4CSystemMessageQueueWithTimer@@6B@
rdata$r	SEGMENT
??_R4CSystemMessageQueueWithTimer@@6B@ DD 00H		; CSystemMessageQueueWithTimer::`RTTI Complete Object Locator'
	DD	00H
	DD	00H
	DD	FLAT:??_R0?AVCSystemMessageQueueWithTimer@@@8
	DD	FLAT:??_R3CSystemMessageQueueWithTimer@@8
rdata$r	ENDS
;	COMDAT ??_7CSystemMessageQueueWithTimer@@6B@
CONST	SEGMENT
??_7CSystemMessageQueueWithTimer@@6B@ DD FLAT:??_R4CSystemMessageQueueWithTimer@@6B@ ; CSystemMessageQueueWithTimer::`vftable'
	DD	FLAT:??_ECSystemMessageQueueWithTimer@@UAEPAXI@Z
CONST	ENDS
;	COMDAT xdata$x
xdata$x	SEGMENT
__ehfuncinfo$??1?$TPtrList@Ust_SCSMQWT@@@@QAE@XZ DD 019930522H
	DD	00H
	DD	00H
	DD	2 DUP(00H)
	DD	2 DUP(00H)
	DD	00H
	DD	05H
xdata$x	ENDS
;	COMDAT xdata$x
xdata$x	SEGMENT
__unwindtable$?Push@CSystemMessageQueueWithTimer@@QAEXK_K@Z DD 0ffffffffH
	DD	FLAT:__unwindfunclet$?Push@CSystemMessageQueueWithTimer@@QAEXK_K@Z$0
__ehfuncinfo$?Push@CSystemMessageQueueWithTimer@@QAEXK_K@Z DD 019930522H
	DD	01H
	DD	FLAT:__unwindtable$?Push@CSystemMessageQueueWithTimer@@QAEXK_K@Z
	DD	2 DUP(00H)
	DD	2 DUP(00H)
	DD	00H
	DD	01H
xdata$x	ENDS
; Function compile flags: /Odtp /RTCsu /ZI
;	COMDAT ??_GCSystemMessageQueueWithTimer@@UAEPAXI@Z
_TEXT	SEGMENT
_this$ = -8						; size = 4
___flags$ = 8						; size = 4
??_GCSystemMessageQueueWithTimer@@UAEPAXI@Z PROC	; CSystemMessageQueueWithTimer::`scalar deleting destructor', COMDAT
; _this$ = ecx
	push	ebp
	mov	ebp, esp
	sub	esp, 204				; 000000ccH
	push	ebx
	push	esi
	push	edi
	push	ecx
	lea	edi, DWORD PTR [ebp-204]
	mov	ecx, 51					; 00000033H
	mov	eax, -858993460				; ccccccccH
	rep stosd
	pop	ecx
	mov	DWORD PTR _this$[ebp], ecx
	mov	ecx, DWORD PTR _this$[ebp]
	call	??1CSystemMessageQueueWithTimer@@UAE@XZ	; CSystemMessageQueueWithTimer::~CSystemMessageQueueWithTimer
	mov	eax, DWORD PTR ___flags$[ebp]
	and	eax, 1
	je	SHORT $LN2@scalar
	push	40					; 00000028H
	mov	eax, DWORD PTR _this$[ebp]
	push	eax
	call	??3@YAXPAXI@Z				; operator delete
	add	esp, 8
$LN2@scalar:
	mov	eax, DWORD PTR _this$[ebp]
	pop	edi
	pop	esi
	pop	ebx
	add	esp, 204				; 000000ccH
	cmp	ebp, esp
	call	__RTC_CheckEsp
	mov	esp, ebp
	pop	ebp
	ret	4
??_GCSystemMessageQueueWithTimer@@UAEPAXI@Z ENDP	; CSystemMessageQueueWithTimer::`scalar deleting destructor'
_TEXT	ENDS
; Function compile flags: /Odtp /RTCsu /ZI
; File c:\users\smith\projects\callcenter\tuilist.h
;	COMDAT ??1?$TPtrList@Ust_SCSMQWT@@@@QAE@XZ
_TEXT	SEGMENT
_this$ = -20						; size = 4
__$EHRec$ = -12						; size = 12
??1?$TPtrList@Ust_SCSMQWT@@@@QAE@XZ PROC		; TPtrList<st_SCSMQWT>::~TPtrList<st_SCSMQWT>, COMDAT
; _this$ = ecx

; 176  : 	~TPtrList() { Reset(); };

	push	ebp
	mov	ebp, esp
	push	-1
	push	__ehhandler$??1?$TPtrList@Ust_SCSMQWT@@@@QAE@XZ
	mov	eax, DWORD PTR fs:0
	push	eax
	sub	esp, 204				; 000000ccH
	push	ebx
	push	esi
	push	edi
	push	ecx
	lea	edi, DWORD PTR [ebp-216]
	mov	ecx, 51					; 00000033H
	mov	eax, -858993460				; ccccccccH
	rep stosd
	pop	ecx
	mov	eax, DWORD PTR ___security_cookie
	xor	eax, ebp
	push	eax
	lea	eax, DWORD PTR __$EHRec$[ebp]
	mov	DWORD PTR fs:0, eax
	mov	DWORD PTR _this$[ebp], ecx
	mov	ecx, DWORD PTR _this$[ebp]
	call	?Reset@?$TPtrList@Ust_SCSMQWT@@@@QAEXXZ	; TPtrList<st_SCSMQWT>::Reset
	mov	ecx, DWORD PTR _this$[ebp]
	call	??1TUIList@@QAE@XZ			; TUIList::~TUIList
	mov	ecx, DWORD PTR __$EHRec$[ebp]
	mov	DWORD PTR fs:0, ecx
	pop	ecx
	pop	edi
	pop	esi
	pop	ebx
	add	esp, 216				; 000000d8H
	cmp	ebp, esp
	call	__RTC_CheckEsp
	mov	esp, ebp
	pop	ebp
	ret	0
_TEXT	ENDS
;	COMDAT text$x
text$x	SEGMENT
__ehhandler$??1?$TPtrList@Ust_SCSMQWT@@@@QAE@XZ:
	mov	edx, DWORD PTR [esp+8]
	lea	eax, DWORD PTR [edx+12]
	mov	ecx, DWORD PTR [edx-220]
	xor	ecx, eax
	call	@__security_check_cookie@4
	mov	eax, OFFSET __ehfuncinfo$??1?$TPtrList@Ust_SCSMQWT@@@@QAE@XZ
	jmp	___CxxFrameHandler3
text$x	ENDS
??1?$TPtrList@Ust_SCSMQWT@@@@QAE@XZ ENDP		; TPtrList<st_SCSMQWT>::~TPtrList<st_SCSMQWT>
; Function compile flags: /Odtp /RTCsu /ZI
; File c:\users\smith\projects\callcenter\tuilist.h
;	COMDAT ??0?$TPtrList@Ust_SCSMQWT@@@@QAE@XZ
_TEXT	SEGMENT
_this$ = -8						; size = 4
??0?$TPtrList@Ust_SCSMQWT@@@@QAE@XZ PROC		; TPtrList<st_SCSMQWT>::TPtrList<st_SCSMQWT>, COMDAT
; _this$ = ecx

; 175  : 	TPtrList() { };

	push	ebp
	mov	ebp, esp
	sub	esp, 204				; 000000ccH
	push	ebx
	push	esi
	push	edi
	push	ecx
	lea	edi, DWORD PTR [ebp-204]
	mov	ecx, 51					; 00000033H
	mov	eax, -858993460				; ccccccccH
	rep stosd
	pop	ecx
	mov	DWORD PTR _this$[ebp], ecx
	mov	ecx, DWORD PTR _this$[ebp]
	call	??0TUIList@@QAE@XZ			; TUIList::TUIList
	mov	eax, DWORD PTR _this$[ebp]
	pop	edi
	pop	esi
	pop	ebx
	add	esp, 204				; 000000ccH
	cmp	ebp, esp
	call	__RTC_CheckEsp
	mov	esp, ebp
	pop	ebp
	ret	0
??0?$TPtrList@Ust_SCSMQWT@@@@QAE@XZ ENDP		; TPtrList<st_SCSMQWT>::TPtrList<st_SCSMQWT>
_TEXT	ENDS
; Function compile flags: /Odtp /RTCsu /ZI
; File c:\users\smith\projects\callcenter\tuilist.h
;	COMDAT ??A?$TPtrList@Ust_SCSMQWT@@@@QAEPAUst_SCSMQWT@@I@Z
_TEXT	SEGMENT
_this$ = -8						; size = 4
_index$ = 8						; size = 4
??A?$TPtrList@Ust_SCSMQWT@@@@QAEPAUst_SCSMQWT@@I@Z PROC	; TPtrList<st_SCSMQWT>::operator[], COMDAT
; _this$ = ecx

; 173  : 	Type *operator[](unsigned __int32 index) { return (Type *)TUIList::operator [](index); };

	push	ebp
	mov	ebp, esp
	sub	esp, 204				; 000000ccH
	push	ebx
	push	esi
	push	edi
	push	ecx
	lea	edi, DWORD PTR [ebp-204]
	mov	ecx, 51					; 00000033H
	mov	eax, -858993460				; ccccccccH
	rep stosd
	pop	ecx
	mov	DWORD PTR _this$[ebp], ecx
	mov	eax, DWORD PTR _index$[ebp]
	push	eax
	mov	ecx, DWORD PTR _this$[ebp]
	call	??ATUIList@@QAEAAII@Z			; TUIList::operator[]
	mov	eax, DWORD PTR [eax]
	pop	edi
	pop	esi
	pop	ebx
	add	esp, 204				; 000000ccH
	cmp	ebp, esp
	call	__RTC_CheckEsp
	mov	esp, ebp
	pop	ebp
	ret	4
??A?$TPtrList@Ust_SCSMQWT@@@@QAEPAUst_SCSMQWT@@I@Z ENDP	; TPtrList<st_SCSMQWT>::operator[]
_TEXT	ENDS
; Function compile flags: /Odtp /RTCsu /ZI
; File c:\users\smith\projects\callcenter\tuilist.h
;	COMDAT ?Reset@?$TPtrList@Ust_SCSMQWT@@@@QAEXXZ
_TEXT	SEGMENT
$T1 = -224						; size = 4
_i$2 = -20						; size = 4
_this$ = -8						; size = 4
?Reset@?$TPtrList@Ust_SCSMQWT@@@@QAEXXZ PROC		; TPtrList<st_SCSMQWT>::Reset, COMDAT
; _this$ = ecx

; 171  : 	void Reset(void) { for (unsigned i=0; i<TUIList::GetSize(); i++) delete (Type*)TUIList::operator [](i); TUIList::Reset(); };

	push	ebp
	mov	ebp, esp
	sub	esp, 228				; 000000e4H
	push	ebx
	push	esi
	push	edi
	push	ecx
	lea	edi, DWORD PTR [ebp-228]
	mov	ecx, 57					; 00000039H
	mov	eax, -858993460				; ccccccccH
	rep stosd
	pop	ecx
	mov	DWORD PTR _this$[ebp], ecx
	mov	DWORD PTR _i$2[ebp], 0
	jmp	SHORT $LN4@Reset
$LN2@Reset:
	mov	eax, DWORD PTR _i$2[ebp]
	add	eax, 1
	mov	DWORD PTR _i$2[ebp], eax
$LN4@Reset:
	mov	ecx, DWORD PTR _this$[ebp]
	call	?GetSize@TUIList@@QBEIXZ		; TUIList::GetSize
	cmp	DWORD PTR _i$2[ebp], eax
	jae	SHORT $LN3@Reset
	mov	eax, DWORD PTR _i$2[ebp]
	push	eax
	mov	ecx, DWORD PTR _this$[ebp]
	call	??ATUIList@@QAEAAII@Z			; TUIList::operator[]
	mov	ecx, DWORD PTR [eax]
	mov	DWORD PTR $T1[ebp], ecx
	push	16					; 00000010H
	mov	edx, DWORD PTR $T1[ebp]
	push	edx
	call	??3@YAXPAXI@Z				; operator delete
	add	esp, 8
	jmp	SHORT $LN2@Reset
$LN3@Reset:
	mov	ecx, DWORD PTR _this$[ebp]
	call	?Reset@TUIList@@QAEXXZ			; TUIList::Reset
	pop	edi
	pop	esi
	pop	ebx
	add	esp, 228				; 000000e4H
	cmp	ebp, esp
	call	__RTC_CheckEsp
	mov	esp, ebp
	pop	ebp
	ret	0
?Reset@?$TPtrList@Ust_SCSMQWT@@@@QAEXXZ ENDP		; TPtrList<st_SCSMQWT>::Reset
_TEXT	ENDS
; Function compile flags: /Odtp /RTCsu /ZI
; File c:\users\smith\projects\callcenter\tuilist.h
;	COMDAT ?Delete@?$TPtrList@Ust_SCSMQWT@@@@QAEXI@Z
_TEXT	SEGMENT
_this$ = -8						; size = 4
_index$ = 8						; size = 4
?Delete@?$TPtrList@Ust_SCSMQWT@@@@QAEXI@Z PROC		; TPtrList<st_SCSMQWT>::Delete, COMDAT
; _this$ = ecx

; 169  : 	void Delete(unsigned __int32 index) {TUIList::Delete(index); };

	push	ebp
	mov	ebp, esp
	sub	esp, 204				; 000000ccH
	push	ebx
	push	esi
	push	edi
	push	ecx
	lea	edi, DWORD PTR [ebp-204]
	mov	ecx, 51					; 00000033H
	mov	eax, -858993460				; ccccccccH
	rep stosd
	pop	ecx
	mov	DWORD PTR _this$[ebp], ecx
	mov	eax, DWORD PTR _index$[ebp]
	push	eax
	mov	ecx, DWORD PTR _this$[ebp]
	call	?Delete@TUIList@@QAE_NI@Z		; TUIList::Delete
	pop	edi
	pop	esi
	pop	ebx
	add	esp, 204				; 000000ccH
	cmp	ebp, esp
	call	__RTC_CheckEsp
	mov	esp, ebp
	pop	ebp
	ret	4
?Delete@?$TPtrList@Ust_SCSMQWT@@@@QAEXI@Z ENDP		; TPtrList<st_SCSMQWT>::Delete
_TEXT	ENDS
; Function compile flags: /Odtp /RTCsu /ZI
; File c:\users\smith\projects\callcenter\tuilist.h
;	COMDAT ?Add@?$TPtrList@Ust_SCSMQWT@@@@QAEXPAUst_SCSMQWT@@@Z
_TEXT	SEGMENT
_this$ = -8						; size = 4
_data$ = 8						; size = 4
?Add@?$TPtrList@Ust_SCSMQWT@@@@QAEXPAUst_SCSMQWT@@@Z PROC ; TPtrList<st_SCSMQWT>::Add, COMDAT
; _this$ = ecx

; 168  : 	void Add(Type *data) { TUIList::Add((unsigned __int32)data); };

	push	ebp
	mov	ebp, esp
	sub	esp, 204				; 000000ccH
	push	ebx
	push	esi
	push	edi
	push	ecx
	lea	edi, DWORD PTR [ebp-204]
	mov	ecx, 51					; 00000033H
	mov	eax, -858993460				; ccccccccH
	rep stosd
	pop	ecx
	mov	DWORD PTR _this$[ebp], ecx
	mov	eax, DWORD PTR _data$[ebp]
	push	eax
	mov	ecx, DWORD PTR _this$[ebp]
	call	?Add@TUIList@@QAE_NI@Z			; TUIList::Add
	pop	edi
	pop	esi
	pop	ebx
	add	esp, 204				; 000000ccH
	cmp	ebp, esp
	call	__RTC_CheckEsp
	mov	esp, ebp
	pop	ebp
	ret	4
?Add@?$TPtrList@Ust_SCSMQWT@@@@QAEXPAUst_SCSMQWT@@@Z ENDP ; TPtrList<st_SCSMQWT>::Add
_TEXT	ENDS
; Function compile flags: /Odtp /RTCsu /ZI
; File c:\users\smith\projects\callcenter\tuilist.h
;	COMDAT ?GetCount@?$TPtrList@Ust_SCSMQWT@@@@QAEIXZ
_TEXT	SEGMENT
_this$ = -8						; size = 4
?GetCount@?$TPtrList@Ust_SCSMQWT@@@@QAEIXZ PROC		; TPtrList<st_SCSMQWT>::GetCount, COMDAT
; _this$ = ecx

; 166  : 	unsigned __int32 GetCount(void) { return TUIList::GetSize(); };

	push	ebp
	mov	ebp, esp
	sub	esp, 204				; 000000ccH
	push	ebx
	push	esi
	push	edi
	push	ecx
	lea	edi, DWORD PTR [ebp-204]
	mov	ecx, 51					; 00000033H
	mov	eax, -858993460				; ccccccccH
	rep stosd
	pop	ecx
	mov	DWORD PTR _this$[ebp], ecx
	mov	ecx, DWORD PTR _this$[ebp]
	call	?GetSize@TUIList@@QBEIXZ		; TUIList::GetSize
	pop	edi
	pop	esi
	pop	ebx
	add	esp, 204				; 000000ccH
	cmp	ebp, esp
	call	__RTC_CheckEsp
	mov	esp, ebp
	pop	ebp
	ret	0
?GetCount@?$TPtrList@Ust_SCSMQWT@@@@QAEIXZ ENDP		; TPtrList<st_SCSMQWT>::GetCount
_TEXT	ENDS
; Function compile flags: /Odtp /RTCsu /ZI
; File c:\users\smith\projects\callcenter\systemmessagequeuewithtimer.cpp
;	COMDAT ?Pop@CSystemMessageQueueWithTimer@@QAE_KXZ
_TEXT	SEGMENT
tv152 = -252						; size = 8
_i$1 = -48						; size = 4
_TC$ = -36						; size = 4
_Ret$ = -24						; size = 8
_this$ = -8						; size = 4
?Pop@CSystemMessageQueueWithTimer@@QAE_KXZ PROC		; CSystemMessageQueueWithTimer::Pop, COMDAT
; _this$ = ecx

; 30   : {

	push	ebp
	mov	ebp, esp
	sub	esp, 252				; 000000fcH
	push	ebx
	push	esi
	push	edi
	push	ecx
	lea	edi, DWORD PTR [ebp-252]
	mov	ecx, 63					; 0000003fH
	mov	eax, -858993460				; ccccccccH
	rep stosd
	pop	ecx
	mov	DWORD PTR _this$[ebp], ecx

; 31   : 	if (MsgList.GetCount() == 0) return 0;// throw ENoMessage();

	mov	ecx, DWORD PTR _this$[ebp]
	add	ecx, 4
	call	?GetCount@?$TPtrList@Ust_SCSMQWT@@@@QAEIXZ ; TPtrList<st_SCSMQWT>::GetCount
	test	eax, eax
	jne	SHORT $LN5@Pop
	xor	eax, eax
	xor	edx, edx
	jmp	$LN1@Pop
$LN5@Pop:

; 32   : unsigned __int64 Ret=0;

	xorps	xmm0, xmm0
	movlpd	QWORD PTR _Ret$[ebp], xmm0

; 33   : 	EnterCriticalSection(&CS);

	mov	eax, DWORD PTR _this$[ebp]
	add	eax, 16					; 00000010H
	mov	esi, esp
	push	eax
	call	DWORD PTR __imp__EnterCriticalSection@4
	cmp	esi, esp
	call	__RTC_CheckEsp

; 34   : 	DWORD TC = GetTickCount();

	mov	esi, esp
	call	DWORD PTR __imp__GetTickCount@0
	cmp	esi, esp
	call	__RTC_CheckEsp
	mov	DWORD PTR _TC$[ebp], eax

; 35   : 	for (int i=0; i<MsgList.GetCount(); i++)

	mov	DWORD PTR _i$1[ebp], 0
	jmp	SHORT $LN4@Pop
$LN2@Pop:
	mov	eax, DWORD PTR _i$1[ebp]
	add	eax, 1
	mov	DWORD PTR _i$1[ebp], eax
$LN4@Pop:
	mov	ecx, DWORD PTR _this$[ebp]
	add	ecx, 4
	call	?GetCount@?$TPtrList@Ust_SCSMQWT@@@@QAEIXZ ; TPtrList<st_SCSMQWT>::GetCount
	cmp	DWORD PTR _i$1[ebp], eax
	jae	SHORT $LN3@Pop

; 36   : 	{
; 37   : 		if (__int64(MsgList[i]->AlarmTime)-TC<0)

	mov	eax, DWORD PTR _i$1[ebp]
	push	eax
	mov	ecx, DWORD PTR _this$[ebp]
	add	ecx, 4
	call	??A?$TPtrList@Ust_SCSMQWT@@@@QAEPAUst_SCSMQWT@@I@Z ; TPtrList<st_SCSMQWT>::operator[]
	mov	ecx, DWORD PTR [eax]
	xor	edx, edx
	xor	eax, eax
	sub	ecx, DWORD PTR _TC$[ebp]
	sbb	edx, eax
	mov	DWORD PTR tv152[ebp], ecx
	mov	DWORD PTR tv152[ebp+4], edx
	cmp	DWORD PTR tv152[ebp+4], 0
	jg	SHORT $LN6@Pop
	jl	SHORT $LN9@Pop
	cmp	DWORD PTR tv152[ebp], 0
	jae	SHORT $LN6@Pop
$LN9@Pop:

; 38   : 		{
; 39   : 			Ret = MsgList[i]->MSG;

	mov	eax, DWORD PTR _i$1[ebp]
	push	eax
	mov	ecx, DWORD PTR _this$[ebp]
	add	ecx, 4
	call	??A?$TPtrList@Ust_SCSMQWT@@@@QAEPAUst_SCSMQWT@@I@Z ; TPtrList<st_SCSMQWT>::operator[]
	mov	ecx, DWORD PTR [eax+8]
	mov	DWORD PTR _Ret$[ebp], ecx
	mov	edx, DWORD PTR [eax+12]
	mov	DWORD PTR _Ret$[ebp+4], edx

; 40   : 			MsgList.Delete(i);

	mov	eax, DWORD PTR _i$1[ebp]
	push	eax
	mov	ecx, DWORD PTR _this$[ebp]
	add	ecx, 4
	call	?Delete@?$TPtrList@Ust_SCSMQWT@@@@QAEXI@Z ; TPtrList<st_SCSMQWT>::Delete

; 41   : 			break;

	jmp	SHORT $LN3@Pop
$LN6@Pop:

; 42   : 		};
; 43   : 	};

	jmp	$LN2@Pop
$LN3@Pop:

; 44   : 	LeaveCriticalSection(&CS);

	mov	eax, DWORD PTR _this$[ebp]
	add	eax, 16					; 00000010H
	mov	esi, esp
	push	eax
	call	DWORD PTR __imp__LeaveCriticalSection@4
	cmp	esi, esp
	call	__RTC_CheckEsp

; 45   : 	if (Ret!=0) return Ret;

	mov	eax, DWORD PTR _Ret$[ebp]
	or	eax, DWORD PTR _Ret$[ebp+4]
	je	SHORT $LN7@Pop
	mov	eax, DWORD PTR _Ret$[ebp]
	mov	edx, DWORD PTR _Ret$[ebp+4]
	jmp	SHORT $LN1@Pop
$LN7@Pop:

; 46   : 	return 0;//throw ENoMessage();

	xor	eax, eax
	xor	edx, edx
$LN1@Pop:

; 47   : }

	pop	edi
	pop	esi
	pop	ebx
	add	esp, 252				; 000000fcH
	cmp	ebp, esp
	call	__RTC_CheckEsp
	mov	esp, ebp
	pop	ebp
	ret	0
?Pop@CSystemMessageQueueWithTimer@@QAE_KXZ ENDP		; CSystemMessageQueueWithTimer::Pop
_TEXT	ENDS
; Function compile flags: /Odtp /RTCsu /ZI
; File c:\users\smith\projects\callcenter\systemmessagequeuewithtimer.cpp
;	COMDAT ?Push@CSystemMessageQueueWithTimer@@QAEXK_K@Z
_TEXT	SEGMENT
tv83 = -244						; size = 4
$T2 = -236						; size = 4
$T3 = -224						; size = 4
_this$ = -20						; size = 4
__$EHRec$ = -12						; size = 12
_TimeInterval$ = 8					; size = 4
_Msg$ = 12						; size = 8
?Push@CSystemMessageQueueWithTimer@@QAEXK_K@Z PROC	; CSystemMessageQueueWithTimer::Push, COMDAT
; _this$ = ecx

; 23   : {

	push	ebp
	mov	ebp, esp
	push	-1
	push	__ehhandler$?Push@CSystemMessageQueueWithTimer@@QAEXK_K@Z
	mov	eax, DWORD PTR fs:0
	push	eax
	sub	esp, 232				; 000000e8H
	push	ebx
	push	esi
	push	edi
	push	ecx
	lea	edi, DWORD PTR [ebp-244]
	mov	ecx, 58					; 0000003aH
	mov	eax, -858993460				; ccccccccH
	rep stosd
	pop	ecx
	mov	eax, DWORD PTR ___security_cookie
	xor	eax, ebp
	push	eax
	lea	eax, DWORD PTR __$EHRec$[ebp]
	mov	DWORD PTR fs:0, eax
	mov	DWORD PTR _this$[ebp], ecx

; 24   : 	EnterCriticalSection(&CS);

	mov	eax, DWORD PTR _this$[ebp]
	add	eax, 16					; 00000010H
	mov	esi, esp
	push	eax
	call	DWORD PTR __imp__EnterCriticalSection@4
	cmp	esi, esp
	call	__RTC_CheckEsp

; 25   : 	MsgList.Add(new st_SCSMQWT(GetTickCount()+TimeInterval, Msg));

	push	16					; 00000010H
	call	??2@YAPAXI@Z				; operator new
	add	esp, 4
	mov	DWORD PTR $T2[ebp], eax
	mov	DWORD PTR __$EHRec$[ebp+8], 0
	cmp	DWORD PTR $T2[ebp], 0
	je	SHORT $LN3@Push
	mov	eax, DWORD PTR _Msg$[ebp+4]
	push	eax
	mov	ecx, DWORD PTR _Msg$[ebp]
	push	ecx
	mov	esi, esp
	call	DWORD PTR __imp__GetTickCount@0
	cmp	esi, esp
	call	__RTC_CheckEsp
	add	eax, DWORD PTR _TimeInterval$[ebp]
	push	eax
	mov	ecx, DWORD PTR $T2[ebp]
	call	??0st_SCSMQWT@@QAE@K_K@Z		; st_SCSMQWT::st_SCSMQWT
	mov	DWORD PTR tv83[ebp], eax
	jmp	SHORT $LN4@Push
$LN3@Push:
	mov	DWORD PTR tv83[ebp], 0
$LN4@Push:
	mov	edx, DWORD PTR tv83[ebp]
	mov	DWORD PTR $T3[ebp], edx
	mov	DWORD PTR __$EHRec$[ebp+8], -1
	mov	eax, DWORD PTR $T3[ebp]
	push	eax
	mov	ecx, DWORD PTR _this$[ebp]
	add	ecx, 4
	call	?Add@?$TPtrList@Ust_SCSMQWT@@@@QAEXPAUst_SCSMQWT@@@Z ; TPtrList<st_SCSMQWT>::Add

; 26   : 	LeaveCriticalSection(&CS);

	mov	eax, DWORD PTR _this$[ebp]
	add	eax, 16					; 00000010H
	mov	esi, esp
	push	eax
	call	DWORD PTR __imp__LeaveCriticalSection@4
	cmp	esi, esp
	call	__RTC_CheckEsp

; 27   : }

	mov	ecx, DWORD PTR __$EHRec$[ebp]
	mov	DWORD PTR fs:0, ecx
	pop	ecx
	pop	edi
	pop	esi
	pop	ebx
	add	esp, 244				; 000000f4H
	cmp	ebp, esp
	call	__RTC_CheckEsp
	mov	esp, ebp
	pop	ebp
	ret	12					; 0000000cH
_TEXT	ENDS
;	COMDAT text$x
text$x	SEGMENT
__unwindfunclet$?Push@CSystemMessageQueueWithTimer@@QAEXK_K@Z$0:
	push	16					; 00000010H
	mov	eax, DWORD PTR $T2[ebp]
	push	eax
	call	??3@YAXPAXI@Z				; operator delete
	add	esp, 8
	ret	0
__ehhandler$?Push@CSystemMessageQueueWithTimer@@QAEXK_K@Z:
	mov	edx, DWORD PTR [esp+8]
	lea	eax, DWORD PTR [edx+12]
	mov	ecx, DWORD PTR [edx-248]
	xor	ecx, eax
	call	@__security_check_cookie@4
	mov	eax, OFFSET __ehfuncinfo$?Push@CSystemMessageQueueWithTimer@@QAEXK_K@Z
	jmp	___CxxFrameHandler3
text$x	ENDS
?Push@CSystemMessageQueueWithTimer@@QAEXK_K@Z ENDP	; CSystemMessageQueueWithTimer::Push
; Function compile flags: /Odtp /RTCsu /ZI
; File c:\users\smith\projects\callcenter\systemmessagequeuewithtimer.cpp
;	COMDAT ??1CSystemMessageQueueWithTimer@@UAE@XZ
_TEXT	SEGMENT
_this$ = -8						; size = 4
??1CSystemMessageQueueWithTimer@@UAE@XZ PROC		; CSystemMessageQueueWithTimer::~CSystemMessageQueueWithTimer, COMDAT
; _this$ = ecx

; 18   : {

	push	ebp
	mov	ebp, esp
	sub	esp, 204				; 000000ccH
	push	ebx
	push	esi
	push	edi
	push	ecx
	lea	edi, DWORD PTR [ebp-204]
	mov	ecx, 51					; 00000033H
	mov	eax, -858993460				; ccccccccH
	rep stosd
	pop	ecx
	mov	DWORD PTR _this$[ebp], ecx
	mov	eax, DWORD PTR _this$[ebp]
	mov	DWORD PTR [eax], OFFSET ??_7CSystemMessageQueueWithTimer@@6B@

; 19   : 	DeleteCriticalSection(&CS);

	mov	eax, DWORD PTR _this$[ebp]
	add	eax, 16					; 00000010H
	mov	esi, esp
	push	eax
	call	DWORD PTR __imp__DeleteCriticalSection@4
	cmp	esi, esp
	call	__RTC_CheckEsp

; 20   : }

	mov	ecx, DWORD PTR _this$[ebp]
	add	ecx, 4
	call	??1?$TPtrList@Ust_SCSMQWT@@@@QAE@XZ	; TPtrList<st_SCSMQWT>::~TPtrList<st_SCSMQWT>
	pop	edi
	pop	esi
	pop	ebx
	add	esp, 204				; 000000ccH
	cmp	ebp, esp
	call	__RTC_CheckEsp
	mov	esp, ebp
	pop	ebp
	ret	0
??1CSystemMessageQueueWithTimer@@UAE@XZ ENDP		; CSystemMessageQueueWithTimer::~CSystemMessageQueueWithTimer
_TEXT	ENDS
; Function compile flags: /Odtp /RTCsu /ZI
; File c:\users\smith\projects\callcenter\systemmessagequeuewithtimer.cpp
;	COMDAT ??0CSystemMessageQueueWithTimer@@QAE@XZ
_TEXT	SEGMENT
_this$ = -8						; size = 4
??0CSystemMessageQueueWithTimer@@QAE@XZ PROC		; CSystemMessageQueueWithTimer::CSystemMessageQueueWithTimer, COMDAT
; _this$ = ecx

; 13   : {

	push	ebp
	mov	ebp, esp
	sub	esp, 204				; 000000ccH
	push	ebx
	push	esi
	push	edi
	push	ecx
	lea	edi, DWORD PTR [ebp-204]
	mov	ecx, 51					; 00000033H
	mov	eax, -858993460				; ccccccccH
	rep stosd
	pop	ecx
	mov	DWORD PTR _this$[ebp], ecx
	mov	eax, DWORD PTR _this$[ebp]
	mov	DWORD PTR [eax], OFFSET ??_7CSystemMessageQueueWithTimer@@6B@
	mov	ecx, DWORD PTR _this$[ebp]
	add	ecx, 4
	call	??0?$TPtrList@Ust_SCSMQWT@@@@QAE@XZ	; TPtrList<st_SCSMQWT>::TPtrList<st_SCSMQWT>

; 14   : 	InitializeCriticalSection(&CS);

	mov	eax, DWORD PTR _this$[ebp]
	add	eax, 16					; 00000010H
	mov	esi, esp
	push	eax
	call	DWORD PTR __imp__InitializeCriticalSection@4
	cmp	esi, esp
	call	__RTC_CheckEsp

; 15   : }

	mov	eax, DWORD PTR _this$[ebp]
	pop	edi
	pop	esi
	pop	ebx
	add	esp, 204				; 000000ccH
	cmp	ebp, esp
	call	__RTC_CheckEsp
	mov	esp, ebp
	pop	ebp
	ret	0
??0CSystemMessageQueueWithTimer@@QAE@XZ ENDP		; CSystemMessageQueueWithTimer::CSystemMessageQueueWithTimer
_TEXT	ENDS
; Function compile flags: /Odtp /RTCsu /ZI
; File c:\users\smith\projects\callcenter\systemmessagequeuewithtimer.h
;	COMDAT ??0st_SCSMQWT@@QAE@K_K@Z
_TEXT	SEGMENT
_this$ = -8						; size = 4
__ALARMTIME$ = 8					; size = 4
__MSG$ = 12						; size = 8
??0st_SCSMQWT@@QAE@K_K@Z PROC				; st_SCSMQWT::st_SCSMQWT, COMDAT
; _this$ = ecx

; 18   : 	st_SCSMQWT(DWORD _ALARMTIME, unsigned __int64 _MSG) 	{ AlarmTime = _ALARMTIME; MSG = _MSG; };

	push	ebp
	mov	ebp, esp
	sub	esp, 204				; 000000ccH
	push	ebx
	push	esi
	push	edi
	push	ecx
	lea	edi, DWORD PTR [ebp-204]
	mov	ecx, 51					; 00000033H
	mov	eax, -858993460				; ccccccccH
	rep stosd
	pop	ecx
	mov	DWORD PTR _this$[ebp], ecx
	mov	eax, DWORD PTR _this$[ebp]
	mov	ecx, DWORD PTR __ALARMTIME$[ebp]
	mov	DWORD PTR [eax], ecx
	mov	eax, DWORD PTR _this$[ebp]
	mov	ecx, DWORD PTR __MSG$[ebp]
	mov	DWORD PTR [eax+8], ecx
	mov	edx, DWORD PTR __MSG$[ebp+4]
	mov	DWORD PTR [eax+12], edx
	mov	eax, DWORD PTR _this$[ebp]
	pop	edi
	pop	esi
	pop	ebx
	mov	esp, ebp
	pop	ebp
	ret	12					; 0000000cH
??0st_SCSMQWT@@QAE@K_K@Z ENDP				; st_SCSMQWT::st_SCSMQWT
_TEXT	ENDS
; Function compile flags: /Odtp /RTCsu /ZI
; File c:\users\smith\projects\callcenter\systemmessagequeuewithtimer.cpp
;	COMDAT ?__empty_global_delete@@YAXPAXI@Z
_TEXT	SEGMENT
___formal$ = 8						; size = 4
___formal$ = 12						; size = 4
?__empty_global_delete@@YAXPAXI@Z PROC			; __empty_global_delete, COMDAT

	push	ebp
	mov	ebp, esp
	sub	esp, 192				; 000000c0H
	push	ebx
	push	esi
	push	edi
	lea	edi, DWORD PTR [ebp-192]
	mov	ecx, 48					; 00000030H
	mov	eax, -858993460				; ccccccccH
	rep stosd
	pop	edi
	pop	esi
	pop	ebx
	mov	esp, ebp
	pop	ebp
	ret	0
?__empty_global_delete@@YAXPAXI@Z ENDP			; __empty_global_delete
_TEXT	ENDS
; Function compile flags: /Odtp /RTCsu /ZI
; File c:\users\smith\projects\callcenter\systemmessagequeuewithtimer.cpp
;	COMDAT ?__empty_global_delete@@YAXPAX@Z
_TEXT	SEGMENT
___formal$ = 8						; size = 4
?__empty_global_delete@@YAXPAX@Z PROC			; __empty_global_delete, COMDAT

	push	ebp
	mov	ebp, esp
	sub	esp, 192				; 000000c0H
	push	ebx
	push	esi
	push	edi
	lea	edi, DWORD PTR [ebp-192]
	mov	ecx, 48					; 00000030H
	mov	eax, -858993460				; ccccccccH
	rep stosd
	pop	edi
	pop	esi
	pop	ebx
	mov	esp, ebp
	pop	ebp
	ret	0
?__empty_global_delete@@YAXPAX@Z ENDP			; __empty_global_delete
_TEXT	ENDS
END
